
build/ch.elf:     file format elf32-littlearm


Disassembly of section .vectors:

08000000 <_vectors>:
 8000000:	20000400 	.word	0x20000400
 8000004:	08000239 	.word	0x08000239
 8000008:	0800023b 	.word	0x0800023b
 800000c:	0800023a 	.word	0x0800023a
 8000010:	0800023a 	.word	0x0800023a
 8000014:	0800023a 	.word	0x0800023a
 8000018:	0800023a 	.word	0x0800023a
 800001c:	0800023a 	.word	0x0800023a
 8000020:	0800023a 	.word	0x0800023a
 8000024:	0800023a 	.word	0x0800023a
 8000028:	0800023a 	.word	0x0800023a
 800002c:	080053f1 	.word	0x080053f1
 8000030:	0800023a 	.word	0x0800023a
 8000034:	0800023a 	.word	0x0800023a
 8000038:	0800023a 	.word	0x0800023a
 800003c:	0800023a 	.word	0x0800023a
 8000040:	0800023a 	.word	0x0800023a
 8000044:	0800023a 	.word	0x0800023a
 8000048:	0800023a 	.word	0x0800023a
 800004c:	0800023a 	.word	0x0800023a
 8000050:	0800023a 	.word	0x0800023a
 8000054:	0800023a 	.word	0x0800023a
 8000058:	080053b1 	.word	0x080053b1
 800005c:	08005361 	.word	0x08005361
 8000060:	08005311 	.word	0x08005311
 8000064:	080052c1 	.word	0x080052c1
 8000068:	08005271 	.word	0x08005271
 800006c:	08005021 	.word	0x08005021
 8000070:	08004fe1 	.word	0x08004fe1
 8000074:	08004fa1 	.word	0x08004fa1
 8000078:	08004f61 	.word	0x08004f61
 800007c:	08004f21 	.word	0x08004f21
 8000080:	08004ee1 	.word	0x08004ee1
 8000084:	08004ea1 	.word	0x08004ea1
 8000088:	0800023a 	.word	0x0800023a
 800008c:	0800023a 	.word	0x0800023a
 8000090:	08004761 	.word	0x08004761
 8000094:	0800023a 	.word	0x0800023a
 8000098:	0800023a 	.word	0x0800023a
 800009c:	08005181 	.word	0x08005181
 80000a0:	0800023a 	.word	0x0800023a
 80000a4:	0800023a 	.word	0x0800023a
 80000a8:	0800023a 	.word	0x0800023a
 80000ac:	0800023a 	.word	0x0800023a
 80000b0:	08004c21 	.word	0x08004c21
 80000b4:	0800023a 	.word	0x0800023a
 80000b8:	0800023a 	.word	0x0800023a
 80000bc:	08004da1 	.word	0x08004da1
 80000c0:	08004cc1 	.word	0x08004cc1
 80000c4:	0800023a 	.word	0x0800023a
 80000c8:	0800023a 	.word	0x0800023a
 80000cc:	0800023a 	.word	0x0800023a
 80000d0:	0800023a 	.word	0x0800023a
 80000d4:	08004a81 	.word	0x08004a81
 80000d8:	0800023a 	.word	0x0800023a
 80000dc:	0800023a 	.word	0x0800023a
 80000e0:	08005061 	.word	0x08005061
 80000e4:	0800023a 	.word	0x0800023a
 80000e8:	0800023a 	.word	0x0800023a
 80000ec:	0800023a 	.word	0x0800023a
 80000f0:	0800023a 	.word	0x0800023a
 80000f4:	0800023a 	.word	0x0800023a
 80000f8:	0800023a 	.word	0x0800023a
 80000fc:	0800023a 	.word	0x0800023a
 8000100:	0800023a 	.word	0x0800023a
 8000104:	0800023a 	.word	0x0800023a
 8000108:	0800023a 	.word	0x0800023a
 800010c:	0800023a 	.word	0x0800023a
 8000110:	0800023a 	.word	0x0800023a
 8000114:	0800023a 	.word	0x0800023a
 8000118:	0800023a 	.word	0x0800023a
 800011c:	0800023a 	.word	0x0800023a
 8000120:	0800023a 	.word	0x0800023a
 8000124:	0800023a 	.word	0x0800023a
 8000128:	0800023a 	.word	0x0800023a
 800012c:	0800023a 	.word	0x0800023a
 8000130:	0800023a 	.word	0x0800023a
 8000134:	0800023a 	.word	0x0800023a
 8000138:	0800023a 	.word	0x0800023a
 800013c:	0800023a 	.word	0x0800023a
 8000140:	0800023a 	.word	0x0800023a
 8000144:	0800023a 	.word	0x0800023a
 8000148:	0800023a 	.word	0x0800023a
 800014c:	0800023a 	.word	0x0800023a
 8000150:	0800023a 	.word	0x0800023a
 8000154:	0800023a 	.word	0x0800023a
 8000158:	0800023a 	.word	0x0800023a
 800015c:	0800023a 	.word	0x0800023a

Disassembly of section .text:

08000160 <_crt0_entry>:
                .align  2
                .thumb_func
                .global _crt0_entry
_crt0_entry:
                /* Interrupts are globally masked initially.*/
                cpsid   i
 8000160:	b672      	cpsid	i

#if CRT0_FORCE_MSP_INIT == TRUE
                /* MSP stack pointers initialization.*/
                ldr     r0, =__main_stack_end__
 8000162:	4827      	ldr	r0, [pc, #156]	; (8000200 <endfiniloop+0x4>)
                msr     MSP, r0
 8000164:	f380 8808 	msr	MSP, r0
#endif

                /* PSP stack pointers initialization.*/
                ldr     r0, =__process_stack_end__
 8000168:	4826      	ldr	r0, [pc, #152]	; (8000204 <endfiniloop+0x8>)
                msr     PSP, r0
 800016a:	f380 8809 	msr	PSP, r0

#if CRT0_VTOR_INIT == TRUE
                ldr     r0, =_vectors
 800016e:	4826      	ldr	r0, [pc, #152]	; (8000208 <endfiniloop+0xc>)
                movw    r1, #SCB_VTOR & 0xFFFF
 8000170:	f64e 5108 	movw	r1, #60680	; 0xed08
                movt    r1, #SCB_VTOR >> 16
 8000174:	f2ce 0100 	movt	r1, #57344	; 0xe000
                str     r0, [r1]
 8000178:	6008      	str	r0, [r1, #0]

                /* Enforcing FPCA bit in the CONTROL register.*/
                movs    r0, #CRT0_CONTROL_INIT | CONTROL_FPCA

#else
                movs    r0, #CRT0_CONTROL_INIT
 800017a:	2002      	movs	r0, #2
#endif

                /* CONTROL register initialization as configured.*/
                msr     CONTROL, r0
 800017c:	f380 8814 	msr	CONTROL, r0
                isb
 8000180:	f3bf 8f6f 	isb	sy

#if CRT0_INIT_CORE == TRUE
                /* Core initialization.*/
                bl      __core_init
 8000184:	f009 fd44 	bl	8009c10 <__core_init>
#endif

                /* Early initialization.*/
                bl      __early_init
 8000188:	f004 faaa 	bl	80046e0 <__early_init>

#if CRT0_INIT_STACKS == TRUE
                ldr     r0, =CRT0_STACKS_FILL_PATTERN
 800018c:	f04f 3055 	mov.w	r0, #1431655765	; 0x55555555
                /* Main Stack initialization. Note, it assumes that the
                   stack size is a multiple of 4 so the linker file must
                   ensure this.*/
                ldr     r1, =__main_stack_base__
 8000190:	491e      	ldr	r1, [pc, #120]	; (800020c <endfiniloop+0x10>)
                ldr     r2, =__main_stack_end__
 8000192:	4a1b      	ldr	r2, [pc, #108]	; (8000200 <endfiniloop+0x4>)

08000194 <msloop>:
msloop:
                cmp     r1, r2
 8000194:	4291      	cmp	r1, r2
                itt     lo
 8000196:	bf3c      	itt	cc
                strlo   r0, [r1], #4
 8000198:	f841 0b04 	strcc.w	r0, [r1], #4
                blo     msloop
 800019c:	e7fa      	bcc.n	8000194 <msloop>

                /* Process Stack initialization. Note, it assumes that the
                   stack size is a multiple of 4 so the linker file must
                   ensure this.*/
                ldr     r1, =__process_stack_base__
 800019e:	491c      	ldr	r1, [pc, #112]	; (8000210 <endfiniloop+0x14>)
                ldr     r2, =__process_stack_end__
 80001a0:	4a18      	ldr	r2, [pc, #96]	; (8000204 <endfiniloop+0x8>)

080001a2 <psloop>:
psloop:
                cmp     r1, r2
 80001a2:	4291      	cmp	r1, r2
                itt     lo
 80001a4:	bf3c      	itt	cc
                strlo   r0, [r1], #4
 80001a6:	f841 0b04 	strcc.w	r0, [r1], #4
                blo     psloop
 80001aa:	e7fa      	bcc.n	80001a2 <psloop>
#endif

#if CRT0_INIT_DATA == TRUE
                /* Data initialization. Note, it assumes that the DATA size
                  is a multiple of 4 so the linker file must ensure this.*/
                ldr     r1, =_textdata_start
 80001ac:	4919      	ldr	r1, [pc, #100]	; (8000214 <endfiniloop+0x18>)
                ldr     r2, =_data_start
 80001ae:	4a1a      	ldr	r2, [pc, #104]	; (8000218 <endfiniloop+0x1c>)
                ldr     r3, =_data_end
 80001b0:	4b1a      	ldr	r3, [pc, #104]	; (800021c <endfiniloop+0x20>)

080001b2 <dloop>:
dloop:
                cmp     r2, r3
 80001b2:	429a      	cmp	r2, r3
                ittt    lo
 80001b4:	bf3e      	ittt	cc
                ldrlo   r0, [r1], #4
 80001b6:	f851 0b04 	ldrcc.w	r0, [r1], #4
                strlo   r0, [r2], #4
 80001ba:	f842 0b04 	strcc.w	r0, [r2], #4
                blo     dloop
 80001be:	e7f8      	bcc.n	80001b2 <dloop>
#endif

#if CRT0_INIT_BSS == TRUE
                /* BSS initialization. Note, it assumes that the DATA size
                  is a multiple of 4 so the linker file must ensure this.*/
                movs    r0, #0
 80001c0:	2000      	movs	r0, #0
                ldr     r1, =_bss_start
 80001c2:	4917      	ldr	r1, [pc, #92]	; (8000220 <endfiniloop+0x24>)
                ldr     r2, =_bss_end
 80001c4:	4a17      	ldr	r2, [pc, #92]	; (8000224 <endfiniloop+0x28>)

080001c6 <bloop>:
bloop:
                cmp     r1, r2
 80001c6:	4291      	cmp	r1, r2
                itt     lo
 80001c8:	bf3c      	itt	cc
                strlo   r0, [r1], #4
 80001ca:	f841 0b04 	strcc.w	r0, [r1], #4
                blo     bloop
 80001ce:	e7fa      	bcc.n	80001c6 <bloop>
#endif

#if CRT0_INIT_RAM_AREAS == TRUE
                /* RAM areas initialization.*/
                bl      __init_ram_areas
 80001d0:	f009 fcd6 	bl	8009b80 <__init_ram_areas>
#endif

                /* Late initialization..*/
                bl      __late_init
 80001d4:	f009 fd14 	bl	8009c00 <__late_init>

#if CRT0_CALL_CONSTRUCTORS == TRUE
                /* Constructors invocation.*/
                ldr     r4, =__init_array_start
 80001d8:	4c13      	ldr	r4, [pc, #76]	; (8000228 <endfiniloop+0x2c>)
                ldr     r5, =__init_array_end
 80001da:	4d14      	ldr	r5, [pc, #80]	; (800022c <endfiniloop+0x30>)

080001dc <initloop>:
initloop:
                cmp     r4, r5
 80001dc:	42ac      	cmp	r4, r5
                bge     endinitloop
 80001de:	da03      	bge.n	80001e8 <endinitloop>
                ldr     r1, [r4], #4
 80001e0:	f854 1b04 	ldr.w	r1, [r4], #4
                blx     r1
 80001e4:	4788      	blx	r1
                b       initloop
 80001e6:	e7f9      	b.n	80001dc <initloop>

080001e8 <endinitloop>:
endinitloop:
#endif

                /* Main program invocation, r0 contains the returned value.*/
                bl      main
 80001e8:	f007 fbd2 	bl	8007990 <main>

#if CRT0_CALL_DESTRUCTORS == TRUE
                /* Destructors invocation.*/
                ldr     r4, =__fini_array_start
 80001ec:	4c10      	ldr	r4, [pc, #64]	; (8000230 <endfiniloop+0x34>)
                ldr     r5, =__fini_array_end
 80001ee:	4d11      	ldr	r5, [pc, #68]	; (8000234 <endfiniloop+0x38>)

080001f0 <finiloop>:
finiloop:
                cmp     r4, r5
 80001f0:	42ac      	cmp	r4, r5
                bge     endfiniloop
 80001f2:	da03      	bge.n	80001fc <endfiniloop>
                ldr     r1, [r4], #4
 80001f4:	f854 1b04 	ldr.w	r1, [r4], #4
                blx     r1
 80001f8:	4788      	blx	r1
                b       finiloop
 80001fa:	e7f9      	b.n	80001f0 <finiloop>

080001fc <endfiniloop>:
endfiniloop:
#endif

                /* Branching to the defined exit handler.*/
                b       __default_exit
 80001fc:	f009 bcf8 	b.w	8009bf0 <__default_exit>
                ldr     r0, =__main_stack_end__
 8000200:	20000400 	.word	0x20000400
                ldr     r0, =__process_stack_end__
 8000204:	20000800 	.word	0x20000800
                ldr     r0, =_vectors
 8000208:	08000000 	.word	0x08000000
                ldr     r1, =__main_stack_base__
 800020c:	20000000 	.word	0x20000000
                ldr     r1, =__process_stack_base__
 8000210:	20000400 	.word	0x20000400
                ldr     r1, =_textdata_start
 8000214:	0800c6d0 	.word	0x0800c6d0
                ldr     r2, =_data_start
 8000218:	20000800 	.word	0x20000800
                ldr     r3, =_data_end
 800021c:	200008a0 	.word	0x200008a0
                ldr     r1, =_bss_start
 8000220:	200008a0 	.word	0x200008a0
                ldr     r2, =_bss_end
 8000224:	20001cb4 	.word	0x20001cb4
                ldr     r4, =__init_array_start
 8000228:	08000160 	.word	0x08000160
                ldr     r5, =__init_array_end
 800022c:	08000160 	.word	0x08000160
                ldr     r4, =__fini_array_start
 8000230:	08000160 	.word	0x08000160
                ldr     r5, =__fini_array_end
 8000234:	08000160 	.word	0x08000160

08000238 <Reset_Handler>:

        .align      2
        .thumb_func
        .weak       Reset_Handler
Reset_Handler:
         b          _crt0_entry
 8000238:	e792      	b.n	8000160 <_crt0_entry>

0800023a <NMI_Handler>:
Vector3F0:
Vector3F4:
Vector3F8:
Vector3FC:
#endif
         b          _unhandled_exception
 800023a:	e7ff      	b.n	800023c <_unhandled_exception>

0800023c <_unhandled_exception>:

        .thumb_func
        .weak       _unhandled_exception
_unhandled_exception:
.stay:
        b           .stay
 800023c:	e7fe      	b.n	800023c <_unhandled_exception>
 800023e:	46c0      	nop			; (mov r8, r8)

08000240 <_port_switch>:
 * Performs a context switch between two threads.
 *--------------------------------------------------------------------------*/
                .thumb_func
                .globl  _port_switch
_port_switch:
                push    {r4, r5, r6, r7, r8, r9, r10, r11, lr}
 8000240:	e92d 4ff0 	stmdb	sp!, {r4, r5, r6, r7, r8, r9, sl, fp, lr}
#if CORTEX_USE_FPU
                vpush   {s16-s31}
#endif

                str     sp, [r1, #CONTEXT_OFFSET]
 8000244:	f8c1 d00c 	str.w	sp, [r1, #12]
#if (CORTEX_SIMPLIFIED_PRIORITY == FALSE) &&                                \
    ((CORTEX_MODEL == 3) || (CORTEX_MODEL == 4))
                /* Workaround for ARM errata 752419, only applied if
                   condition exists for it to be triggered.*/
                ldr     r3, [r0, #CONTEXT_OFFSET]
 8000248:	68c3      	ldr	r3, [r0, #12]
                mov     sp, r3
 800024a:	469d      	mov	sp, r3
#endif

#if CORTEX_USE_FPU
                vpop    {s16-s31}
#endif
                pop     {r4, r5, r6, r7, r8, r9, r10, r11, pc}
 800024c:	e8bd 8ff0 	ldmia.w	sp!, {r4, r5, r6, r7, r8, r9, sl, fp, pc}

08000250 <_port_thread_start>:
                bl      _stats_stop_measure_crit_thd
#endif
#if CORTEX_SIMPLIFIED_PRIORITY
                cpsie   i
#else
                movs    r3, #0              /* CORTEX_BASEPRI_DISABLED */
 8000250:	2300      	movs	r3, #0
                msr     BASEPRI, r3
 8000252:	f383 8811 	msr	BASEPRI, r3
#endif
                mov     r0, r5
 8000256:	4628      	mov	r0, r5
                blx     r4
 8000258:	47a0      	blx	r4
#if defined(_CHIBIOS_RT_CONF_)
                movs    r0, #0              /* MSG_OK */
 800025a:	2000      	movs	r0, #0
                bl      chThdExit
 800025c:	f005 f8d8 	bl	8005410 <chThdExit>

08000260 <_port_switch_from_isr>:
                bl      _stats_start_measure_crit_thd
#endif
#if CH_DBG_SYSTEM_STATE_CHECK
                bl      _dbg_check_lock
#endif
                bl      chSchDoReschedule
 8000260:	f005 f8e6 	bl	8005430 <chSchDoReschedule>

08000264 <_port_exit_from_isr>:
                movt    r3, #:upper16:SCB_ICSR
                mov     r2, ICSR_PENDSVSET
                str     r2, [r3, #0]
                cpsie   i
#else /* !CORTEX_SIMPLIFIED_PRIORITY */
                svc     #0
 8000264:	df00      	svc	0
#endif /* !CORTEX_SIMPLIFIED_PRIORITY */
.L1:            b       .L1
 8000266:	e7fe      	b.n	8000266 <_port_exit_from_isr+0x2>

08000268 <memcpy>:
 8000268:	4684      	mov	ip, r0
 800026a:	ea41 0300 	orr.w	r3, r1, r0
 800026e:	f013 0303 	ands.w	r3, r3, #3
 8000272:	d149      	bne.n	8000308 <memcpy+0xa0>
 8000274:	3a40      	subs	r2, #64	; 0x40
 8000276:	d323      	bcc.n	80002c0 <memcpy+0x58>
 8000278:	680b      	ldr	r3, [r1, #0]
 800027a:	6003      	str	r3, [r0, #0]
 800027c:	684b      	ldr	r3, [r1, #4]
 800027e:	6043      	str	r3, [r0, #4]
 8000280:	688b      	ldr	r3, [r1, #8]
 8000282:	6083      	str	r3, [r0, #8]
 8000284:	68cb      	ldr	r3, [r1, #12]
 8000286:	60c3      	str	r3, [r0, #12]
 8000288:	690b      	ldr	r3, [r1, #16]
 800028a:	6103      	str	r3, [r0, #16]
 800028c:	694b      	ldr	r3, [r1, #20]
 800028e:	6143      	str	r3, [r0, #20]
 8000290:	698b      	ldr	r3, [r1, #24]
 8000292:	6183      	str	r3, [r0, #24]
 8000294:	69cb      	ldr	r3, [r1, #28]
 8000296:	61c3      	str	r3, [r0, #28]
 8000298:	6a0b      	ldr	r3, [r1, #32]
 800029a:	6203      	str	r3, [r0, #32]
 800029c:	6a4b      	ldr	r3, [r1, #36]	; 0x24
 800029e:	6243      	str	r3, [r0, #36]	; 0x24
 80002a0:	6a8b      	ldr	r3, [r1, #40]	; 0x28
 80002a2:	6283      	str	r3, [r0, #40]	; 0x28
 80002a4:	6acb      	ldr	r3, [r1, #44]	; 0x2c
 80002a6:	62c3      	str	r3, [r0, #44]	; 0x2c
 80002a8:	6b0b      	ldr	r3, [r1, #48]	; 0x30
 80002aa:	6303      	str	r3, [r0, #48]	; 0x30
 80002ac:	6b4b      	ldr	r3, [r1, #52]	; 0x34
 80002ae:	6343      	str	r3, [r0, #52]	; 0x34
 80002b0:	6b8b      	ldr	r3, [r1, #56]	; 0x38
 80002b2:	6383      	str	r3, [r0, #56]	; 0x38
 80002b4:	6bcb      	ldr	r3, [r1, #60]	; 0x3c
 80002b6:	63c3      	str	r3, [r0, #60]	; 0x3c
 80002b8:	3040      	adds	r0, #64	; 0x40
 80002ba:	3140      	adds	r1, #64	; 0x40
 80002bc:	3a40      	subs	r2, #64	; 0x40
 80002be:	d2db      	bcs.n	8000278 <memcpy+0x10>
 80002c0:	3230      	adds	r2, #48	; 0x30
 80002c2:	d30b      	bcc.n	80002dc <memcpy+0x74>
 80002c4:	680b      	ldr	r3, [r1, #0]
 80002c6:	6003      	str	r3, [r0, #0]
 80002c8:	684b      	ldr	r3, [r1, #4]
 80002ca:	6043      	str	r3, [r0, #4]
 80002cc:	688b      	ldr	r3, [r1, #8]
 80002ce:	6083      	str	r3, [r0, #8]
 80002d0:	68cb      	ldr	r3, [r1, #12]
 80002d2:	60c3      	str	r3, [r0, #12]
 80002d4:	3010      	adds	r0, #16
 80002d6:	3110      	adds	r1, #16
 80002d8:	3a10      	subs	r2, #16
 80002da:	d2f3      	bcs.n	80002c4 <memcpy+0x5c>
 80002dc:	320c      	adds	r2, #12
 80002de:	d305      	bcc.n	80002ec <memcpy+0x84>
 80002e0:	f851 3b04 	ldr.w	r3, [r1], #4
 80002e4:	f840 3b04 	str.w	r3, [r0], #4
 80002e8:	3a04      	subs	r2, #4
 80002ea:	d2f9      	bcs.n	80002e0 <memcpy+0x78>
 80002ec:	3204      	adds	r2, #4
 80002ee:	d008      	beq.n	8000302 <memcpy+0x9a>
 80002f0:	07d2      	lsls	r2, r2, #31
 80002f2:	bf1c      	itt	ne
 80002f4:	f811 3b01 	ldrbne.w	r3, [r1], #1
 80002f8:	f800 3b01 	strbne.w	r3, [r0], #1
 80002fc:	d301      	bcc.n	8000302 <memcpy+0x9a>
 80002fe:	880b      	ldrh	r3, [r1, #0]
 8000300:	8003      	strh	r3, [r0, #0]
 8000302:	4660      	mov	r0, ip
 8000304:	4770      	bx	lr
 8000306:	bf00      	nop
 8000308:	2a08      	cmp	r2, #8
 800030a:	d313      	bcc.n	8000334 <memcpy+0xcc>
 800030c:	078b      	lsls	r3, r1, #30
 800030e:	d0b1      	beq.n	8000274 <memcpy+0xc>
 8000310:	f010 0303 	ands.w	r3, r0, #3
 8000314:	d0ae      	beq.n	8000274 <memcpy+0xc>
 8000316:	f1c3 0304 	rsb	r3, r3, #4
 800031a:	1ad2      	subs	r2, r2, r3
 800031c:	07db      	lsls	r3, r3, #31
 800031e:	bf1c      	itt	ne
 8000320:	f811 3b01 	ldrbne.w	r3, [r1], #1
 8000324:	f800 3b01 	strbne.w	r3, [r0], #1
 8000328:	d3a4      	bcc.n	8000274 <memcpy+0xc>
 800032a:	f831 3b02 	ldrh.w	r3, [r1], #2
 800032e:	f820 3b02 	strh.w	r3, [r0], #2
 8000332:	e79f      	b.n	8000274 <memcpy+0xc>
 8000334:	3a04      	subs	r2, #4
 8000336:	d3d9      	bcc.n	80002ec <memcpy+0x84>
 8000338:	3a01      	subs	r2, #1
 800033a:	f811 3b01 	ldrb.w	r3, [r1], #1
 800033e:	f800 3b01 	strb.w	r3, [r0], #1
 8000342:	d2f9      	bcs.n	8000338 <memcpy+0xd0>
 8000344:	780b      	ldrb	r3, [r1, #0]
 8000346:	7003      	strb	r3, [r0, #0]
 8000348:	784b      	ldrb	r3, [r1, #1]
 800034a:	7043      	strb	r3, [r0, #1]
 800034c:	788b      	ldrb	r3, [r1, #2]
 800034e:	7083      	strb	r3, [r0, #2]
 8000350:	4660      	mov	r0, ip
 8000352:	4770      	bx	lr

08000354 <strcmp>:
 8000354:	ea80 0c01 	eor.w	ip, r0, r1
 8000358:	f01c 0f03 	tst.w	ip, #3
 800035c:	d137      	bne.n	80003ce <strcmp+0x7a>
 800035e:	f010 0c03 	ands.w	ip, r0, #3
 8000362:	f020 0003 	bic.w	r0, r0, #3
 8000366:	f021 0103 	bic.w	r1, r1, #3
 800036a:	f850 2b04 	ldr.w	r2, [r0], #4
 800036e:	bf08      	it	eq
 8000370:	f851 3b04 	ldreq.w	r3, [r1], #4
 8000374:	d00e      	beq.n	8000394 <strcmp+0x40>
 8000376:	f08c 0c03 	eor.w	ip, ip, #3
 800037a:	f06f 437f 	mvn.w	r3, #4278190080	; 0xff000000
 800037e:	ea4f 0ccc 	mov.w	ip, ip, lsl #3
 8000382:	fa23 fc0c 	lsr.w	ip, r3, ip
 8000386:	f851 3b04 	ldr.w	r3, [r1], #4
 800038a:	ea42 020c 	orr.w	r2, r2, ip
 800038e:	ea43 030c 	orr.w	r3, r3, ip
 8000392:	bf00      	nop
 8000394:	f1a2 3c01 	sub.w	ip, r2, #16843009	; 0x1010101
 8000398:	429a      	cmp	r2, r3
 800039a:	bf01      	itttt	eq
 800039c:	ea2c 0c02 	biceq.w	ip, ip, r2
 80003a0:	f01c 3f80 	tsteq.w	ip, #2155905152	; 0x80808080
 80003a4:	f850 2b04 	ldreq.w	r2, [r0], #4
 80003a8:	f851 3b04 	ldreq.w	r3, [r1], #4
 80003ac:	d0f2      	beq.n	8000394 <strcmp+0x40>
 80003ae:	ea4f 6002 	mov.w	r0, r2, lsl #24
 80003b2:	ea4f 2212 	mov.w	r2, r2, lsr #8
 80003b6:	2801      	cmp	r0, #1
 80003b8:	bf28      	it	cs
 80003ba:	ebb0 6f03 	cmpcs.w	r0, r3, lsl #24
 80003be:	bf08      	it	eq
 80003c0:	0a1b      	lsreq	r3, r3, #8
 80003c2:	d0f4      	beq.n	80003ae <strcmp+0x5a>
 80003c4:	f003 03ff 	and.w	r3, r3, #255	; 0xff
 80003c8:	0e00      	lsrs	r0, r0, #24
 80003ca:	1ac0      	subs	r0, r0, r3
 80003cc:	4770      	bx	lr
 80003ce:	f010 0f03 	tst.w	r0, #3
 80003d2:	d00a      	beq.n	80003ea <strcmp+0x96>
 80003d4:	f810 2b01 	ldrb.w	r2, [r0], #1
 80003d8:	f811 3b01 	ldrb.w	r3, [r1], #1
 80003dc:	2a01      	cmp	r2, #1
 80003de:	bf28      	it	cs
 80003e0:	429a      	cmpcs	r2, r3
 80003e2:	d0f4      	beq.n	80003ce <strcmp+0x7a>
 80003e4:	eba2 0003 	sub.w	r0, r2, r3
 80003e8:	4770      	bx	lr
 80003ea:	f84d 5d04 	str.w	r5, [sp, #-4]!
 80003ee:	f850 2b04 	ldr.w	r2, [r0], #4
 80003f2:	f001 0503 	and.w	r5, r1, #3
 80003f6:	f021 0103 	bic.w	r1, r1, #3
 80003fa:	f851 3b04 	ldr.w	r3, [r1], #4
 80003fe:	2d02      	cmp	r5, #2
 8000400:	d026      	beq.n	8000450 <strcmp+0xfc>
 8000402:	d84d      	bhi.n	80004a0 <strcmp+0x14c>
 8000404:	f022 457f 	bic.w	r5, r2, #4278190080	; 0xff000000
 8000408:	ebb5 2f13 	cmp.w	r5, r3, lsr #8
 800040c:	f1a2 3c01 	sub.w	ip, r2, #16843009	; 0x1010101
 8000410:	ea2c 0c02 	bic.w	ip, ip, r2
 8000414:	d10d      	bne.n	8000432 <strcmp+0xde>
 8000416:	f01c 3c80 	ands.w	ip, ip, #2155905152	; 0x80808080
 800041a:	bf08      	it	eq
 800041c:	f851 3b04 	ldreq.w	r3, [r1], #4
 8000420:	d10a      	bne.n	8000438 <strcmp+0xe4>
 8000422:	ea85 0502 	eor.w	r5, r5, r2
 8000426:	ebb5 6f03 	cmp.w	r5, r3, lsl #24
 800042a:	d10c      	bne.n	8000446 <strcmp+0xf2>
 800042c:	f850 2b04 	ldr.w	r2, [r0], #4
 8000430:	e7e8      	b.n	8000404 <strcmp+0xb0>
 8000432:	ea4f 2313 	mov.w	r3, r3, lsr #8
 8000436:	e05b      	b.n	80004f0 <strcmp+0x19c>
 8000438:	f03c 4c7f 	bics.w	ip, ip, #4278190080	; 0xff000000
 800043c:	d154      	bne.n	80004e8 <strcmp+0x194>
 800043e:	780b      	ldrb	r3, [r1, #0]
 8000440:	ea4f 6512 	mov.w	r5, r2, lsr #24
 8000444:	e054      	b.n	80004f0 <strcmp+0x19c>
 8000446:	ea4f 6512 	mov.w	r5, r2, lsr #24
 800044a:	f003 03ff 	and.w	r3, r3, #255	; 0xff
 800044e:	e04f      	b.n	80004f0 <strcmp+0x19c>
 8000450:	ea4f 4502 	mov.w	r5, r2, lsl #16
 8000454:	f1a2 3c01 	sub.w	ip, r2, #16843009	; 0x1010101
 8000458:	ea4f 4515 	mov.w	r5, r5, lsr #16
 800045c:	ea2c 0c02 	bic.w	ip, ip, r2
 8000460:	ebb5 4f13 	cmp.w	r5, r3, lsr #16
 8000464:	d118      	bne.n	8000498 <strcmp+0x144>
 8000466:	f01c 3c80 	ands.w	ip, ip, #2155905152	; 0x80808080
 800046a:	bf08      	it	eq
 800046c:	f851 3b04 	ldreq.w	r3, [r1], #4
 8000470:	d107      	bne.n	8000482 <strcmp+0x12e>
 8000472:	ea85 0502 	eor.w	r5, r5, r2
 8000476:	ebb5 4f03 	cmp.w	r5, r3, lsl #16
 800047a:	d109      	bne.n	8000490 <strcmp+0x13c>
 800047c:	f850 2b04 	ldr.w	r2, [r0], #4
 8000480:	e7e6      	b.n	8000450 <strcmp+0xfc>
 8000482:	ea5f 4c0c 	movs.w	ip, ip, lsl #16
 8000486:	d12f      	bne.n	80004e8 <strcmp+0x194>
 8000488:	880b      	ldrh	r3, [r1, #0]
 800048a:	ea4f 4512 	mov.w	r5, r2, lsr #16
 800048e:	e02f      	b.n	80004f0 <strcmp+0x19c>
 8000490:	ea4f 4303 	mov.w	r3, r3, lsl #16
 8000494:	ea4f 4512 	mov.w	r5, r2, lsr #16
 8000498:	ea4f 4313 	mov.w	r3, r3, lsr #16
 800049c:	e028      	b.n	80004f0 <strcmp+0x19c>
 800049e:	bf00      	nop
 80004a0:	f002 05ff 	and.w	r5, r2, #255	; 0xff
 80004a4:	ebb5 6f13 	cmp.w	r5, r3, lsr #24
 80004a8:	f1a2 3c01 	sub.w	ip, r2, #16843009	; 0x1010101
 80004ac:	ea2c 0c02 	bic.w	ip, ip, r2
 80004b0:	d10d      	bne.n	80004ce <strcmp+0x17a>
 80004b2:	f01c 3c80 	ands.w	ip, ip, #2155905152	; 0x80808080
 80004b6:	bf08      	it	eq
 80004b8:	f851 3b04 	ldreq.w	r3, [r1], #4
 80004bc:	d10a      	bne.n	80004d4 <strcmp+0x180>
 80004be:	ea85 0502 	eor.w	r5, r5, r2
 80004c2:	ebb5 2f03 	cmp.w	r5, r3, lsl #8
 80004c6:	d10a      	bne.n	80004de <strcmp+0x18a>
 80004c8:	f850 2b04 	ldr.w	r2, [r0], #4
 80004cc:	e7e8      	b.n	80004a0 <strcmp+0x14c>
 80004ce:	ea4f 6313 	mov.w	r3, r3, lsr #24
 80004d2:	e00d      	b.n	80004f0 <strcmp+0x19c>
 80004d4:	f012 0fff 	tst.w	r2, #255	; 0xff
 80004d8:	d006      	beq.n	80004e8 <strcmp+0x194>
 80004da:	f851 3b04 	ldr.w	r3, [r1], #4
 80004de:	ea4f 2512 	mov.w	r5, r2, lsr #8
 80004e2:	f023 437f 	bic.w	r3, r3, #4278190080	; 0xff000000
 80004e6:	e003      	b.n	80004f0 <strcmp+0x19c>
 80004e8:	f04f 0000 	mov.w	r0, #0
 80004ec:	bc20      	pop	{r5}
 80004ee:	4770      	bx	lr
 80004f0:	f005 02ff 	and.w	r2, r5, #255	; 0xff
 80004f4:	f003 00ff 	and.w	r0, r3, #255	; 0xff
 80004f8:	2801      	cmp	r0, #1
 80004fa:	bf28      	it	cs
 80004fc:	4290      	cmpcs	r0, r2
 80004fe:	bf04      	itt	eq
 8000500:	0a2d      	lsreq	r5, r5, #8
 8000502:	0a1b      	lsreq	r3, r3, #8
 8000504:	d0f4      	beq.n	80004f0 <strcmp+0x19c>
 8000506:	eba2 0000 	sub.w	r0, r2, r0
 800050a:	bc20      	pop	{r5}
 800050c:	4770      	bx	lr
 800050e:	bf00      	nop

08000510 <chMtxTryLock.constprop.95>:
  \details Assigns the given value to the Base Priority register.
  \param [in]    basePri  Base Priority value to set
 */
__attribute__((always_inline)) __STATIC_INLINE void __set_BASEPRI(uint32_t basePri)
{
  __ASM volatile ("MSR basepri, %0" : : "r" (basePri) : "memory");
 8000510:	2320      	movs	r3, #32
 8000512:	f383 8811 	msr	BASEPRI, r3
bool chMtxTryLockS(mutex_t *mp) {

  chDbgCheckClassS();
  chDbgCheck(mp != NULL);

  if (mp->owner != NULL) {
 8000516:	4b09      	ldr	r3, [pc, #36]	; (800053c <chMtxTryLock.constprop.95+0x2c>)
 8000518:	689a      	ldr	r2, [r3, #8]
 800051a:	b122      	cbz	r2, 8000526 <chMtxTryLock.constprop.95+0x16>
    if (mp->owner == currp) {
      mp->cnt++;
      return true;
    }
#endif
    return false;
 800051c:	2000      	movs	r0, #0
 800051e:	2300      	movs	r3, #0
 8000520:	f383 8811 	msr	BASEPRI, r3
}
 8000524:	4770      	bx	lr

  chDbgAssert(mp->cnt == (cnt_t)0, "counter is not zero");

  mp->cnt++;
#endif
  mp->owner = currp;
 8000526:	4a06      	ldr	r2, [pc, #24]	; (8000540 <chMtxTryLock.constprop.95+0x30>)
  mp->next = currp->mtxlist;
  currp->mtxlist = mp;
 8000528:	2001      	movs	r0, #1
  mp->owner = currp;
 800052a:	6992      	ldr	r2, [r2, #24]
  mp->next = currp->mtxlist;
 800052c:	6b91      	ldr	r1, [r2, #56]	; 0x38
  currp->mtxlist = mp;
 800052e:	6393      	str	r3, [r2, #56]	; 0x38
  mp->next = currp->mtxlist;
 8000530:	e9c3 2102 	strd	r2, r1, [r3, #8]
 8000534:	2300      	movs	r3, #0
 8000536:	f383 8811 	msr	BASEPRI, r3
}
 800053a:	4770      	bx	lr
 800053c:	20000840 	.word	0x20000840
 8000540:	200012d0 	.word	0x200012d0
	...

08000550 <chEvtGetAndClearEvents.constprop.85>:
 8000550:	2320      	movs	r3, #32
 8000552:	f383 8811 	msr	BASEPRI, r3
 */
eventmask_t chEvtGetAndClearEventsI(eventmask_t events) {
  eventmask_t m;

  m = currp->epending & events;
  currp->epending &= ~events;
 8000556:	2300      	movs	r3, #0
  m = currp->epending & events;
 8000558:	4a03      	ldr	r2, [pc, #12]	; (8000568 <chEvtGetAndClearEvents.constprop.85+0x18>)
 800055a:	6992      	ldr	r2, [r2, #24]
 800055c:	6b50      	ldr	r0, [r2, #52]	; 0x34
  currp->epending &= ~events;
 800055e:	6353      	str	r3, [r2, #52]	; 0x34
 8000560:	f383 8811 	msr	BASEPRI, r3
  chSysLock();
  m = chEvtGetAndClearEventsI(events);
  chSysUnlock();

  return m;
}
 8000564:	4770      	bx	lr
 8000566:	bf00      	nop
 8000568:	200012d0 	.word	0x200012d0
 800056c:	00000000 	.word	0x00000000

08000570 <_test_assert_time_window.constprop.3>:
 *
 * @notapi
 */
static inline systime_t st_lld_get_counter(void) {

  return (systime_t)STM32_ST_TIM->CNT;
 8000570:	f04f 4380 	mov.w	r3, #1073741824	; 0x40000000
 8000574:	6a5b      	ldr	r3, [r3, #36]	; 0x24
 */
static inline bool chTimeIsInRangeX(systime_t time,
                                    systime_t start,
                                    systime_t end) {

  return (bool)((time - start) < (end - start));
 8000576:	1a09      	subs	r1, r1, r0
 8000578:	b29b      	uxth	r3, r3
 800057a:	1a18      	subs	r0, r3, r0
  return true;
}

bool _test_assert(bool condition, const char *msg) {

  if (!condition)
 800057c:	4288      	cmp	r0, r1
 800057e:	db0a      	blt.n	8000596 <_test_assert_time_window.constprop.3+0x26>
  test_local_fail      = true;
 8000580:	2001      	movs	r0, #1
  clear_tokens();

  return false;
}

bool _test_assert_time_window(systime_t start,
 8000582:	b410      	push	{r4}
  test_global_fail     = true;
 8000584:	4905      	ldr	r1, [pc, #20]	; (800059c <_test_assert_time_window.constprop.3+0x2c>)
  test_local_fail      = true;
 8000586:	4c06      	ldr	r4, [pc, #24]	; (80005a0 <_test_assert_time_window.constprop.3+0x30>)
  test_failure_message = msg;
 8000588:	4b06      	ldr	r3, [pc, #24]	; (80005a4 <_test_assert_time_window.constprop.3+0x34>)
 800058a:	4a07      	ldr	r2, [pc, #28]	; (80005a8 <_test_assert_time_window.constprop.3+0x38>)
  test_local_fail      = true;
 800058c:	7020      	strb	r0, [r4, #0]
  test_global_fail     = true;
 800058e:	7008      	strb	r0, [r1, #0]
  test_failure_message = msg;
 8000590:	601a      	str	r2, [r3, #0]
                              systime_t end,
                              const char *msg) {

  return _test_assert(osalTimeIsInRangeX(osalOsGetSystemTimeX(), start, end),
                      msg);
}
 8000592:	bc10      	pop	{r4}
 8000594:	4770      	bx	lr
  return false;
 8000596:	2000      	movs	r0, #0
}
 8000598:	4770      	bx	lr
 800059a:	bf00      	nop
 800059c:	20001bb8 	.word	0x20001bb8
 80005a0:	20001c58 	.word	0x20001c58
 80005a4:	20001bb4 	.word	0x20001bb4
 80005a8:	08009fa4 	.word	0x08009fa4
 80005ac:	00000000 	.word	0x00000000

080005b0 <chCoreAllocAlignedWithOffset>:
 *
 * @api
 */
void *chCoreAllocAlignedWithOffset(size_t size,
                                   unsigned align,
                                   size_t offset) {
 80005b0:	b470      	push	{r4, r5, r6}
 80005b2:	2320      	movs	r3, #32
 80005b4:	f383 8811 	msr	BASEPRI, r3
  p = (uint8_t *)MEM_ALIGN_NEXT(ch_memcore.nextmem + offset, align);
 80005b8:	4c0d      	ldr	r4, [pc, #52]	; (80005f0 <chCoreAllocAlignedWithOffset+0x40>)
 80005ba:	1e4d      	subs	r5, r1, #1
 80005bc:	6826      	ldr	r6, [r4, #0]
  size = MEM_ALIGN_NEXT(size, align);
 80005be:	1943      	adds	r3, r0, r5
  p = (uint8_t *)MEM_ALIGN_NEXT(ch_memcore.nextmem + offset, align);
 80005c0:	18b0      	adds	r0, r6, r2
  size = MEM_ALIGN_NEXT(size, align);
 80005c2:	4249      	negs	r1, r1
  p = (uint8_t *)MEM_ALIGN_NEXT(ch_memcore.nextmem + offset, align);
 80005c4:	4428      	add	r0, r5
  size = MEM_ALIGN_NEXT(size, align);
 80005c6:	400b      	ands	r3, r1
  p = (uint8_t *)MEM_ALIGN_NEXT(ch_memcore.nextmem + offset, align);
 80005c8:	4008      	ands	r0, r1
  if ((next > ch_memcore.endmem) || (next < ch_memcore.nextmem)) {
 80005ca:	6862      	ldr	r2, [r4, #4]
  next = p + size;
 80005cc:	4403      	add	r3, r0
  if ((next > ch_memcore.endmem) || (next < ch_memcore.nextmem)) {
 80005ce:	4293      	cmp	r3, r2
 80005d0:	d807      	bhi.n	80005e2 <chCoreAllocAlignedWithOffset+0x32>
 80005d2:	429e      	cmp	r6, r3
 80005d4:	d805      	bhi.n	80005e2 <chCoreAllocAlignedWithOffset+0x32>
  ch_memcore.nextmem = next;
 80005d6:	6023      	str	r3, [r4, #0]
 80005d8:	2300      	movs	r3, #0
 80005da:	f383 8811 	msr	BASEPRI, r3
  chSysLock();
  p = chCoreAllocAlignedWithOffsetI(size, align, offset);
  chSysUnlock();

  return p;
}
 80005de:	bc70      	pop	{r4, r5, r6}
 80005e0:	4770      	bx	lr
    return NULL;
 80005e2:	2000      	movs	r0, #0
 80005e4:	2300      	movs	r3, #0
 80005e6:	f383 8811 	msr	BASEPRI, r3
}
 80005ea:	bc70      	pop	{r4, r5, r6}
 80005ec:	4770      	bx	lr
 80005ee:	bf00      	nop
 80005f0:	20001460 	.word	0x20001460
	...

08000600 <notify1>:

#if STM32_SERIAL_USE_USART1 || defined(__DOXYGEN__)
static void notify1(io_queue_t *qp) {

  (void)qp;
  USART1->CR1 |= USART_CR1_TXEIE;
 8000600:	4a02      	ldr	r2, [pc, #8]	; (800060c <notify1+0xc>)
 8000602:	68d3      	ldr	r3, [r2, #12]
 8000604:	f043 0380 	orr.w	r3, r3, #128	; 0x80
 8000608:	60d3      	str	r3, [r2, #12]
}
 800060a:	4770      	bx	lr
 800060c:	40013800 	.word	0x40013800

08000610 <get_descriptor>:
                                           uint8_t dindex,
                                           uint16_t lang) {

  (void)usbp;
  (void)lang;
  switch (dtype) {
 8000610:	2902      	cmp	r1, #2
 8000612:	d006      	beq.n	8000622 <get_descriptor+0x12>
 8000614:	2903      	cmp	r1, #3
 8000616:	d006      	beq.n	8000626 <get_descriptor+0x16>
 8000618:	2901      	cmp	r1, #1
    return &vcom_configuration_descriptor;
  case USB_DESCRIPTOR_STRING:
    if (dindex < 4)
      return &vcom_strings[dindex];
  }
  return NULL;
 800061a:	4806      	ldr	r0, [pc, #24]	; (8000634 <get_descriptor+0x24>)
 800061c:	bf18      	it	ne
 800061e:	2000      	movne	r0, #0
 8000620:	4770      	bx	lr
    return &vcom_configuration_descriptor;
 8000622:	4805      	ldr	r0, [pc, #20]	; (8000638 <get_descriptor+0x28>)
 8000624:	4770      	bx	lr
    if (dindex < 4)
 8000626:	2a03      	cmp	r2, #3
      return &vcom_strings[dindex];
 8000628:	bf9a      	itte	ls
 800062a:	4804      	ldrls	r0, [pc, #16]	; (800063c <get_descriptor+0x2c>)
 800062c:	eb00 00c2 	addls.w	r0, r0, r2, lsl #3
  return NULL;
 8000630:	2000      	movhi	r0, #0
}
 8000632:	4770      	bx	lr
 8000634:	0800c5c0 	.word	0x0800c5c0
 8000638:	0800c574 	.word	0x0800c574
 800063c:	0800c648 	.word	0x0800c648

08000640 <oslib_test_003_001_setup>:
  /*lint -save -e9033 [10.8] Required cast operations.*/
  size -= (size_t)((uint8_t *)hp - (uint8_t *)buf);
  /*lint restore*/

  /* Initializing the heap header.*/
  heapp->provider = NULL;
 8000640:	2000      	movs	r0, #0
  heap_header_t *hp = (heap_header_t *)MEM_ALIGN_NEXT(buf, CH_HEAP_ALIGNMENT);
 8000642:	4b0b      	ldr	r3, [pc, #44]	; (8000670 <oslib_test_003_001_setup+0x30>)
  heapp->provider = NULL;
 8000644:	4a0b      	ldr	r2, [pc, #44]	; (8000674 <oslib_test_003_001_setup+0x34>)
  heap_header_t *hp = (heap_header_t *)MEM_ALIGN_NEXT(buf, CH_HEAP_ALIGNMENT);
 8000646:	1dd9      	adds	r1, r3, #7
 8000648:	f021 0107 	bic.w	r1, r1, #7
  size -= (size_t)((uint8_t *)hp - (uint8_t *)buf);
 800064c:	1acb      	subs	r3, r1, r3
  H_NEXT(&heapp->header) = hp;
  H_PAGES(&heapp->header) = 0;
  H_NEXT(hp) = NULL;
  H_PAGES(hp) = (size - sizeof (heap_header_t)) / CH_HEAP_ALIGNMENT;
 800064e:	f1c3 0378 	rsb	r3, r3, #120	; 0x78
 * - [3.1.10] Testing final conditions. The heap geometry must be the
 *   same than the one registered at beginning.
 * .
 */

static void oslib_test_003_001_setup(void) {
 8000652:	b410      	push	{r4}
 8000654:	08db      	lsrs	r3, r3, #3
 *
 * @notapi
 */
static inline void queue_init(threads_queue_t *tqp) {

  tqp->next = (thread_t *)tqp;
 8000656:	f102 040c 	add.w	r4, r2, #12
 800065a:	604b      	str	r3, [r1, #4]
  H_NEXT(&heapp->header) = hp;
 800065c:	6051      	str	r1, [r2, #4]
  H_NEXT(hp) = NULL;
 800065e:	6008      	str	r0, [r1, #0]
  tqp->prev = (thread_t *)tqp;
 8000660:	e9c2 4403 	strd	r4, r4, [r2, #12]
  heapp->provider = NULL;
 8000664:	6010      	str	r0, [r2, #0]
  H_PAGES(&heapp->header) = 0;
 8000666:	6090      	str	r0, [r2, #8]
  mp->owner = NULL;
 8000668:	6150      	str	r0, [r2, #20]
  chHeapObjectInit(&test_heap, test_heap_buffer, sizeof(test_heap_buffer));
}
 800066a:	bc10      	pop	{r4}
 800066c:	4770      	bx	lr
 800066e:	bf00      	nop
 8000670:	20001bd8 	.word	0x20001bd8
 8000674:	20001bbc 	.word	0x20001bbc
	...

08000680 <oslib_test_002_003_setup>:
void chPoolObjectInitAligned(memory_pool_t *mp, size_t size,
                             unsigned align, memgetfunc_t provider) {

  chDbgCheck((mp != NULL) && (size >= sizeof(void *)));

  mp->next = NULL;
 8000680:	2200      	movs	r2, #0
  mp->object_size = size;
 8000682:	2104      	movs	r1, #4
  mp->next = NULL;
 8000684:	4b04      	ldr	r3, [pc, #16]	; (8000698 <oslib_test_002_003_setup+0x18>)
 8000686:	60da      	str	r2, [r3, #12]
  mp->align = align;
  mp->provider = provider;
 8000688:	619a      	str	r2, [r3, #24]
 800068a:	e9c3 3300 	strd	r3, r3, [r3]
void chSemObjectInit(semaphore_t *sp, cnt_t n) {

  chDbgCheck((sp != NULL) && (n >= (cnt_t)0));

  queue_init(&sp->queue);
  sp->cnt = n;
 800068e:	609a      	str	r2, [r3, #8]
  mp->align = align;
 8000690:	e9c3 1104 	strd	r1, r1, [r3, #16]
 * .
 */

static void oslib_test_002_003_setup(void) {
  chGuardedPoolObjectInit(&gmp1, sizeof (uint32_t));
}
 8000694:	4770      	bx	lr
 8000696:	bf00      	nop
 8000698:	2000081c 	.word	0x2000081c
 800069c:	00000000 	.word	0x00000000

080006a0 <oslib_test_002_002_setup>:
 80006a0:	f7ff bfee 	b.w	8000680 <oslib_test_002_003_setup>
	...

080006b0 <null_provider>:
}
 80006b0:	2000      	movs	r0, #0
 80006b2:	4770      	bx	lr
	...

080006c0 <oslib_test_002_001_setup>:
  mp->next = NULL;
 80006c0:	2100      	movs	r1, #0
  mp->object_size = size;
 80006c2:	2204      	movs	r2, #4
  mp->next = NULL;
 80006c4:	4b02      	ldr	r3, [pc, #8]	; (80006d0 <oslib_test_002_001_setup+0x10>)
 80006c6:	6019      	str	r1, [r3, #0]
  mp->provider = provider;
 80006c8:	60d9      	str	r1, [r3, #12]
  mp->align = align;
 80006ca:	e9c3 2201 	strd	r2, r2, [r3, #4]
}
 80006ce:	4770      	bx	lr
 80006d0:	20000888 	.word	0x20000888
	...

080006e0 <oslib_test_001_003_setup>:

  mbp->buffer = buf;
  mbp->rdptr  = buf;
  mbp->wrptr  = buf;
  mbp->top    = &buf[n];
  mbp->cnt    = (size_t)0;
 80006e0:	2100      	movs	r1, #0
 *   active state.
 * - [1.3.4] Testing chMBFetchTimeout() and chMBFetchI() timeout.
 * .
 */

static void oslib_test_001_003_setup(void) {
 80006e2:	b430      	push	{r4, r5}
  mbp->buffer = buf;
 80006e4:	4b09      	ldr	r3, [pc, #36]	; (800070c <oslib_test_001_003_setup+0x2c>)
 80006e6:	4a0a      	ldr	r2, [pc, #40]	; (8000710 <oslib_test_001_003_setup+0x30>)
  tqp->next = (thread_t *)tqp;
 80006e8:	f103 0418 	add.w	r4, r3, #24
  mbp->top    = &buf[n];
 80006ec:	f102 0510 	add.w	r5, r2, #16
 80006f0:	f103 0020 	add.w	r0, r3, #32
 80006f4:	605d      	str	r5, [r3, #4]
  tqp->prev = (thread_t *)tqp;
 80006f6:	e9c3 4406 	strd	r4, r4, [r3, #24]
  chMBObjectInit(&mb1, mb_buffer, MB_SIZE);
}
 80006fa:	bc30      	pop	{r4, r5}
  mbp->buffer = buf;
 80006fc:	601a      	str	r2, [r3, #0]
  mbp->wrptr  = buf;
 80006fe:	e9c3 2202 	strd	r2, r2, [r3, #8]
 8000702:	e9c3 0008 	strd	r0, r0, [r3, #32]
  mbp->cnt    = (size_t)0;
 8000706:	6119      	str	r1, [r3, #16]
  mbp->reset  = false;
 8000708:	7519      	strb	r1, [r3, #20]
 800070a:	4770      	bx	lr
 800070c:	20000860 	.word	0x20000860
 8000710:	200014e8 	.word	0x200014e8
	...

08000720 <oslib_test_001_002_setup>:
 8000720:	f7ff bfde 	b.w	80006e0 <oslib_test_001_003_setup>
	...

08000730 <oslib_test_001_001_setup>:
 8000730:	f7ff bfd6 	b.w	80006e0 <oslib_test_001_003_setup>
	...

08000740 <rt_test_010_011_setup>:
 8000740:	2200      	movs	r2, #0
  tqp->next = (thread_t *)tqp;
 8000742:	4b02      	ldr	r3, [pc, #8]	; (800074c <rt_test_010_011_setup+0xc>)
 8000744:	609a      	str	r2, [r3, #8]
  tqp->prev = (thread_t *)tqp;
 8000746:	e9c3 3300 	strd	r3, r3, [r3]
 * .
 */

static void rt_test_010_011_setup(void) {
  chMtxObjectInit(&mtx1);
}
 800074a:	4770      	bx	lr
 800074c:	20001508 	.word	0x20001508

08000750 <rt_test_010_010_setup>:
 8000750:	2201      	movs	r2, #1
  tqp->next = (thread_t *)tqp;
 8000752:	4b02      	ldr	r3, [pc, #8]	; (800075c <rt_test_010_010_setup+0xc>)
 8000754:	609a      	str	r2, [r3, #8]
  tqp->prev = (thread_t *)tqp;
 8000756:	e9c3 3300 	strd	r3, r3, [r3]
}
 800075a:	4770      	bx	lr
 800075c:	20001534 	.word	0x20001534

08000760 <tmo>:
static void tmo(void *param) {(void)param;}
 8000760:	4770      	bx	lr
 8000762:	bf00      	nop
	...

08000770 <rt_test_010_007_setup>:
 8000770:	2200      	movs	r2, #0
  tqp->next = (thread_t *)tqp;
 8000772:	4b02      	ldr	r3, [pc, #8]	; (800077c <rt_test_010_007_setup+0xc>)
 8000774:	609a      	str	r2, [r3, #8]
  tqp->prev = (thread_t *)tqp;
 8000776:	e9c3 3300 	strd	r3, r3, [r3]
}
 800077a:	4770      	bx	lr
 800077c:	20001534 	.word	0x20001534

08000780 <rt_test_009_002_setup>:
  mp->next = NULL;
 8000780:	2200      	movs	r2, #0
  mp->object_size = size;
 8000782:	f44f 70a4 	mov.w	r0, #328	; 0x148
  mp->align = align;
 8000786:	2104      	movs	r1, #4
  mp->next = NULL;
 8000788:	4b02      	ldr	r3, [pc, #8]	; (8000794 <rt_test_009_002_setup+0x14>)
 800078a:	601a      	str	r2, [r3, #0]
  mp->provider = provider;
 800078c:	60da      	str	r2, [r3, #12]
  mp->align = align;
 800078e:	e9c3 0101 	strd	r0, r1, [r3, #4]
 * .
 */

static void rt_test_009_002_setup(void) {
  chPoolObjectInit(&mp1, THD_WORKING_AREA_SIZE(THREADS_STACK_SIZE), NULL);
}
 8000792:	4770      	bx	lr
 8000794:	200014f8 	.word	0x200014f8
	...

080007a0 <rt_test_009_001_setup>:
  heapp->provider = NULL;
 80007a0:	2000      	movs	r0, #0
  heap_header_t *hp = (heap_header_t *)MEM_ALIGN_NEXT(buf, CH_HEAP_ALIGNMENT);
 80007a2:	4b0b      	ldr	r3, [pc, #44]	; (80007d0 <rt_test_009_001_setup+0x30>)
  heapp->provider = NULL;
 80007a4:	4a0b      	ldr	r2, [pc, #44]	; (80007d4 <rt_test_009_001_setup+0x34>)
  heap_header_t *hp = (heap_header_t *)MEM_ALIGN_NEXT(buf, CH_HEAP_ALIGNMENT);
 80007a6:	1dd9      	adds	r1, r3, #7
 80007a8:	f021 0107 	bic.w	r1, r1, #7
  size -= (size_t)((uint8_t *)hp - (uint8_t *)buf);
 80007ac:	1acb      	subs	r3, r1, r3
  H_PAGES(hp) = (size - sizeof (heap_header_t)) / CH_HEAP_ALIGNMENT;
 80007ae:	f5c3 63cc 	rsb	r3, r3, #1632	; 0x660
static void rt_test_009_001_setup(void) {
 80007b2:	b410      	push	{r4}
 80007b4:	08db      	lsrs	r3, r3, #3
  tqp->next = (thread_t *)tqp;
 80007b6:	f102 040c 	add.w	r4, r2, #12
 80007ba:	604b      	str	r3, [r1, #4]
  H_NEXT(&heapp->header) = hp;
 80007bc:	6051      	str	r1, [r2, #4]
  H_NEXT(hp) = NULL;
 80007be:	6008      	str	r0, [r1, #0]
  tqp->prev = (thread_t *)tqp;
 80007c0:	e9c2 4403 	strd	r4, r4, [r2, #12]
  heapp->provider = NULL;
 80007c4:	6010      	str	r0, [r2, #0]
  H_PAGES(&heapp->header) = 0;
 80007c6:	6090      	str	r0, [r2, #8]
 80007c8:	6150      	str	r0, [r2, #20]
}
 80007ca:	bc10      	pop	{r4}
 80007cc:	4770      	bx	lr
 80007ce:	bf00      	nop
 80007d0:	20001548 	.word	0x20001548
 80007d4:	200014cc 	.word	0x200014cc
	...

080007e0 <rt_test_008_007_setup>:
 *   has been emptied.
 * - [8.7.4] Unregistering from the Event Sources.
 * .
 */

static void rt_test_008_007_setup(void) {
 80007e0:	b508      	push	{r3, lr}
  chEvtGetAndClearEvents(ALL_EVENTS);
 80007e2:	f7ff feb5 	bl	8000550 <chEvtGetAndClearEvents.constprop.85>
 *
 * @init
 */
static inline void chEvtObjectInit(event_source_t *esp) {

  esp->next = (event_listener_t *)esp;
 80007e6:	4a02      	ldr	r2, [pc, #8]	; (80007f0 <rt_test_008_007_setup+0x10>)
 80007e8:	4b02      	ldr	r3, [pc, #8]	; (80007f4 <rt_test_008_007_setup+0x14>)
 80007ea:	6012      	str	r2, [r2, #0]
 80007ec:	601b      	str	r3, [r3, #0]
  chEvtObjectInit(&es1);
  chEvtObjectInit(&es2);
}
 80007ee:	bd08      	pop	{r3, pc}
 80007f0:	20000814 	.word	0x20000814
 80007f4:	20000818 	.word	0x20000818
	...

08000800 <rt_test_008_006_setup>:
  chEvtGetAndClearEvents(ALL_EVENTS);
 8000800:	f7ff bea6 	b.w	8000550 <chEvtGetAndClearEvents.constprop.85>
	...

08000810 <rt_test_008_005_setup>:
 8000810:	f7ff bff6 	b.w	8000800 <rt_test_008_006_setup>
	...

08000820 <rt_test_008_004_setup>:
 8000820:	f7ff bfee 	b.w	8000800 <rt_test_008_006_setup>
	...

08000830 <rt_test_008_003_setup>:
 8000830:	f7ff bfe6 	b.w	8000800 <rt_test_008_006_setup>
	...

08000840 <rt_test_008_002_setup>:
 8000840:	f7ff bfde 	b.w	8000800 <rt_test_008_006_setup>
	...

08000850 <rt_test_006_009_setup>:
 8000850:	2000      	movs	r0, #0
  tqp->next = (thread_t *)tqp;
 8000852:	4a06      	ldr	r2, [pc, #24]	; (800086c <rt_test_006_009_setup+0x1c>)
 8000854:	4b06      	ldr	r3, [pc, #24]	; (8000870 <rt_test_006_009_setup+0x20>)
 8000856:	4907      	ldr	r1, [pc, #28]	; (8000874 <rt_test_006_009_setup+0x24>)
 8000858:	6090      	str	r0, [r2, #8]
  tqp->prev = (thread_t *)tqp;
 800085a:	e9c2 2200 	strd	r2, r2, [r2]
 800085e:	6098      	str	r0, [r3, #8]
 8000860:	e9c3 3300 	strd	r3, r3, [r3]
 8000864:	e9c1 1100 	strd	r1, r1, [r1]

static void rt_test_006_009_setup(void) {
  chCondObjectInit(&c1);
  chMtxObjectInit(&m1);
  chMtxObjectInit(&m2);
}
 8000868:	4770      	bx	lr
 800086a:	bf00      	nop
 800086c:	20000840 	.word	0x20000840
 8000870:	20000850 	.word	0x20000850
 8000874:	2000080c 	.word	0x2000080c
	...

08000880 <rt_test_006_008_setup>:
 8000880:	2100      	movs	r1, #0
  tqp->next = (thread_t *)tqp;
 8000882:	4b04      	ldr	r3, [pc, #16]	; (8000894 <rt_test_006_008_setup+0x14>)
 8000884:	4a04      	ldr	r2, [pc, #16]	; (8000898 <rt_test_006_008_setup+0x18>)
 8000886:	6099      	str	r1, [r3, #8]
  tqp->prev = (thread_t *)tqp;
 8000888:	e9c3 3300 	strd	r3, r3, [r3]
 800088c:	e9c2 2200 	strd	r2, r2, [r2]
}
 8000890:	4770      	bx	lr
 8000892:	bf00      	nop
 8000894:	20000840 	.word	0x20000840
 8000898:	2000080c 	.word	0x2000080c
 800089c:	00000000 	.word	0x00000000

080008a0 <rt_test_006_007_setup>:
 80008a0:	f7ff bfee 	b.w	8000880 <rt_test_006_008_setup>
	...

080008b0 <rt_test_006_005_setup>:
 80008b0:	2200      	movs	r2, #0
  tqp->next = (thread_t *)tqp;
 80008b2:	4b02      	ldr	r3, [pc, #8]	; (80008bc <rt_test_006_005_setup+0xc>)
 80008b4:	609a      	str	r2, [r3, #8]
  tqp->prev = (thread_t *)tqp;
 80008b6:	e9c3 3300 	strd	r3, r3, [r3]
}
 80008ba:	4770      	bx	lr
 80008bc:	20000840 	.word	0x20000840

080008c0 <rt_test_006_004_setup>:
 80008c0:	2100      	movs	r1, #0
  tqp->next = (thread_t *)tqp;
 80008c2:	4a04      	ldr	r2, [pc, #16]	; (80008d4 <rt_test_006_004_setup+0x14>)
 80008c4:	4b04      	ldr	r3, [pc, #16]	; (80008d8 <rt_test_006_004_setup+0x18>)
 80008c6:	6091      	str	r1, [r2, #8]
  tqp->prev = (thread_t *)tqp;
 80008c8:	e9c2 2200 	strd	r2, r2, [r2]
 80008cc:	6099      	str	r1, [r3, #8]
 80008ce:	e9c3 3300 	strd	r3, r3, [r3]
}
 80008d2:	4770      	bx	lr
 80008d4:	20000840 	.word	0x20000840
 80008d8:	20000850 	.word	0x20000850
 80008dc:	00000000 	.word	0x00000000

080008e0 <rt_test_006_001_setup>:
 80008e0:	f7ff bfe6 	b.w	80008b0 <rt_test_006_005_setup>
	...

080008f0 <rt_test_005_005_setup>:
 80008f0:	2200      	movs	r2, #0
  tqp->next = (thread_t *)tqp;
 80008f2:	4b02      	ldr	r3, [pc, #8]	; (80008fc <rt_test_005_005_setup+0xc>)
 80008f4:	609a      	str	r2, [r3, #8]
  tqp->prev = (thread_t *)tqp;
 80008f6:	e9c3 3300 	strd	r3, r3, [r3]
 * .
 */

static void rt_test_005_005_setup(void) {
  chSemObjectInit(&sem1, 0);
}
 80008fa:	4770      	bx	lr
 80008fc:	20001528 	.word	0x20001528

08000900 <rt_test_005_004_setup>:
 8000900:	f7ff bff6 	b.w	80008f0 <rt_test_005_005_setup>
	...

08000910 <rt_test_005_003_setup>:
 8000910:	f7ff bfee 	b.w	80008f0 <rt_test_005_005_setup>
	...

08000920 <rt_test_005_002_setup>:
 8000920:	f7ff bfe6 	b.w	80008f0 <rt_test_005_005_setup>
	...

08000930 <rt_test_005_001_setup>:
 8000930:	2201      	movs	r2, #1
  tqp->next = (thread_t *)tqp;
 8000932:	4b02      	ldr	r3, [pc, #8]	; (800093c <rt_test_005_001_setup+0xc>)
 8000934:	609a      	str	r2, [r3, #8]
  tqp->prev = (thread_t *)tqp;
 8000936:	e9c3 3300 	strd	r3, r3, [r3]
}
 800093a:	4770      	bx	lr
 800093c:	20001528 	.word	0x20001528

08000940 <rt_test_004_001_setup>:
 *   the state of the reference are tested.
 * .
 */

static void rt_test_004_001_setup(void) {
  tr1 = NULL;
 8000940:	2200      	movs	r2, #0
 8000942:	4b01      	ldr	r3, [pc, #4]	; (8000948 <rt_test_004_001_setup+0x8>)
 8000944:	601a      	str	r2, [r3, #0]
}
 8000946:	4770      	bx	lr
 8000948:	20001c88 	.word	0x20001c88
 800094c:	00000000 	.word	0x00000000

08000950 <_test_assert>:
  if (!condition)
 8000950:	b948      	cbnz	r0, 8000966 <_test_assert+0x16>
  test_local_fail      = true;
 8000952:	2001      	movs	r0, #1
bool _test_assert(bool condition, const char *msg) {
 8000954:	b410      	push	{r4}
  test_global_fail     = true;
 8000956:	4a05      	ldr	r2, [pc, #20]	; (800096c <_test_assert+0x1c>)
  test_local_fail      = true;
 8000958:	4c05      	ldr	r4, [pc, #20]	; (8000970 <_test_assert+0x20>)
  test_failure_message = msg;
 800095a:	4b06      	ldr	r3, [pc, #24]	; (8000974 <_test_assert+0x24>)
  test_local_fail      = true;
 800095c:	7020      	strb	r0, [r4, #0]
  test_global_fail     = true;
 800095e:	7010      	strb	r0, [r2, #0]
  test_failure_message = msg;
 8000960:	6019      	str	r1, [r3, #0]
}
 8000962:	bc10      	pop	{r4}
 8000964:	4770      	bx	lr
  return false;
 8000966:	2000      	movs	r0, #0
}
 8000968:	4770      	bx	lr
 800096a:	bf00      	nop
 800096c:	20001bb8 	.word	0x20001bb8
 8000970:	20001c58 	.word	0x20001c58
 8000974:	20001bb4 	.word	0x20001bb4
	...

08000980 <rt_test_002_004_execute>:
 8000980:	f04f 4380 	mov.w	r3, #1073741824	; 0x40000000

static void rt_test_002_004_execute(void) {

  /* [2.4.1] A System Tick Counter increment is expected, the test
     simply hangs if it does not happen.*/
  test_set_step(1);
 8000984:	2001      	movs	r0, #1
 8000986:	4619      	mov	r1, r3
 8000988:	4a04      	ldr	r2, [pc, #16]	; (800099c <rt_test_002_004_execute+0x1c>)
 800098a:	6010      	str	r0, [r2, #0]
 800098c:	6a5a      	ldr	r2, [r3, #36]	; 0x24
 800098e:	b292      	uxth	r2, r2
 8000990:	6a4b      	ldr	r3, [r1, #36]	; 0x24
  {
    systime_t time = chVTGetSystemTimeX();
    while (time == chVTGetSystemTimeX()) {
 8000992:	b29b      	uxth	r3, r3
 8000994:	429a      	cmp	r2, r3
 8000996:	d0fb      	beq.n	8000990 <rt_test_002_004_execute+0x10>
#if defined(SIMULATOR)
      _sim_check_for_interrupts();
#endif
    }
  }
}
 8000998:	4770      	bx	lr
 800099a:	bf00      	nop
 800099c:	20001c5c 	.word	0x20001c5c

080009a0 <rt_test_002_003_execute>:
  test_set_step(1);
 80009a0:	2101      	movs	r1, #1
 80009a2:	4a07      	ldr	r2, [pc, #28]	; (80009c0 <rt_test_002_003_execute+0x20>)
 80009a4:	2320      	movs	r3, #32
 80009a6:	6011      	str	r1, [r2, #0]
 80009a8:	f383 8811 	msr	BASEPRI, r3
  __ASM volatile ("cpsie i" : : : "memory");
 80009ac:	b662      	cpsie	i
  __ASM volatile ("cpsid i" : : : "memory");
 80009ae:	b672      	cpsid	i
  __ASM volatile ("MSR basepri, %0" : : "r" (basePri) : "memory");
 80009b0:	f383 8811 	msr	BASEPRI, r3
  __ASM volatile ("cpsie i" : : : "memory");
 80009b4:	b662      	cpsie	i
  __ASM volatile ("MSR basepri, %0" : : "r" (basePri) : "memory");
 80009b6:	2300      	movs	r3, #0
 80009b8:	f383 8811 	msr	BASEPRI, r3
  __ASM volatile ("cpsie i" : : : "memory");
 80009bc:	b662      	cpsie	i
}
 80009be:	4770      	bx	lr
 80009c0:	20001c5c 	.word	0x20001c5c
	...

080009d0 <test_terminate_threads>:
                         test_buffer + (WA_SIZE * 4)};

/*
 * Sets a termination request in all the test-spawned threads.
 */
void test_terminate_threads(void) {
 80009d0:	b430      	push	{r4, r5}
  __ASM volatile ("MSR basepri, %0" : : "r" (basePri) : "memory");
 80009d2:	2520      	movs	r5, #32
 80009d4:	2400      	movs	r4, #0
 80009d6:	4b0a      	ldr	r3, [pc, #40]	; (8000a00 <test_terminate_threads+0x30>)
 80009d8:	f103 0014 	add.w	r0, r3, #20
  unsigned i;

  for (i = 0; i < MAX_THREADS; i++)
    if (threads[i])
 80009dc:	f853 2b04 	ldr.w	r2, [r3], #4
 80009e0:	b14a      	cbz	r2, 80009f6 <test_terminate_threads+0x26>
 80009e2:	f385 8811 	msr	BASEPRI, r5
 * @api
 */
void chThdTerminate(thread_t *tp) {

  chSysLock();
  tp->flags |= CH_FLAG_TERMINATE;
 80009e6:	f892 1021 	ldrb.w	r1, [r2, #33]	; 0x21
 80009ea:	f041 0104 	orr.w	r1, r1, #4
 80009ee:	f882 1021 	strb.w	r1, [r2, #33]	; 0x21
 80009f2:	f384 8811 	msr	BASEPRI, r4
  for (i = 0; i < MAX_THREADS; i++)
 80009f6:	4283      	cmp	r3, r0
 80009f8:	d1f0      	bne.n	80009dc <test_terminate_threads+0xc>
      chThdTerminate(threads[i]);
}
 80009fa:	bc30      	pop	{r4, r5}
 80009fc:	4770      	bx	lr
 80009fe:	bf00      	nop
 8000a00:	20001c74 	.word	0x20001c74
	...

08000a10 <test_printn.part.0>:

  if (!n)
    streamPut(test_chp, '0');
  else {
    p = buf;
    while (n)
 8000a10:	b320      	cbz	r0, 8000a5c <test_printn.part.0+0x4c>
void test_printn(uint32_t n) {
 8000a12:	b570      	push	{r4, r5, r6, lr}
 8000a14:	b084      	sub	sp, #16
    p = buf;
 8000a16:	466d      	mov	r5, sp
      *p++ = (n % 10) + '0', n /= 10;
 8000a18:	4e11      	ldr	r6, [pc, #68]	; (8000a60 <test_printn.part.0+0x50>)
    p = buf;
 8000a1a:	462c      	mov	r4, r5
 8000a1c:	e000      	b.n	8000a20 <test_printn.part.0+0x10>
    while (n)
 8000a1e:	4614      	mov	r4, r2
      *p++ = (n % 10) + '0', n /= 10;
 8000a20:	4622      	mov	r2, r4
 8000a22:	fba6 1300 	umull	r1, r3, r6, r0
 8000a26:	08db      	lsrs	r3, r3, #3
 8000a28:	eb03 0183 	add.w	r1, r3, r3, lsl #2
 8000a2c:	eba0 0041 	sub.w	r0, r0, r1, lsl #1
 8000a30:	f100 0130 	add.w	r1, r0, #48	; 0x30
 8000a34:	b2c9      	uxtb	r1, r1
 8000a36:	f802 1b01 	strb.w	r1, [r2], #1
    while (n)
 8000a3a:	4618      	mov	r0, r3
 8000a3c:	2b00      	cmp	r3, #0
 8000a3e:	d1ee      	bne.n	8000a1e <test_printn.part.0+0xe>
    while (p > buf)
 8000a40:	42aa      	cmp	r2, r5
 8000a42:	d909      	bls.n	8000a58 <test_printn.part.0+0x48>
 8000a44:	4e07      	ldr	r6, [pc, #28]	; (8000a64 <test_printn.part.0+0x54>)
 8000a46:	e001      	b.n	8000a4c <test_printn.part.0+0x3c>
 8000a48:	f814 1d01 	ldrb.w	r1, [r4, #-1]!
      streamPut(test_chp, *--p);
 8000a4c:	6830      	ldr	r0, [r6, #0]
 8000a4e:	6803      	ldr	r3, [r0, #0]
 8000a50:	689b      	ldr	r3, [r3, #8]
 8000a52:	4798      	blx	r3
    while (p > buf)
 8000a54:	42a5      	cmp	r5, r4
 8000a56:	d1f7      	bne.n	8000a48 <test_printn.part.0+0x38>
  }
}
 8000a58:	b004      	add	sp, #16
 8000a5a:	bd70      	pop	{r4, r5, r6, pc}
 8000a5c:	4770      	bx	lr
 8000a5e:	bf00      	nop
 8000a60:	cccccccd 	.word	0xcccccccd
 8000a64:	20001bb0 	.word	0x20001bb0
	...

08000a70 <test_printn>:
  if (!n)
 8000a70:	b928      	cbnz	r0, 8000a7e <test_printn+0xe>
    streamPut(test_chp, '0');
 8000a72:	4b04      	ldr	r3, [pc, #16]	; (8000a84 <test_printn+0x14>)
 8000a74:	2130      	movs	r1, #48	; 0x30
 8000a76:	6818      	ldr	r0, [r3, #0]
 8000a78:	6803      	ldr	r3, [r0, #0]
 8000a7a:	689b      	ldr	r3, [r3, #8]
 8000a7c:	4718      	bx	r3
 8000a7e:	f7ff bfc7 	b.w	8000a10 <test_printn.part.0>
 8000a82:	bf00      	nop
 8000a84:	20001bb0 	.word	0x20001bb0
	...

08000a90 <test_emit_token>:
 8000a90:	2320      	movs	r3, #32
 8000a92:	f383 8811 	msr	BASEPRI, r3
 * @api
 */
void test_emit_token(char token) {

  osalSysLock();
  if (test_tokp < &test_tokens_buffer[TEST_MAX_TOKENS])
 8000a96:	4a06      	ldr	r2, [pc, #24]	; (8000ab0 <test_emit_token+0x20>)
 8000a98:	4906      	ldr	r1, [pc, #24]	; (8000ab4 <test_emit_token+0x24>)
 8000a9a:	6813      	ldr	r3, [r2, #0]
 8000a9c:	428b      	cmp	r3, r1
 8000a9e:	d202      	bcs.n	8000aa6 <test_emit_token+0x16>
    *test_tokp++ = token;
 8000aa0:	1c59      	adds	r1, r3, #1
 8000aa2:	7018      	strb	r0, [r3, #0]
 8000aa4:	6011      	str	r1, [r2, #0]
 8000aa6:	2300      	movs	r3, #0
 8000aa8:	f383 8811 	msr	BASEPRI, r3
  osalSysUnlock();
}
 8000aac:	4770      	bx	lr
 8000aae:	bf00      	nop
 8000ab0:	20001c70 	.word	0x20001c70
 8000ab4:	20001c70 	.word	0x20001c70
	...

08000ac0 <h3>:
static void h3(eventid_t id) {(void)id;test_emit_token('C');}
 8000ac0:	2043      	movs	r0, #67	; 0x43
 8000ac2:	f7ff bfe5 	b.w	8000a90 <test_emit_token>
 8000ac6:	bf00      	nop
	...

08000ad0 <h2>:
static void h2(eventid_t id) {(void)id;test_emit_token('B');}
 8000ad0:	2042      	movs	r0, #66	; 0x42
 8000ad2:	f7ff bfdd 	b.w	8000a90 <test_emit_token>
 8000ad6:	bf00      	nop
	...

08000ae0 <h1>:
static void h1(eventid_t id) {(void)id;test_emit_token('A');}
 8000ae0:	2041      	movs	r0, #65	; 0x41
 8000ae2:	f7ff bfd5 	b.w	8000a90 <test_emit_token>
 8000ae6:	bf00      	nop
	...

08000af0 <thread>:
 * Shared code.
 ****************************************************************************/

static THD_FUNCTION(thread, p) {

  test_emit_token(*(char *)p);
 8000af0:	7800      	ldrb	r0, [r0, #0]
 8000af2:	f7ff bfcd 	b.w	8000a90 <test_emit_token>
 8000af6:	bf00      	nop
	...

08000b00 <dyn_thread1>:
 8000b00:	f7ff bff6 	b.w	8000af0 <thread>
	...

08000b10 <test_println>:
void test_println(const char *msgp) {
 8000b10:	b570      	push	{r4, r5, r6, lr}
  while (*msgp)
 8000b12:	7801      	ldrb	r1, [r0, #0]
 8000b14:	b189      	cbz	r1, 8000b3a <test_println+0x2a>
 8000b16:	4604      	mov	r4, r0
 8000b18:	4d09      	ldr	r5, [pc, #36]	; (8000b40 <test_println+0x30>)
    streamPut(test_chp, *msgp++);
 8000b1a:	6828      	ldr	r0, [r5, #0]
 8000b1c:	6803      	ldr	r3, [r0, #0]
 8000b1e:	689b      	ldr	r3, [r3, #8]
 8000b20:	4798      	blx	r3
  while (*msgp)
 8000b22:	f814 1f01 	ldrb.w	r1, [r4, #1]!
 8000b26:	2900      	cmp	r1, #0
 8000b28:	d1f7      	bne.n	8000b1a <test_println+0xa>
  streamWrite(test_chp, (const uint8_t *)"\r\n", 2);
 8000b2a:	6828      	ldr	r0, [r5, #0]
 8000b2c:	2202      	movs	r2, #2
}
 8000b2e:	e8bd 4070 	ldmia.w	sp!, {r4, r5, r6, lr}
  streamWrite(test_chp, (const uint8_t *)"\r\n", 2);
 8000b32:	6803      	ldr	r3, [r0, #0]
 8000b34:	4903      	ldr	r1, [pc, #12]	; (8000b44 <test_println+0x34>)
 8000b36:	681b      	ldr	r3, [r3, #0]
 8000b38:	4718      	bx	r3
 8000b3a:	4d01      	ldr	r5, [pc, #4]	; (8000b40 <test_println+0x30>)
 8000b3c:	e7f5      	b.n	8000b2a <test_println+0x1a>
 8000b3e:	bf00      	nop
 8000b40:	20001bb0 	.word	0x20001bb0
 8000b44:	0800ba48 	.word	0x0800ba48
	...

08000b50 <test_print>:
  while (*msgp)
 8000b50:	7801      	ldrb	r1, [r0, #0]
 8000b52:	b159      	cbz	r1, 8000b6c <test_print+0x1c>
void test_print(const char *msgp) {
 8000b54:	b538      	push	{r3, r4, r5, lr}
 8000b56:	4604      	mov	r4, r0
 8000b58:	4d05      	ldr	r5, [pc, #20]	; (8000b70 <test_print+0x20>)
    streamPut(test_chp, *msgp++);
 8000b5a:	6828      	ldr	r0, [r5, #0]
 8000b5c:	6803      	ldr	r3, [r0, #0]
 8000b5e:	689b      	ldr	r3, [r3, #8]
 8000b60:	4798      	blx	r3
  while (*msgp)
 8000b62:	f814 1f01 	ldrb.w	r1, [r4, #1]!
 8000b66:	2900      	cmp	r1, #0
 8000b68:	d1f7      	bne.n	8000b5a <test_print+0xa>
}
 8000b6a:	bd38      	pop	{r3, r4, r5, pc}
 8000b6c:	4770      	bx	lr
 8000b6e:	bf00      	nop
 8000b70:	20001bb0 	.word	0x20001bb0
	...

08000b80 <_test_assert_sequence>:
bool _test_assert_sequence(char *expected, const char *msg) {
 8000b80:	b4f0      	push	{r4, r5, r6, r7}
  while (cp < test_tokp) {
 8000b82:	4e0d      	ldr	r6, [pc, #52]	; (8000bb8 <_test_assert_sequence+0x38>)
  char *cp = test_tokens_buffer;
 8000b84:	4f0d      	ldr	r7, [pc, #52]	; (8000bbc <_test_assert_sequence+0x3c>)
 8000b86:	1e42      	subs	r2, r0, #1
  while (cp < test_tokp) {
 8000b88:	6835      	ldr	r5, [r6, #0]
  char *cp = test_tokens_buffer;
 8000b8a:	463b      	mov	r3, r7
 8000b8c:	e003      	b.n	8000b96 <_test_assert_sequence+0x16>
    if (*cp++ != *expected++)
 8000b8e:	f813 4b01 	ldrb.w	r4, [r3], #1
 8000b92:	4284      	cmp	r4, r0
 8000b94:	d107      	bne.n	8000ba6 <_test_assert_sequence+0x26>
  while (cp < test_tokp) {
 8000b96:	429d      	cmp	r5, r3
 8000b98:	f812 0f01 	ldrb.w	r0, [r2, #1]!
 8000b9c:	d8f7      	bhi.n	8000b8e <_test_assert_sequence+0xe>
  if (*expected)
 8000b9e:	b910      	cbnz	r0, 8000ba6 <_test_assert_sequence+0x26>
  test_tokp = test_tokens_buffer;
 8000ba0:	6037      	str	r7, [r6, #0]
}
 8000ba2:	bcf0      	pop	{r4, r5, r6, r7}
 8000ba4:	4770      	bx	lr
  test_local_fail      = true;
 8000ba6:	2001      	movs	r0, #1
 8000ba8:	4c05      	ldr	r4, [pc, #20]	; (8000bc0 <_test_assert_sequence+0x40>)
  test_global_fail     = true;
 8000baa:	4a06      	ldr	r2, [pc, #24]	; (8000bc4 <_test_assert_sequence+0x44>)
  test_failure_message = msg;
 8000bac:	4b06      	ldr	r3, [pc, #24]	; (8000bc8 <_test_assert_sequence+0x48>)
  test_local_fail      = true;
 8000bae:	7020      	strb	r0, [r4, #0]
  test_global_fail     = true;
 8000bb0:	7010      	strb	r0, [r2, #0]
  test_failure_message = msg;
 8000bb2:	6019      	str	r1, [r3, #0]
}
 8000bb4:	bcf0      	pop	{r4, r5, r6, r7}
 8000bb6:	4770      	bx	lr
 8000bb8:	20001c70 	.word	0x20001c70
 8000bbc:	20001c60 	.word	0x20001c60
 8000bc0:	20001c58 	.word	0x20001c58
 8000bc4:	20001bb8 	.word	0x20001bb8
 8000bc8:	20001bb4 	.word	0x20001bb4
 8000bcc:	00000000 	.word	0x00000000

08000bd0 <rt_test_008_002_execute>:
static void rt_test_008_002_execute(void) {
 8000bd0:	b5f8      	push	{r3, r4, r5, r6, r7, lr}
  test_set_step(1);
 8000bd2:	2301      	movs	r3, #1
 8000bd4:	2507      	movs	r5, #7

  eid = (eventid_t)0;
  while (events != (eventmask_t)0) {
    if ((events & EVENT_MASK(eid)) != (eventmask_t)0) {
      chDbgAssert(handlers[eid] != NULL, "null handler");
      events &= ~EVENT_MASK(eid);
 8000bd6:	461e      	mov	r6, r3
  eid = (eventid_t)0;
 8000bd8:	2400      	movs	r4, #0
 8000bda:	4a0d      	ldr	r2, [pc, #52]	; (8000c10 <rt_test_008_002_execute+0x40>)
 8000bdc:	4f0d      	ldr	r7, [pc, #52]	; (8000c14 <rt_test_008_002_execute+0x44>)
 8000bde:	6013      	str	r3, [r2, #0]
    if ((events & EVENT_MASK(eid)) != (eventmask_t)0) {
 8000be0:	fa25 f304 	lsr.w	r3, r5, r4
 8000be4:	07db      	lsls	r3, r3, #31
      events &= ~EVENT_MASK(eid);
 8000be6:	fa06 f204 	lsl.w	r2, r6, r4
    if ((events & EVENT_MASK(eid)) != (eventmask_t)0) {
 8000bea:	d50e      	bpl.n	8000c0a <rt_test_008_002_execute+0x3a>
      handlers[eid](eid);
 8000bec:	f857 3024 	ldr.w	r3, [r7, r4, lsl #2]
 8000bf0:	4620      	mov	r0, r4
      events &= ~EVENT_MASK(eid);
 8000bf2:	ea25 0502 	bic.w	r5, r5, r2
    }
    eid++;
 8000bf6:	3401      	adds	r4, #1
      handlers[eid](eid);
 8000bf8:	4798      	blx	r3
  while (events != (eventmask_t)0) {
 8000bfa:	2d00      	cmp	r5, #0
 8000bfc:	d1f0      	bne.n	8000be0 <rt_test_008_002_execute+0x10>
}
 8000bfe:	e8bd 40f8 	ldmia.w	sp!, {r3, r4, r5, r6, r7, lr}
    test_assert_sequence("ABC", "invalid sequence");
 8000c02:	4905      	ldr	r1, [pc, #20]	; (8000c18 <rt_test_008_002_execute+0x48>)
 8000c04:	4805      	ldr	r0, [pc, #20]	; (8000c1c <rt_test_008_002_execute+0x4c>)
 8000c06:	f7ff bfbb 	b.w	8000b80 <_test_assert_sequence>
    eid++;
 8000c0a:	3401      	adds	r4, #1
 8000c0c:	e7e8      	b.n	8000be0 <rt_test_008_002_execute+0x10>
 8000c0e:	bf00      	nop
 8000c10:	20001c5c 	.word	0x20001c5c
 8000c14:	0800a338 	.word	0x0800a338
 8000c18:	0800b524 	.word	0x0800b524
 8000c1c:	0800b538 	.word	0x0800b538

08000c20 <print_line>:
static void print_line(void) {
 8000c20:	b570      	push	{r4, r5, r6, lr}
 8000c22:	244c      	movs	r4, #76	; 0x4c
 8000c24:	4d07      	ldr	r5, [pc, #28]	; (8000c44 <print_line+0x24>)
    streamPut(test_chp, '-');
 8000c26:	6828      	ldr	r0, [r5, #0]
 8000c28:	212d      	movs	r1, #45	; 0x2d
 8000c2a:	6803      	ldr	r3, [r0, #0]
 8000c2c:	689b      	ldr	r3, [r3, #8]
 8000c2e:	4798      	blx	r3
  for (i = 0; i < 76; i++)
 8000c30:	3c01      	subs	r4, #1
 8000c32:	d1f8      	bne.n	8000c26 <print_line+0x6>
  streamWrite(test_chp, (const uint8_t *)"\r\n", 2);
 8000c34:	6828      	ldr	r0, [r5, #0]
 8000c36:	2202      	movs	r2, #2
}
 8000c38:	e8bd 4070 	ldmia.w	sp!, {r4, r5, r6, lr}
  streamWrite(test_chp, (const uint8_t *)"\r\n", 2);
 8000c3c:	6803      	ldr	r3, [r0, #0]
 8000c3e:	4902      	ldr	r1, [pc, #8]	; (8000c48 <print_line+0x28>)
 8000c40:	681b      	ldr	r3, [r3, #0]
 8000c42:	4718      	bx	r3
 8000c44:	20001bb0 	.word	0x20001bb0
 8000c48:	0800ba48 	.word	0x0800ba48
 8000c4c:	00000000 	.word	0x00000000

08000c50 <usb_lld_start_in>:
 *
 * @notapi
 */
void usb_lld_start_in(USBDriver *usbp, usbep_t ep) {
  size_t n;
  USBInEndpointState *isp = usbp->epc[ep]->in_state;
 8000c50:	eb00 0081 	add.w	r0, r0, r1, lsl #2
 8000c54:	68c3      	ldr	r3, [r0, #12]
void usb_lld_start_in(USBDriver *usbp, usbep_t ep) {
 8000c56:	b430      	push	{r4, r5}
  USBInEndpointState *isp = usbp->epc[ep]->in_state;
 8000c58:	695a      	ldr	r2, [r3, #20]

  /* Transfer initialization.*/
  n = isp->txsize;
  if (n > (size_t)usbp->epc[ep]->in_maxsize)
 8000c5a:	8a18      	ldrh	r0, [r3, #16]
  n = isp->txsize;
 8000c5c:	6813      	ldr	r3, [r2, #0]
  stm32_usb_descriptor_t *udp = USB_GET_DESCRIPTOR(ep);
 8000c5e:	4c1a      	ldr	r4, [pc, #104]	; (8000cc8 <usb_lld_start_in+0x78>)
 8000c60:	4298      	cmp	r0, r3
 8000c62:	bf28      	it	cs
 8000c64:	4618      	movcs	r0, r3
    n = (size_t)usbp->epc[ep]->in_maxsize;

  isp->txlast = n;
 8000c66:	60d0      	str	r0, [r2, #12]
  stm32_usb_descriptor_t *udp = USB_GET_DESCRIPTOR(ep);
 8000c68:	6d23      	ldr	r3, [r4, #80]	; 0x50
 8000c6a:	010d      	lsls	r5, r1, #4
 8000c6c:	f103 4380 	add.w	r3, r3, #1073741824	; 0x40000000
 8000c70:	f503 43c0 	add.w	r3, r3, #24576	; 0x6000
  usb_packet_write_from_buffer(ep, isp->txbuf, n);
 8000c74:	6894      	ldr	r4, [r2, #8]
  stm32_usb_pma_t *pmap = USB_ADDR2PTR(udp->TXADDR0);
 8000c76:	58ea      	ldr	r2, [r5, r3]
  stm32_usb_descriptor_t *udp = USB_GET_DESCRIPTOR(ep);
 8000c78:	442b      	add	r3, r5
  udp->TXCOUNT0 = (stm32_usb_pma_t)n;
 8000c7a:	6058      	str	r0, [r3, #4]
  while (i > 0) {
 8000c7c:	b188      	cbz	r0, 8000ca2 <usb_lld_start_in+0x52>
 8000c7e:	f102 5200 	add.w	r2, r2, #536870912	; 0x20000000
 8000c82:	f502 5240 	add.w	r2, r2, #12288	; 0x3000
 8000c86:	0052      	lsls	r2, r2, #1
 8000c88:	3801      	subs	r0, #1
 8000c8a:	0840      	lsrs	r0, r0, #1
 8000c8c:	1d13      	adds	r3, r2, #4
 8000c8e:	eb03 0080 	add.w	r0, r3, r0, lsl #2
 8000c92:	e000      	b.n	8000c96 <usb_lld_start_in+0x46>
 8000c94:	3304      	adds	r3, #4
    w |= *buf++ << 8;
 8000c96:	f834 5b02 	ldrh.w	r5, [r4], #2
  while (i > 0) {
 8000c9a:	4298      	cmp	r0, r3
    *pmap++ = (stm32_usb_pma_t)w;
 8000c9c:	6015      	str	r5, [r2, #0]
 8000c9e:	461a      	mov	r2, r3
  while (i > 0) {
 8000ca0:	d1f8      	bne.n	8000c94 <usb_lld_start_in+0x44>

  EPR_SET_STAT_TX(ep, EPR_STAT_TX_VALID);
}
 8000ca2:	bc30      	pop	{r4, r5}
 8000ca4:	0089      	lsls	r1, r1, #2
 8000ca6:	f101 4180 	add.w	r1, r1, #1073741824	; 0x40000000
 8000caa:	f501 41b8 	add.w	r1, r1, #23552	; 0x5c00
  EPR_SET_STAT_TX(ep, EPR_STAT_TX_VALID);
 8000cae:	680b      	ldr	r3, [r1, #0]
 8000cb0:	f423 43f0 	bic.w	r3, r3, #30720	; 0x7800
 8000cb4:	f023 0340 	bic.w	r3, r3, #64	; 0x40
 8000cb8:	f083 0330 	eor.w	r3, r3, #48	; 0x30
 8000cbc:	f443 4300 	orr.w	r3, r3, #32768	; 0x8000
 8000cc0:	f043 0380 	orr.w	r3, r3, #128	; 0x80
 8000cc4:	600b      	str	r3, [r1, #0]
}
 8000cc6:	4770      	bx	lr
 8000cc8:	40005c00 	.word	0x40005c00
 8000ccc:	00000000 	.word	0x00000000

08000cd0 <usb_lld_start_out>:
  USBOutEndpointState *osp = usbp->epc[ep]->out_state;
 8000cd0:	eb00 0081 	add.w	r0, r0, r1, lsl #2
 8000cd4:	68c0      	ldr	r0, [r0, #12]
 8000cd6:	6982      	ldr	r2, [r0, #24]
  if (osp->rxsize == 0)         /* Special case for zero sized packets.*/
 8000cd8:	6813      	ldr	r3, [r2, #0]
 8000cda:	b1bb      	cbz	r3, 8000d0c <usb_lld_start_out+0x3c>
    osp->rxpkts = (uint16_t)((osp->rxsize + usbp->epc[ep]->out_maxsize - 1) /
 8000cdc:	8a40      	ldrh	r0, [r0, #18]
 8000cde:	4403      	add	r3, r0
 8000ce0:	3b01      	subs	r3, #1
 8000ce2:	fbb3 f3f0 	udiv	r3, r3, r0
 8000ce6:	8193      	strh	r3, [r2, #12]
 8000ce8:	0089      	lsls	r1, r1, #2
 8000cea:	f101 4180 	add.w	r1, r1, #1073741824	; 0x40000000
 8000cee:	f501 41b8 	add.w	r1, r1, #23552	; 0x5c00
  EPR_SET_STAT_RX(ep, EPR_STAT_RX_VALID);
 8000cf2:	680b      	ldr	r3, [r1, #0]
 8000cf4:	f423 4390 	bic.w	r3, r3, #18432	; 0x4800
 8000cf8:	f023 0370 	bic.w	r3, r3, #112	; 0x70
 8000cfc:	f483 5340 	eor.w	r3, r3, #12288	; 0x3000
 8000d00:	f443 4300 	orr.w	r3, r3, #32768	; 0x8000
 8000d04:	f043 0380 	orr.w	r3, r3, #128	; 0x80
 8000d08:	600b      	str	r3, [r1, #0]
}
 8000d0a:	4770      	bx	lr
    osp->rxpkts = 1;
 8000d0c:	2301      	movs	r3, #1
 8000d0e:	8193      	strh	r3, [r2, #12]
 8000d10:	e7ea      	b.n	8000ce8 <usb_lld_start_out+0x18>
 8000d12:	bf00      	nop
	...

08000d20 <usb_lld_init_endpoint>:
  const USBEndpointConfig *epcp = usbp->epc[ep];
 8000d20:	eb00 0381 	add.w	r3, r0, r1, lsl #2
void usb_lld_init_endpoint(USBDriver *usbp, usbep_t ep) {
 8000d24:	b4f0      	push	{r4, r5, r6, r7}
  const USBEndpointConfig *epcp = usbp->epc[ep];
 8000d26:	68de      	ldr	r6, [r3, #12]
  switch (epcp->ep_mode & USB_EP_MODE_TYPE) {
 8000d28:	6833      	ldr	r3, [r6, #0]
 8000d2a:	f013 0303 	ands.w	r3, r3, #3
 8000d2e:	d053      	beq.n	8000dd8 <usb_lld_init_endpoint+0xb8>
 8000d30:	2b02      	cmp	r3, #2
 8000d32:	d95d      	bls.n	8000df0 <usb_lld_init_endpoint+0xd0>
 8000d34:	2b03      	cmp	r3, #3
 8000d36:	d14f      	bne.n	8000dd8 <usb_lld_init_endpoint+0xb8>
    epr = EPR_EP_TYPE_INTERRUPT;
 8000d38:	f44f 63c0 	mov.w	r3, #1536	; 0x600
  dp = USB_GET_DESCRIPTOR(ep);
 8000d3c:	4a2d      	ldr	r2, [pc, #180]	; (8000df4 <usb_lld_init_endpoint+0xd4>)
  if (epcp->in_state != NULL) {
 8000d3e:	6974      	ldr	r4, [r6, #20]
  dp = USB_GET_DESCRIPTOR(ep);
 8000d40:	6d12      	ldr	r2, [r2, #80]	; 0x50
 8000d42:	010f      	lsls	r7, r1, #4
 8000d44:	f102 4280 	add.w	r2, r2, #1073741824	; 0x40000000
 8000d48:	f502 42c0 	add.w	r2, r2, #24576	; 0x6000
 8000d4c:	18bd      	adds	r5, r7, r2
  if (epcp->in_state != NULL) {
 8000d4e:	b184      	cbz	r4, 8000d72 <usb_lld_init_endpoint+0x52>
    dp->TXCOUNT0 = 0;
 8000d50:	f04f 0c00 	mov.w	ip, #0
    dp->TXADDR0  = usb_pm_alloc(usbp, epcp->in_maxsize);
 8000d54:	8a34      	ldrh	r4, [r6, #16]
    dp->TXCOUNT0 = 0;
 8000d56:	f8c5 c004 	str.w	ip, [r5, #4]
  next = usbp->pmnext;
 8000d5a:	f8d0 c084 	ldr.w	ip, [r0, #132]	; 0x84
  usbp->pmnext += (size + 1) & ~1;
 8000d5e:	3401      	adds	r4, #1
 8000d60:	f024 0401 	bic.w	r4, r4, #1
 8000d64:	4464      	add	r4, ip
 8000d66:	f8c0 4084 	str.w	r4, [r0, #132]	; 0x84
    epr |= EPR_STAT_TX_NAK;
 8000d6a:	f043 0320 	orr.w	r3, r3, #32
    dp->TXADDR0  = usb_pm_alloc(usbp, epcp->in_maxsize);
 8000d6e:	f847 c002 	str.w	ip, [r7, r2]
  if (epcp->out_state != NULL) {
 8000d72:	69b2      	ldr	r2, [r6, #24]
 8000d74:	b1c2      	cbz	r2, 8000da8 <usb_lld_init_endpoint+0x88>
    if (epcp->out_maxsize > 62)
 8000d76:	8a74      	ldrh	r4, [r6, #18]
 8000d78:	2c3e      	cmp	r4, #62	; 0x3e
 8000d7a:	f104 32ff 	add.w	r2, r4, #4294967295	; 0xffffffff
 8000d7e:	d92e      	bls.n	8000dde <usb_lld_init_endpoint+0xbe>
      nblocks = (((((epcp->out_maxsize - 1) | 0x1f) + 1) / 32) << 10) |
 8000d80:	f042 021f 	orr.w	r2, r2, #31
 8000d84:	3201      	adds	r2, #1
 8000d86:	4e1c      	ldr	r6, [pc, #112]	; (8000df8 <usb_lld_init_endpoint+0xd8>)
 8000d88:	1152      	asrs	r2, r2, #5
 8000d8a:	ea46 2282 	orr.w	r2, r6, r2, lsl #10
 8000d8e:	b292      	uxth	r2, r2
    dp->RXCOUNT0 = nblocks;
 8000d90:	60ea      	str	r2, [r5, #12]
  next = usbp->pmnext;
 8000d92:	f8d0 2084 	ldr.w	r2, [r0, #132]	; 0x84
  usbp->pmnext += (size + 1) & ~1;
 8000d96:	3401      	adds	r4, #1
 8000d98:	f024 0401 	bic.w	r4, r4, #1
 8000d9c:	4414      	add	r4, r2
 8000d9e:	f8c0 4084 	str.w	r4, [r0, #132]	; 0x84
    epr |= EPR_STAT_RX_NAK;
 8000da2:	f443 5300 	orr.w	r3, r3, #8192	; 0x2000
    dp->RXADDR0  = usb_pm_alloc(usbp, epcp->out_maxsize);
 8000da6:	60aa      	str	r2, [r5, #8]
  EPR_SET(ep, epr | ep);
 8000da8:	f248 0080 	movw	r0, #32896	; 0x8080
  EPR_TOGGLE(ep, epr);
 8000dac:	f647 0470 	movw	r4, #30832	; 0x7870
  EPR_SET(ep, epr | ep);
 8000db0:	ea43 0201 	orr.w	r2, r3, r1
 8000db4:	f422 4278 	bic.w	r2, r2, #63488	; 0xf800
 8000db8:	0089      	lsls	r1, r1, #2
 8000dba:	f022 02f0 	bic.w	r2, r2, #240	; 0xf0
 8000dbe:	f101 4180 	add.w	r1, r1, #1073741824	; 0x40000000
 8000dc2:	f501 41b8 	add.w	r1, r1, #23552	; 0x5c00
 8000dc6:	4302      	orrs	r2, r0
 8000dc8:	600a      	str	r2, [r1, #0]
  EPR_TOGGLE(ep, epr);
 8000dca:	680a      	ldr	r2, [r1, #0]
 8000dcc:	4023      	ands	r3, r4
 8000dce:	4053      	eors	r3, r2
 8000dd0:	4303      	orrs	r3, r0
 8000dd2:	600b      	str	r3, [r1, #0]
}
 8000dd4:	bcf0      	pop	{r4, r5, r6, r7}
 8000dd6:	4770      	bx	lr
    epr = EPR_EP_TYPE_CONTROL;
 8000dd8:	f44f 7300 	mov.w	r3, #512	; 0x200
 8000ddc:	e7ae      	b.n	8000d3c <usb_lld_init_endpoint+0x1c>
      nblocks = ((((epcp->out_maxsize - 1) | 1) + 1) / 2) << 10;
 8000dde:	f042 0201 	orr.w	r2, r2, #1
 8000de2:	3201      	adds	r2, #1
 8000de4:	eb02 72d2 	add.w	r2, r2, r2, lsr #31
 8000de8:	0252      	lsls	r2, r2, #9
 8000dea:	f402 427c 	and.w	r2, r2, #64512	; 0xfc00
 8000dee:	e7cf      	b.n	8000d90 <usb_lld_init_endpoint+0x70>
    epr = EPR_EP_TYPE_BULK;
 8000df0:	2300      	movs	r3, #0
 8000df2:	e7a3      	b.n	8000d3c <usb_lld_init_endpoint+0x1c>
 8000df4:	40005c00 	.word	0x40005c00
 8000df8:	ffff8000 	.word	0xffff8000
 8000dfc:	00000000 	.word	0x00000000

08000e00 <usb_lld_reset>:
  STM32_USB->BTABLE = BTABLE_ADDR;
 8000e00:	2100      	movs	r1, #0
  if (usbp->config->sof_cb != NULL)
 8000e02:	6843      	ldr	r3, [r0, #4]
void usb_lld_reset(USBDriver *usbp) {
 8000e04:	b4f0      	push	{r4, r5, r6, r7}
  if (usbp->config->sof_cb != NULL)
 8000e06:	68db      	ldr	r3, [r3, #12]
  STM32_USB->DADDR  = DADDR_EF;
 8000e08:	2780      	movs	r7, #128	; 0x80
  if (usbp->config->sof_cb != NULL)
 8000e0a:	428b      	cmp	r3, r1
    cntr |= CNTR_SOFM;
 8000e0c:	bf0c      	ite	eq
 8000e0e:	f44f 461c 	moveq.w	r6, #39936	; 0x9c00
 8000e12:	f44f 461e 	movne.w	r6, #40448	; 0x9e00
  usbp->pmnext = 64;
 8000e16:	2540      	movs	r5, #64	; 0x40
  STM32_USB->BTABLE = BTABLE_ADDR;
 8000e18:	4b05      	ldr	r3, [pc, #20]	; (8000e30 <usb_lld_reset+0x30>)
  usbp->epc[0] = &ep0config;
 8000e1a:	4c06      	ldr	r4, [pc, #24]	; (8000e34 <usb_lld_reset+0x34>)
  STM32_USB->BTABLE = BTABLE_ADDR;
 8000e1c:	6519      	str	r1, [r3, #80]	; 0x50
  STM32_USB->ISTR   = 0;
 8000e1e:	6459      	str	r1, [r3, #68]	; 0x44
  STM32_USB->DADDR  = DADDR_EF;
 8000e20:	64df      	str	r7, [r3, #76]	; 0x4c
  STM32_USB->CNTR = cntr;
 8000e22:	641e      	str	r6, [r3, #64]	; 0x40
  usbp->pmnext = 64;
 8000e24:	f8c0 5084 	str.w	r5, [r0, #132]	; 0x84
  usbp->epc[0] = &ep0config;
 8000e28:	60c4      	str	r4, [r0, #12]
}
 8000e2a:	bcf0      	pop	{r4, r5, r6, r7}
  usb_lld_init_endpoint(usbp, 0);
 8000e2c:	f7ff bf78 	b.w	8000d20 <usb_lld_init_endpoint>
 8000e30:	40005c00 	.word	0x40005c00
 8000e34:	0800a2cc 	.word	0x0800a2cc
	...

08000e40 <_usb_ep0out>:
 * @notapi
 */
void _usb_ep0out(USBDriver *usbp, usbep_t ep) {

  (void)ep;
  switch (usbp->ep0state) {
 8000e40:	f890 2064 	ldrb.w	r2, [r0, #100]	; 0x64
 8000e44:	2a15      	cmp	r2, #21
 8000e46:	d815      	bhi.n	8000e74 <_usb_ep0out+0x34>
 8000e48:	2301      	movs	r3, #1
 8000e4a:	f640 6141 	movw	r1, #3649	; 0xe41
 8000e4e:	4093      	lsls	r3, r2
 8000e50:	420b      	tst	r3, r1
void _usb_ep0out(USBDriver *usbp, usbep_t ep) {
 8000e52:	b570      	push	{r4, r5, r6, lr}
 8000e54:	4604      	mov	r4, r0
 8000e56:	d125      	bne.n	8000ea4 <_usb_ep0out+0x64>
 8000e58:	f413 1580 	ands.w	r5, r3, #1048576	; 0x100000
 8000e5c:	d00b      	beq.n	8000e76 <_usb_ep0out+0x36>
    return;
  case USB_EP0_OUT_WAITING_STS:
    /* Status packet received, it must be zero sized, invoking the callback
       if defined.*/
#if (USB_EP0_STATUS_STAGE == USB_EP0_STATUS_STAGE_SW)
    if (usbGetReceiveTransactionSizeX(usbp, 0) != 0U) {
 8000e5e:	68c3      	ldr	r3, [r0, #12]
 8000e60:	699b      	ldr	r3, [r3, #24]
 8000e62:	685b      	ldr	r3, [r3, #4]
 8000e64:	b92b      	cbnz	r3, 8000e72 <_usb_ep0out+0x32>
      break;
    }
#endif
    if (usbp->ep0endcb != NULL) {
 8000e66:	6f03      	ldr	r3, [r0, #112]	; 0x70
 8000e68:	b103      	cbz	r3, 8000e6c <_usb_ep0out+0x2c>
      usbp->ep0endcb(usbp);
 8000e6a:	4798      	blx	r3
    }
    usbp->ep0state = USB_EP0_STP_WAITING;
 8000e6c:	2300      	movs	r3, #0
 8000e6e:	f884 3064 	strb.w	r3, [r4, #100]	; 0x64
    usbp->ep0state = USB_EP0_ERROR;
    return;
  default:
    osalDbgAssert(false, "EP0 state machine invalid state");
  }
}
 8000e72:	bd70      	pop	{r4, r5, r6, pc}
 8000e74:	4770      	bx	lr
 8000e76:	029b      	lsls	r3, r3, #10
 8000e78:	d5fb      	bpl.n	8000e72 <_usb_ep0out+0x32>
    usbp->ep0state = USB_EP0_IN_SENDING_STS;
 8000e7a:	220b      	movs	r2, #11
 8000e7c:	2320      	movs	r3, #32
 8000e7e:	f880 2064 	strb.w	r2, [r0, #100]	; 0x64
 8000e82:	f383 8811 	msr	BASEPRI, r3
  isp = usbp->epc[ep]->in_state;
 8000e86:	68c3      	ldr	r3, [r0, #12]
  usbp->transmitting |= (uint16_t)((unsigned)1U << (unsigned)ep);
 8000e88:	8902      	ldrh	r2, [r0, #8]
  isp = usbp->epc[ep]->in_state;
 8000e8a:	695b      	ldr	r3, [r3, #20]
  usbp->transmitting |= (uint16_t)((unsigned)1U << (unsigned)ep);
 8000e8c:	f042 0201 	orr.w	r2, r2, #1
 8000e90:	8102      	strh	r2, [r0, #8]
  usb_lld_start_in(usbp, ep);
 8000e92:	4629      	mov	r1, r5
  isp->txbuf  = buf;
 8000e94:	609d      	str	r5, [r3, #8]
  isp->txcnt  = 0;
 8000e96:	e9c3 5500 	strd	r5, r5, [r3]
  usb_lld_start_in(usbp, ep);
 8000e9a:	f7ff fed9 	bl	8000c50 <usb_lld_start_in>
 8000e9e:	f385 8811 	msr	BASEPRI, r5
}
 8000ea2:	bd70      	pop	{r4, r5, r6, pc}
 */
void usb_lld_stall_in(USBDriver *usbp, usbep_t ep) {

  (void)usbp;

  EPR_SET_STAT_TX(ep, EPR_STAT_TX_STALL);
 8000ea4:	f248 0680 	movw	r6, #32896	; 0x8080
 8000ea8:	490d      	ldr	r1, [pc, #52]	; (8000ee0 <_usb_ep0out+0xa0>)
    _usb_isr_invoke_event_cb(usbp, USB_EVENT_STALLED);
 8000eaa:	6843      	ldr	r3, [r0, #4]
 8000eac:	680a      	ldr	r2, [r1, #0]
 8000eae:	681d      	ldr	r5, [r3, #0]
 8000eb0:	f422 42f0 	bic.w	r2, r2, #30720	; 0x7800
 8000eb4:	f022 0240 	bic.w	r2, r2, #64	; 0x40
 8000eb8:	f082 0210 	eor.w	r2, r2, #16
 8000ebc:	4332      	orrs	r2, r6
 8000ebe:	600a      	str	r2, [r1, #0]
  EPR_SET_STAT_RX(ep, EPR_STAT_RX_STALL);
 8000ec0:	680b      	ldr	r3, [r1, #0]
 8000ec2:	f423 4390 	bic.w	r3, r3, #18432	; 0x4800
 8000ec6:	f023 0370 	bic.w	r3, r3, #112	; 0x70
 8000eca:	f483 5380 	eor.w	r3, r3, #4096	; 0x1000
 8000ece:	4333      	orrs	r3, r6
 8000ed0:	600b      	str	r3, [r1, #0]
 8000ed2:	b10d      	cbz	r5, 8000ed8 <_usb_ep0out+0x98>
 8000ed4:	2106      	movs	r1, #6
 8000ed6:	47a8      	blx	r5
    usbp->ep0state = USB_EP0_ERROR;
 8000ed8:	2306      	movs	r3, #6
 8000eda:	f884 3064 	strb.w	r3, [r4, #100]	; 0x64
}
 8000ede:	bd70      	pop	{r4, r5, r6, pc}
 8000ee0:	40005c00 	.word	0x40005c00
	...

08000ef0 <_usb_ep0in>:
void _usb_ep0in(USBDriver *usbp, usbep_t ep) {
 8000ef0:	b538      	push	{r3, r4, r5, lr}
  switch (usbp->ep0state) {
 8000ef2:	f890 3064 	ldrb.w	r3, [r0, #100]	; 0x64
void _usb_ep0in(USBDriver *usbp, usbep_t ep) {
 8000ef6:	4604      	mov	r4, r0
  switch (usbp->ep0state) {
 8000ef8:	2b15      	cmp	r3, #21
 8000efa:	d82a      	bhi.n	8000f52 <_usb_ep0in+0x62>
 8000efc:	e8df f003 	tbb	[pc, r3]
 8000f00:	2929290b 	.word	0x2929290b
 8000f04:	290b2929 	.word	0x290b2929
 8000f08:	513a2a29 	.word	0x513a2a29
 8000f0c:	29292929 	.word	0x29292929
 8000f10:	29292929 	.word	0x29292929
 8000f14:	0b0b      	.short	0x0b0b
  EPR_SET_STAT_TX(ep, EPR_STAT_TX_STALL);
 8000f16:	f248 0080 	movw	r0, #32896	; 0x8080
 8000f1a:	4930      	ldr	r1, [pc, #192]	; (8000fdc <_usb_ep0in+0xec>)
    _usb_isr_invoke_event_cb(usbp, USB_EVENT_STALLED);
 8000f1c:	6863      	ldr	r3, [r4, #4]
 8000f1e:	680a      	ldr	r2, [r1, #0]
 8000f20:	681d      	ldr	r5, [r3, #0]
 8000f22:	f422 42f0 	bic.w	r2, r2, #30720	; 0x7800
 8000f26:	f022 0240 	bic.w	r2, r2, #64	; 0x40
 8000f2a:	f082 0210 	eor.w	r2, r2, #16
 8000f2e:	4302      	orrs	r2, r0
 8000f30:	600a      	str	r2, [r1, #0]
  EPR_SET_STAT_RX(ep, EPR_STAT_RX_STALL);
 8000f32:	680b      	ldr	r3, [r1, #0]
 8000f34:	f423 4390 	bic.w	r3, r3, #18432	; 0x4800
 8000f38:	f023 0370 	bic.w	r3, r3, #112	; 0x70
 8000f3c:	f483 5380 	eor.w	r3, r3, #4096	; 0x1000
 8000f40:	4303      	orrs	r3, r0
 8000f42:	600b      	str	r3, [r1, #0]
 8000f44:	b115      	cbz	r5, 8000f4c <_usb_ep0in+0x5c>
 8000f46:	2106      	movs	r1, #6
 8000f48:	4620      	mov	r0, r4
 8000f4a:	47a8      	blx	r5
    usbp->ep0state = USB_EP0_ERROR;
 8000f4c:	2306      	movs	r3, #6
 8000f4e:	f884 3064 	strb.w	r3, [r4, #100]	; 0x64
}
 8000f52:	bd38      	pop	{r3, r4, r5, pc}
  hw |= (uint16_t)*p << 8U;
 8000f54:	f890 107b 	ldrb.w	r1, [r0, #123]	; 0x7b
 8000f58:	f890 307a 	ldrb.w	r3, [r0, #122]	; 0x7a
    if ((usbp->ep0n < max) &&
 8000f5c:	6ec2      	ldr	r2, [r0, #108]	; 0x6c
    max = (size_t)get_hword(&usbp->setup[6]);
 8000f5e:	ea43 2301 	orr.w	r3, r3, r1, lsl #8
    if ((usbp->ep0n < max) &&
 8000f62:	429a      	cmp	r2, r3
 8000f64:	d206      	bcs.n	8000f74 <_usb_ep0in+0x84>
        ((usbp->ep0n % usbp->epc[0]->in_maxsize) == 0U)) {
 8000f66:	68c3      	ldr	r3, [r0, #12]
 8000f68:	8a1b      	ldrh	r3, [r3, #16]
 8000f6a:	fbb2 f5f3 	udiv	r5, r2, r3
 8000f6e:	fb03 2515 	mls	r5, r3, r5, r2
    if ((usbp->ep0n < max) &&
 8000f72:	b1ed      	cbz	r5, 8000fb0 <_usb_ep0in+0xc0>
    usbp->ep0state = USB_EP0_OUT_WAITING_STS;
 8000f74:	2214      	movs	r2, #20
 8000f76:	2320      	movs	r3, #32
 8000f78:	f884 2064 	strb.w	r2, [r4, #100]	; 0x64
 8000f7c:	f383 8811 	msr	BASEPRI, r3
  osp->rxbuf  = buf;
 8000f80:	2500      	movs	r5, #0
  osp = usbp->epc[ep]->out_state;
 8000f82:	68e3      	ldr	r3, [r4, #12]
  usbp->receiving |= (uint16_t)((unsigned)1U << (unsigned)ep);
 8000f84:	8962      	ldrh	r2, [r4, #10]
  osp = usbp->epc[ep]->out_state;
 8000f86:	699b      	ldr	r3, [r3, #24]
  usbp->receiving |= (uint16_t)((unsigned)1U << (unsigned)ep);
 8000f88:	f042 0201 	orr.w	r2, r2, #1
 8000f8c:	8162      	strh	r2, [r4, #10]
  usb_lld_start_out(usbp, ep);
 8000f8e:	4620      	mov	r0, r4
  osp->rxbuf  = buf;
 8000f90:	609d      	str	r5, [r3, #8]
  osp->rxcnt  = 0;
 8000f92:	e9c3 5500 	strd	r5, r5, [r3]
  usb_lld_start_out(usbp, ep);
 8000f96:	4629      	mov	r1, r5
 8000f98:	f7ff fe9a 	bl	8000cd0 <usb_lld_start_out>
 8000f9c:	f385 8811 	msr	BASEPRI, r5
}
 8000fa0:	bd38      	pop	{r3, r4, r5, pc}
    if (usbp->ep0endcb != NULL) {
 8000fa2:	6f03      	ldr	r3, [r0, #112]	; 0x70
 8000fa4:	b103      	cbz	r3, 8000fa8 <_usb_ep0in+0xb8>
      usbp->ep0endcb(usbp);
 8000fa6:	4798      	blx	r3
    usbp->ep0state = USB_EP0_STP_WAITING;
 8000fa8:	2300      	movs	r3, #0
 8000faa:	f884 3064 	strb.w	r3, [r4, #100]	; 0x64
}
 8000fae:	bd38      	pop	{r3, r4, r5, pc}
 8000fb0:	2320      	movs	r3, #32
 8000fb2:	f383 8811 	msr	BASEPRI, r3
  isp = usbp->epc[ep]->in_state;
 8000fb6:	68c3      	ldr	r3, [r0, #12]
  usbp->transmitting |= (uint16_t)((unsigned)1U << (unsigned)ep);
 8000fb8:	8902      	ldrh	r2, [r0, #8]
  isp = usbp->epc[ep]->in_state;
 8000fba:	695b      	ldr	r3, [r3, #20]
  usbp->transmitting |= (uint16_t)((unsigned)1U << (unsigned)ep);
 8000fbc:	f042 0201 	orr.w	r2, r2, #1
 8000fc0:	8102      	strh	r2, [r0, #8]
  usb_lld_start_in(usbp, ep);
 8000fc2:	4629      	mov	r1, r5
  isp->txbuf  = buf;
 8000fc4:	609d      	str	r5, [r3, #8]
  isp->txcnt  = 0;
 8000fc6:	e9c3 5500 	strd	r5, r5, [r3]
  usb_lld_start_in(usbp, ep);
 8000fca:	f7ff fe41 	bl	8000c50 <usb_lld_start_in>
 8000fce:	f385 8811 	msr	BASEPRI, r5
      usbp->ep0state = USB_EP0_IN_WAITING_TX0;
 8000fd2:	230a      	movs	r3, #10
 8000fd4:	f884 3064 	strb.w	r3, [r4, #100]	; 0x64
}
 8000fd8:	bd38      	pop	{r3, r4, r5, pc}
 8000fda:	bf00      	nop
 8000fdc:	40005c00 	.word	0x40005c00

08000fe0 <_usb_ep0setup>:
void _usb_ep0setup(USBDriver *usbp, usbep_t ep) {
 8000fe0:	b570      	push	{r4, r5, r6, lr}
  if (usbp->ep0state != USB_EP0_STP_WAITING) {
 8000fe2:	f890 3064 	ldrb.w	r3, [r0, #100]	; 0x64
void _usb_ep0setup(USBDriver *usbp, usbep_t ep) {
 8000fe6:	4604      	mov	r4, r0
  if (usbp->ep0state != USB_EP0_STP_WAITING) {
 8000fe8:	b113      	cbz	r3, 8000ff0 <_usb_ep0setup+0x10>
    usbp->ep0state = USB_EP0_STP_WAITING;
 8000fea:	2300      	movs	r3, #0
 8000fec:	f880 3064 	strb.w	r3, [r0, #100]	; 0x64
  udp = USB_GET_DESCRIPTOR(ep);
 8000ff0:	4bc3      	ldr	r3, [pc, #780]	; (8001300 <_usb_ep0setup+0x320>)
  usbReadSetup(usbp, ep, usbp->setup);
 8000ff2:	f104 0274 	add.w	r2, r4, #116	; 0x74
 8000ff6:	6d1b      	ldr	r3, [r3, #80]	; 0x50
 8000ff8:	f103 4380 	add.w	r3, r3, #1073741824	; 0x40000000
 8000ffc:	f503 43c0 	add.w	r3, r3, #24576	; 0x6000
 8001000:	eb03 1301 	add.w	r3, r3, r1, lsl #4
  pmap = USB_ADDR2PTR(udp->RXADDR0);
 8001004:	689b      	ldr	r3, [r3, #8]
 8001006:	f103 5300 	add.w	r3, r3, #536870912	; 0x20000000
 800100a:	f503 5340 	add.w	r3, r3, #12288	; 0x3000
 800100e:	005b      	lsls	r3, r3, #1
 8001010:	f103 0010 	add.w	r0, r3, #16
    *(uint16_t *)buf = (uint16_t)*pmap++;
 8001014:	6819      	ldr	r1, [r3, #0]
 8001016:	3304      	adds	r3, #4
  for (n = 0; n < 4; n++) {
 8001018:	4283      	cmp	r3, r0
    *(uint16_t *)buf = (uint16_t)*pmap++;
 800101a:	f822 1b02 	strh.w	r1, [r2], #2
  for (n = 0; n < 4; n++) {
 800101e:	d1f9      	bne.n	8001014 <_usb_ep0setup+0x34>
  if ((usbp->config->requests_hook_cb == NULL) ||
 8001020:	6863      	ldr	r3, [r4, #4]
 8001022:	689b      	ldr	r3, [r3, #8]
 8001024:	b363      	cbz	r3, 8001080 <_usb_ep0setup+0xa0>
      !(usbp->config->requests_hook_cb(usbp))) {
 8001026:	4620      	mov	r0, r4
 8001028:	4798      	blx	r3
  if ((usbp->config->requests_hook_cb == NULL) ||
 800102a:	b348      	cbz	r0, 8001080 <_usb_ep0setup+0xa0>
 800102c:	6ee2      	ldr	r2, [r4, #108]	; 0x6c
 800102e:	f894 3074 	ldrb.w	r3, [r4, #116]	; 0x74
  hw |= (uint16_t)*p << 8U;
 8001032:	f894 007b 	ldrb.w	r0, [r4, #123]	; 0x7b
 8001036:	f894 107a 	ldrb.w	r1, [r4, #122]	; 0x7a
  max = (size_t)get_hword(&usbp->setup[6]);
 800103a:	ea41 2100 	orr.w	r1, r1, r0, lsl #8
  if (usbp->ep0n > max) {
 800103e:	4291      	cmp	r1, r2
 8001040:	bf2c      	ite	cs
 8001042:	4611      	movcs	r1, r2
    usbp->ep0n = max;
 8001044:	66e1      	strcc	r1, [r4, #108]	; 0x6c
  if ((usbp->setup[0] & USB_RTYPE_DIR_MASK) == USB_RTYPE_DIR_DEV2HOST) {
 8001046:	061a      	lsls	r2, r3, #24
 8001048:	f100 80a3 	bmi.w	8001192 <_usb_ep0setup+0x1b2>
    if (usbp->ep0n != 0U) {
 800104c:	2900      	cmp	r1, #0
 800104e:	d073      	beq.n	8001138 <_usb_ep0setup+0x158>
      usbp->ep0state = USB_EP0_OUT_RX;
 8001050:	2215      	movs	r2, #21
 8001052:	2320      	movs	r3, #32
 8001054:	f884 2064 	strb.w	r2, [r4, #100]	; 0x64
 8001058:	f383 8811 	msr	BASEPRI, r3
  osp->rxcnt  = 0;
 800105c:	2500      	movs	r5, #0
      usbStartReceiveI(usbp, 0, (uint8_t *)usbp->ep0next, usbp->ep0n);
 800105e:	e9d4 611a 	ldrd	r6, r1, [r4, #104]	; 0x68
  osp = usbp->epc[ep]->out_state;
 8001062:	68e3      	ldr	r3, [r4, #12]
  usbp->receiving |= (uint16_t)((unsigned)1U << (unsigned)ep);
 8001064:	8962      	ldrh	r2, [r4, #10]
  osp = usbp->epc[ep]->out_state;
 8001066:	699b      	ldr	r3, [r3, #24]
  usbp->receiving |= (uint16_t)((unsigned)1U << (unsigned)ep);
 8001068:	f042 0201 	orr.w	r2, r2, #1
 800106c:	8162      	strh	r2, [r4, #10]
  usb_lld_start_out(usbp, ep);
 800106e:	4620      	mov	r0, r4
  osp->rxcnt  = 0;
 8001070:	e883 0062 	stmia.w	r3, {r1, r5, r6}
  usb_lld_start_out(usbp, ep);
 8001074:	4629      	mov	r1, r5
 8001076:	f7ff fe2b 	bl	8000cd0 <usb_lld_start_out>
 800107a:	f385 8811 	msr	BASEPRI, r5
}
 800107e:	bd70      	pop	{r4, r5, r6, pc}
    if (((usbp->setup[0] & USB_RTYPE_TYPE_MASK) != USB_RTYPE_TYPE_STD) ||
 8001080:	f894 3074 	ldrb.w	r3, [r4, #116]	; 0x74
 8001084:	f013 0560 	ands.w	r5, r3, #96	; 0x60
 8001088:	4618      	mov	r0, r3
 800108a:	d01e      	beq.n	80010ca <_usb_ep0setup+0xea>
  EPR_SET_STAT_TX(ep, EPR_STAT_TX_STALL);
 800108c:	f248 0080 	movw	r0, #32896	; 0x8080
 8001090:	499b      	ldr	r1, [pc, #620]	; (8001300 <_usb_ep0setup+0x320>)
      _usb_isr_invoke_event_cb(usbp, USB_EVENT_STALLED);
 8001092:	6863      	ldr	r3, [r4, #4]
 8001094:	680a      	ldr	r2, [r1, #0]
 8001096:	681d      	ldr	r5, [r3, #0]
 8001098:	f422 42f0 	bic.w	r2, r2, #30720	; 0x7800
 800109c:	f022 0240 	bic.w	r2, r2, #64	; 0x40
 80010a0:	f082 0210 	eor.w	r2, r2, #16
 80010a4:	4302      	orrs	r2, r0
 80010a6:	600a      	str	r2, [r1, #0]
  EPR_SET_STAT_RX(ep, EPR_STAT_RX_STALL);
 80010a8:	680b      	ldr	r3, [r1, #0]
 80010aa:	f423 4390 	bic.w	r3, r3, #18432	; 0x4800
 80010ae:	f023 0370 	bic.w	r3, r3, #112	; 0x70
 80010b2:	f483 5380 	eor.w	r3, r3, #4096	; 0x1000
 80010b6:	4303      	orrs	r3, r0
 80010b8:	600b      	str	r3, [r1, #0]
 80010ba:	b115      	cbz	r5, 80010c2 <_usb_ep0setup+0xe2>
 80010bc:	2106      	movs	r1, #6
 80010be:	4620      	mov	r0, r4
 80010c0:	47a8      	blx	r5
      usbp->ep0state = USB_EP0_ERROR;
 80010c2:	2306      	movs	r3, #6
 80010c4:	f884 3064 	strb.w	r3, [r4, #100]	; 0x64
}
 80010c8:	bd70      	pop	{r4, r5, r6, pc}
  switch ((((uint32_t)usbp->setup[0] & (USB_RTYPE_RECIPIENT_MASK |
 80010ca:	f240 3102 	movw	r1, #770	; 0x302
           ((uint32_t)usbp->setup[1] << 8U))) {
 80010ce:	f894 6075 	ldrb.w	r6, [r4, #117]	; 0x75
  switch ((((uint32_t)usbp->setup[0] & (USB_RTYPE_RECIPIENT_MASK |
 80010d2:	f003 027f 	and.w	r2, r3, #127	; 0x7f
                                        USB_RTYPE_TYPE_MASK)) |
 80010d6:	ea42 2206 	orr.w	r2, r2, r6, lsl #8
  switch ((((uint32_t)usbp->setup[0] & (USB_RTYPE_RECIPIENT_MASK |
 80010da:	428a      	cmp	r2, r1
 80010dc:	f000 812e 	beq.w	800133c <_usb_ep0setup+0x35c>
 80010e0:	d841      	bhi.n	8001166 <_usb_ep0setup+0x186>
 80010e2:	2a02      	cmp	r2, #2
 80010e4:	f000 8112 	beq.w	800130c <_usb_ep0setup+0x32c>
 80010e8:	f240 80f7 	bls.w	80012da <_usb_ep0setup+0x2fa>
 80010ec:	f5b2 7f81 	cmp.w	r2, #258	; 0x102
 80010f0:	f000 8144 	beq.w	800137c <_usb_ep0setup+0x39c>
 80010f4:	f5b2 7f40 	cmp.w	r2, #768	; 0x300
 80010f8:	f000 8096 	beq.w	8001228 <_usb_ep0setup+0x248>
 80010fc:	f5b2 7f80 	cmp.w	r2, #256	; 0x100
 8001100:	d1c4      	bne.n	800108c <_usb_ep0setup+0xac>
    if (usbp->setup[2] == USB_FEATURE_DEVICE_REMOTE_WAKEUP) {
 8001102:	f894 3076 	ldrb.w	r3, [r4, #118]	; 0x76
 8001106:	2b01      	cmp	r3, #1
 8001108:	d1c0      	bne.n	800108c <_usb_ep0setup+0xac>
      usbp->status &= ~2U;
 800110a:	f8b4 307c 	ldrh.w	r3, [r4, #124]	; 0x7c
      usbSetupTransfer(usbp, NULL, 0, NULL);
 800110e:	66a5      	str	r5, [r4, #104]	; 0x68
      usbp->status &= ~2U;
 8001110:	f023 0302 	bic.w	r3, r3, #2
      usbSetupTransfer(usbp, NULL, 0, NULL);
 8001114:	e9c4 551b 	strd	r5, r5, [r4, #108]	; 0x6c
      usbp->status &= ~2U;
 8001118:	f8a4 307c 	strh.w	r3, [r4, #124]	; 0x7c
 800111c:	e00a      	b.n	8001134 <_usb_ep0setup+0x154>
  switch ((((uint32_t)usbp->setup[0] & (USB_RTYPE_RECIPIENT_MASK |
 800111e:	f5b2 6fc0 	cmp.w	r2, #1536	; 0x600
 8001122:	f080 8090 	bcs.w	8001246 <_usb_ep0setup+0x266>
 8001126:	f5b2 6fa0 	cmp.w	r2, #1280	; 0x500
 800112a:	d1af      	bne.n	800108c <_usb_ep0setup+0xac>
    usbSetupTransfer(usbp, NULL, 0, set_address);
 800112c:	4b75      	ldr	r3, [pc, #468]	; (8001304 <_usb_ep0setup+0x324>)
 800112e:	e9c4 551a 	strd	r5, r5, [r4, #104]	; 0x68
 8001132:	6723      	str	r3, [r4, #112]	; 0x70
  if ((usbp->setup[0] & USB_RTYPE_DIR_MASK) == USB_RTYPE_DIR_DEV2HOST) {
 8001134:	0603      	lsls	r3, r0, #24
 8001136:	d445      	bmi.n	80011c4 <_usb_ep0setup+0x1e4>
      usbp->ep0state = USB_EP0_IN_SENDING_STS;
 8001138:	220b      	movs	r2, #11
 800113a:	2320      	movs	r3, #32
 800113c:	f884 2064 	strb.w	r2, [r4, #100]	; 0x64
 8001140:	f383 8811 	msr	BASEPRI, r3
  isp->txbuf  = buf;
 8001144:	2500      	movs	r5, #0
  isp = usbp->epc[ep]->in_state;
 8001146:	68e3      	ldr	r3, [r4, #12]
  usbp->transmitting |= (uint16_t)((unsigned)1U << (unsigned)ep);
 8001148:	8922      	ldrh	r2, [r4, #8]
  isp = usbp->epc[ep]->in_state;
 800114a:	695b      	ldr	r3, [r3, #20]
  usbp->transmitting |= (uint16_t)((unsigned)1U << (unsigned)ep);
 800114c:	f042 0201 	orr.w	r2, r2, #1
 8001150:	8122      	strh	r2, [r4, #8]
  usb_lld_start_in(usbp, ep);
 8001152:	4620      	mov	r0, r4
  isp->txbuf  = buf;
 8001154:	609d      	str	r5, [r3, #8]
  isp->txcnt  = 0;
 8001156:	e9c3 5500 	strd	r5, r5, [r3]
  usb_lld_start_in(usbp, ep);
 800115a:	4629      	mov	r1, r5
 800115c:	f7ff fd78 	bl	8000c50 <usb_lld_start_in>
 8001160:	f385 8811 	msr	BASEPRI, r5
}
 8001164:	bd70      	pop	{r4, r5, r6, pc}
  switch ((((uint32_t)usbp->setup[0] & (USB_RTYPE_RECIPIENT_MASK |
 8001166:	f240 6101 	movw	r1, #1537	; 0x601
 800116a:	428a      	cmp	r2, r1
 800116c:	d9d7      	bls.n	800111e <_usb_ep0setup+0x13e>
 800116e:	f5b2 6f10 	cmp.w	r2, #2304	; 0x900
 8001172:	d03e      	beq.n	80011f2 <_usb_ep0setup+0x212>
 8001174:	f640 4102 	movw	r1, #3074	; 0xc02
 8001178:	428a      	cmp	r2, r1
 800117a:	f000 80ba 	beq.w	80012f2 <_usb_ep0setup+0x312>
 800117e:	f5b2 6f00 	cmp.w	r2, #2048	; 0x800
 8001182:	d183      	bne.n	800108c <_usb_ep0setup+0xac>
    usbSetupTransfer(usbp, &usbp->configuration, 1, NULL);
 8001184:	2201      	movs	r2, #1
 8001186:	f104 017f 	add.w	r1, r4, #127	; 0x7f
 800118a:	e9c4 251b 	strd	r2, r5, [r4, #108]	; 0x6c
 800118e:	66a1      	str	r1, [r4, #104]	; 0x68
 8001190:	e74f      	b.n	8001032 <_usb_ep0setup+0x52>
    if (usbp->ep0n != 0U) {
 8001192:	b1b9      	cbz	r1, 80011c4 <_usb_ep0setup+0x1e4>
      usbp->ep0state = USB_EP0_IN_TX;
 8001194:	2209      	movs	r2, #9
 8001196:	2320      	movs	r3, #32
 8001198:	f884 2064 	strb.w	r2, [r4, #100]	; 0x64
 800119c:	f383 8811 	msr	BASEPRI, r3
  isp->txcnt  = 0;
 80011a0:	2500      	movs	r5, #0
      usbStartTransmitI(usbp, 0, usbp->ep0next, usbp->ep0n);
 80011a2:	e9d4 611a 	ldrd	r6, r1, [r4, #104]	; 0x68
  isp = usbp->epc[ep]->in_state;
 80011a6:	68e3      	ldr	r3, [r4, #12]
  usbp->transmitting |= (uint16_t)((unsigned)1U << (unsigned)ep);
 80011a8:	8922      	ldrh	r2, [r4, #8]
  isp = usbp->epc[ep]->in_state;
 80011aa:	695b      	ldr	r3, [r3, #20]
  usbp->transmitting |= (uint16_t)((unsigned)1U << (unsigned)ep);
 80011ac:	f042 0201 	orr.w	r2, r2, #1
 80011b0:	8122      	strh	r2, [r4, #8]
  usb_lld_start_in(usbp, ep);
 80011b2:	4620      	mov	r0, r4
  isp->txcnt  = 0;
 80011b4:	e883 0062 	stmia.w	r3, {r1, r5, r6}
  usb_lld_start_in(usbp, ep);
 80011b8:	4629      	mov	r1, r5
 80011ba:	f7ff fd49 	bl	8000c50 <usb_lld_start_in>
 80011be:	f385 8811 	msr	BASEPRI, r5
}
 80011c2:	bd70      	pop	{r4, r5, r6, pc}
      usbp->ep0state = USB_EP0_OUT_WAITING_STS;
 80011c4:	2214      	movs	r2, #20
 80011c6:	2320      	movs	r3, #32
 80011c8:	f884 2064 	strb.w	r2, [r4, #100]	; 0x64
 80011cc:	f383 8811 	msr	BASEPRI, r3
  osp->rxbuf  = buf;
 80011d0:	2500      	movs	r5, #0
  osp = usbp->epc[ep]->out_state;
 80011d2:	68e3      	ldr	r3, [r4, #12]
  usbp->receiving |= (uint16_t)((unsigned)1U << (unsigned)ep);
 80011d4:	8962      	ldrh	r2, [r4, #10]
  osp = usbp->epc[ep]->out_state;
 80011d6:	699b      	ldr	r3, [r3, #24]
  usbp->receiving |= (uint16_t)((unsigned)1U << (unsigned)ep);
 80011d8:	f042 0201 	orr.w	r2, r2, #1
 80011dc:	8162      	strh	r2, [r4, #10]
  usb_lld_start_out(usbp, ep);
 80011de:	4620      	mov	r0, r4
  osp->rxbuf  = buf;
 80011e0:	609d      	str	r5, [r3, #8]
  osp->rxcnt  = 0;
 80011e2:	e9c3 5500 	strd	r5, r5, [r3]
  usb_lld_start_out(usbp, ep);
 80011e6:	4629      	mov	r1, r5
 80011e8:	f7ff fd72 	bl	8000cd0 <usb_lld_start_out>
 80011ec:	f385 8811 	msr	BASEPRI, r5
}
 80011f0:	bd70      	pop	{r4, r5, r6, pc}
    if (usbp->configuration != usbp->setup[2]) {
 80011f2:	f894 3076 	ldrb.w	r3, [r4, #118]	; 0x76
 80011f6:	f894 207f 	ldrb.w	r2, [r4, #127]	; 0x7f
 80011fa:	429a      	cmp	r2, r3
 80011fc:	d00f      	beq.n	800121e <_usb_ep0setup+0x23e>
      if (usbp->state == USB_ACTIVE) {
 80011fe:	7822      	ldrb	r2, [r4, #0]
 8001200:	2a04      	cmp	r2, #4
 8001202:	d039      	beq.n	8001278 <_usb_ep0setup+0x298>
      if (usbp->setup[2] != 0U) {
 8001204:	b14b      	cbz	r3, 800121a <_usb_ep0setup+0x23a>
        usbp->state = USB_ACTIVE;
 8001206:	2104      	movs	r1, #4
        _usb_isr_invoke_event_cb(usbp, USB_EVENT_CONFIGURED);
 8001208:	6862      	ldr	r2, [r4, #4]
        usbp->configuration = usbp->setup[2];
 800120a:	f884 307f 	strb.w	r3, [r4, #127]	; 0x7f
        usbp->state = USB_ACTIVE;
 800120e:	7021      	strb	r1, [r4, #0]
        _usb_isr_invoke_event_cb(usbp, USB_EVENT_CONFIGURED);
 8001210:	6813      	ldr	r3, [r2, #0]
 8001212:	b113      	cbz	r3, 800121a <_usb_ep0setup+0x23a>
 8001214:	2102      	movs	r1, #2
 8001216:	4620      	mov	r0, r4
 8001218:	4798      	blx	r3
 800121a:	f894 0074 	ldrb.w	r0, [r4, #116]	; 0x74
    usbSetupTransfer(usbp, NULL, 0, NULL);
 800121e:	2300      	movs	r3, #0
 8001220:	e9c4 331a 	strd	r3, r3, [r4, #104]	; 0x68
 8001224:	6723      	str	r3, [r4, #112]	; 0x70
 8001226:	e785      	b.n	8001134 <_usb_ep0setup+0x154>
    if (usbp->setup[2] == USB_FEATURE_DEVICE_REMOTE_WAKEUP) {
 8001228:	f894 3076 	ldrb.w	r3, [r4, #118]	; 0x76
 800122c:	2b01      	cmp	r3, #1
 800122e:	f47f af2d 	bne.w	800108c <_usb_ep0setup+0xac>
      usbp->status |= 2U;
 8001232:	f8b4 307c 	ldrh.w	r3, [r4, #124]	; 0x7c
      usbSetupTransfer(usbp, NULL, 0, NULL);
 8001236:	66a5      	str	r5, [r4, #104]	; 0x68
      usbp->status |= 2U;
 8001238:	f043 0302 	orr.w	r3, r3, #2
      usbSetupTransfer(usbp, NULL, 0, NULL);
 800123c:	e9c4 551b 	strd	r5, r5, [r4, #108]	; 0x6c
      usbp->status |= 2U;
 8001240:	f8a4 307c 	strh.w	r3, [r4, #124]	; 0x7c
 8001244:	e776      	b.n	8001134 <_usb_ep0setup+0x154>
  hw |= (uint16_t)*p << 8U;
 8001246:	f894 1079 	ldrb.w	r1, [r4, #121]	; 0x79
    dp = usbp->config->get_descriptor_cb(usbp, usbp->setup[3],
 800124a:	6862      	ldr	r2, [r4, #4]
  hw |= (uint16_t)*p << 8U;
 800124c:	f894 3078 	ldrb.w	r3, [r4, #120]	; 0x78
    dp = usbp->config->get_descriptor_cb(usbp, usbp->setup[3],
 8001250:	6856      	ldr	r6, [r2, #4]
 8001252:	ea43 2301 	orr.w	r3, r3, r1, lsl #8
 8001256:	f894 2076 	ldrb.w	r2, [r4, #118]	; 0x76
 800125a:	f894 1077 	ldrb.w	r1, [r4, #119]	; 0x77
 800125e:	4620      	mov	r0, r4
 8001260:	47b0      	blx	r6
    if (dp == NULL) {
 8001262:	2800      	cmp	r0, #0
 8001264:	f43f af12 	beq.w	800108c <_usb_ep0setup+0xac>
    usbSetupTransfer(usbp, (uint8_t *)dp->ud_string, dp->ud_size, NULL);
 8001268:	e9d0 2300 	ldrd	r2, r3, [r0]
 800126c:	6725      	str	r5, [r4, #112]	; 0x70
 800126e:	e9c4 321a 	strd	r3, r2, [r4, #104]	; 0x68
 8001272:	f894 3074 	ldrb.w	r3, [r4, #116]	; 0x74
 8001276:	e6dc      	b.n	8001032 <_usb_ep0setup+0x52>
 8001278:	2320      	movs	r3, #32
 800127a:	f383 8811 	msr	BASEPRI, r3
  for (i = 1; i <= USB_ENDOPOINTS_NUMBER; i++) {
 800127e:	2201      	movs	r2, #1
  usbp->pmnext = 64;
 8001280:	2640      	movs	r6, #64	; 0x40
    EPR_TOGGLE(i, 0);
 8001282:	f248 0080 	movw	r0, #32896	; 0x8080
  usbp->transmitting &= 1U;
 8001286:	8921      	ldrh	r1, [r4, #8]
  usbp->receiving    &= 1U;
 8001288:	8963      	ldrh	r3, [r4, #10]
    usbp->epc[i] = NULL;
 800128a:	e9c4 5504 	strd	r5, r5, [r4, #16]
 800128e:	e9c4 5506 	strd	r5, r5, [r4, #24]
 8001292:	e9c4 5508 	strd	r5, r5, [r4, #32]
  usbp->transmitting &= 1U;
 8001296:	4011      	ands	r1, r2
  usbp->receiving    &= 1U;
 8001298:	4013      	ands	r3, r2
    usbp->epc[i] = NULL;
 800129a:	62a5      	str	r5, [r4, #40]	; 0x28
  usbp->transmitting &= 1U;
 800129c:	8121      	strh	r1, [r4, #8]
  usbp->receiving    &= 1U;
 800129e:	8163      	strh	r3, [r4, #10]
  usbp->pmnext = 64;
 80012a0:	f8c4 6084 	str.w	r6, [r4, #132]	; 0x84
 80012a4:	0093      	lsls	r3, r2, #2
 80012a6:	f103 4380 	add.w	r3, r3, #1073741824	; 0x40000000
 80012aa:	f503 43b8 	add.w	r3, r3, #23552	; 0x5c00
    EPR_TOGGLE(i, 0);
 80012ae:	6819      	ldr	r1, [r3, #0]
  for (i = 1; i <= USB_ENDOPOINTS_NUMBER; i++) {
 80012b0:	3201      	adds	r2, #1
    EPR_TOGGLE(i, 0);
 80012b2:	4301      	orrs	r1, r0
  for (i = 1; i <= USB_ENDOPOINTS_NUMBER; i++) {
 80012b4:	2a08      	cmp	r2, #8
    EPR_TOGGLE(i, 0);
 80012b6:	6019      	str	r1, [r3, #0]
    EPR_SET(i, 0);
 80012b8:	6018      	str	r0, [r3, #0]
  for (i = 1; i <= USB_ENDOPOINTS_NUMBER; i++) {
 80012ba:	d1f3      	bne.n	80012a4 <_usb_ep0setup+0x2c4>
 80012bc:	2300      	movs	r3, #0
 80012be:	f383 8811 	msr	BASEPRI, r3
        usbp->state = USB_SELECTED;
 80012c2:	2103      	movs	r1, #3
        _usb_isr_invoke_event_cb(usbp, USB_EVENT_UNCONFIGURED);
 80012c4:	6862      	ldr	r2, [r4, #4]
        usbp->configuration = 0U;
 80012c6:	f884 307f 	strb.w	r3, [r4, #127]	; 0x7f
        usbp->state = USB_SELECTED;
 80012ca:	7021      	strb	r1, [r4, #0]
        _usb_isr_invoke_event_cb(usbp, USB_EVENT_UNCONFIGURED);
 80012cc:	6813      	ldr	r3, [r2, #0]
 80012ce:	b10b      	cbz	r3, 80012d4 <_usb_ep0setup+0x2f4>
 80012d0:	4620      	mov	r0, r4
 80012d2:	4798      	blx	r3
 80012d4:	f894 3076 	ldrb.w	r3, [r4, #118]	; 0x76
 80012d8:	e794      	b.n	8001204 <_usb_ep0setup+0x224>
  switch ((((uint32_t)usbp->setup[0] & (USB_RTYPE_RECIPIENT_MASK |
 80012da:	b93a      	cbnz	r2, 80012ec <_usb_ep0setup+0x30c>
    usbSetupTransfer(usbp, (uint8_t *)&usbp->status, 2, NULL);
 80012dc:	2102      	movs	r1, #2
 80012de:	f104 007c 	add.w	r0, r4, #124	; 0x7c
 80012e2:	e9c4 121b 	strd	r1, r2, [r4, #108]	; 0x6c
 80012e6:	66a0      	str	r0, [r4, #104]	; 0x68
 80012e8:	460a      	mov	r2, r1
 80012ea:	e6a2      	b.n	8001032 <_usb_ep0setup+0x52>
  switch ((((uint32_t)usbp->setup[0] & (USB_RTYPE_RECIPIENT_MASK |
 80012ec:	2a01      	cmp	r2, #1
 80012ee:	f47f aecd 	bne.w	800108c <_usb_ep0setup+0xac>
    usbSetupTransfer(usbp, (uint8_t *)zero_status, 2, NULL);
 80012f2:	2202      	movs	r2, #2
 80012f4:	2000      	movs	r0, #0
 80012f6:	4904      	ldr	r1, [pc, #16]	; (8001308 <_usb_ep0setup+0x328>)
 80012f8:	e9c4 201b 	strd	r2, r0, [r4, #108]	; 0x6c
 80012fc:	66a1      	str	r1, [r4, #104]	; 0x68
 80012fe:	e698      	b.n	8001032 <_usb_ep0setup+0x52>
 8001300:	40005c00 	.word	0x40005c00
 8001304:	08001461 	.word	0x08001461
 8001308:	0800c6c4 	.word	0x0800c6c4
    if ((usbp->setup[4] & 0x80U) != 0U) {
 800130c:	f894 1078 	ldrb.w	r1, [r4, #120]	; 0x78
 8001310:	f001 000f 	and.w	r0, r1, #15
 8001314:	f011 0f80 	tst.w	r1, #128	; 0x80
  switch (STM32_USB->EPR[ep] & EPR_STAT_TX_MASK) {
 8001318:	4940      	ldr	r1, [pc, #256]	; (800141c <_usb_ep0setup+0x43c>)
 800131a:	f851 1020 	ldr.w	r1, [r1, r0, lsl #2]
 800131e:	d152      	bne.n	80013c6 <_usb_ep0setup+0x3e6>
  switch (STM32_USB->EPR[ep] & EPR_STAT_RX_MASK) {
 8001320:	f411 5140 	ands.w	r1, r1, #12288	; 0x3000
 8001324:	f43f aeb2 	beq.w	800108c <_usb_ep0setup+0xac>
 8001328:	f5b1 5f80 	cmp.w	r1, #4096	; 0x1000
 800132c:	d151      	bne.n	80013d2 <_usb_ep0setup+0x3f2>
        usbSetupTransfer(usbp, (uint8_t *)halted_status, 2, NULL);
 800132e:	2502      	movs	r5, #2
 8001330:	2000      	movs	r0, #0
 8001332:	493b      	ldr	r1, [pc, #236]	; (8001420 <_usb_ep0setup+0x440>)
 8001334:	e9c4 501b 	strd	r5, r0, [r4, #108]	; 0x6c
 8001338:	66a1      	str	r1, [r4, #104]	; 0x68
 800133a:	e67a      	b.n	8001032 <_usb_ep0setup+0x52>
    if (usbp->setup[2] != USB_FEATURE_ENDPOINT_HALT) {
 800133c:	f894 3076 	ldrb.w	r3, [r4, #118]	; 0x76
 8001340:	2b00      	cmp	r3, #0
 8001342:	f47f aea3 	bne.w	800108c <_usb_ep0setup+0xac>
    if ((usbp->setup[4] & 0x0FU) != 0U) {
 8001346:	f894 2078 	ldrb.w	r2, [r4, #120]	; 0x78
 800134a:	f012 030f 	ands.w	r3, r2, #15
 800134e:	f43f af66 	beq.w	800121e <_usb_ep0setup+0x23e>
 8001352:	009b      	lsls	r3, r3, #2
 8001354:	f103 4380 	add.w	r3, r3, #1073741824	; 0x40000000
 8001358:	f503 43b8 	add.w	r3, r3, #23552	; 0x5c00
      if ((usbp->setup[4] & 0x80U) != 0U) {
 800135c:	f012 0f80 	tst.w	r2, #128	; 0x80
  EPR_SET_STAT_TX(ep, EPR_STAT_TX_STALL);
 8001360:	681a      	ldr	r2, [r3, #0]
 8001362:	d14f      	bne.n	8001404 <_usb_ep0setup+0x424>
  EPR_SET_STAT_RX(ep, EPR_STAT_RX_STALL);
 8001364:	f422 4290 	bic.w	r2, r2, #18432	; 0x4800
 8001368:	f022 0270 	bic.w	r2, r2, #112	; 0x70
 800136c:	f482 5280 	eor.w	r2, r2, #4096	; 0x1000
 8001370:	f442 4200 	orr.w	r2, r2, #32768	; 0x8000
 8001374:	f042 0280 	orr.w	r2, r2, #128	; 0x80
 8001378:	601a      	str	r2, [r3, #0]
 800137a:	e750      	b.n	800121e <_usb_ep0setup+0x23e>
    if (usbp->setup[2] != USB_FEATURE_ENDPOINT_HALT) {
 800137c:	f894 3076 	ldrb.w	r3, [r4, #118]	; 0x76
 8001380:	2b00      	cmp	r3, #0
 8001382:	f47f ae83 	bne.w	800108c <_usb_ep0setup+0xac>
    if ((usbp->setup[4] & 0x0FU) != 0U) {
 8001386:	f894 2078 	ldrb.w	r2, [r4, #120]	; 0x78
 800138a:	f012 030f 	ands.w	r3, r2, #15
 800138e:	f43f af46 	beq.w	800121e <_usb_ep0setup+0x23e>
 8001392:	009b      	lsls	r3, r3, #2
 8001394:	f103 4380 	add.w	r3, r3, #1073741824	; 0x40000000
 8001398:	f503 43b8 	add.w	r3, r3, #23552	; 0x5c00
      if ((usbp->setup[4] & 0x80U) != 0U) {
 800139c:	f012 0f80 	tst.w	r2, #128	; 0x80

  (void)usbp;

  /* Makes sure to not put to NAK an endpoint that is already
     transferring.*/
  if ((STM32_USB->EPR[ep] & EPR_STAT_TX_MASK) != EPR_STAT_TX_VALID)
 80013a0:	681a      	ldr	r2, [r3, #0]
 80013a2:	d11d      	bne.n	80013e0 <_usb_ep0setup+0x400>
  if ((STM32_USB->EPR[ep] & EPR_STAT_RX_MASK) != EPR_STAT_RX_VALID)
 80013a4:	f402 5240 	and.w	r2, r2, #12288	; 0x3000
 80013a8:	f5b2 5f40 	cmp.w	r2, #12288	; 0x3000
 80013ac:	f43f af37 	beq.w	800121e <_usb_ep0setup+0x23e>
    EPR_SET_STAT_TX(ep, EPR_STAT_RX_NAK);
 80013b0:	681a      	ldr	r2, [r3, #0]
 80013b2:	f422 42f0 	bic.w	r2, r2, #30720	; 0x7800
 80013b6:	f022 0240 	bic.w	r2, r2, #64	; 0x40
 80013ba:	f442 4220 	orr.w	r2, r2, #40960	; 0xa000
 80013be:	f042 0280 	orr.w	r2, r2, #128	; 0x80
 80013c2:	601a      	str	r2, [r3, #0]
 80013c4:	e72b      	b.n	800121e <_usb_ep0setup+0x23e>
  switch (STM32_USB->EPR[ep] & EPR_STAT_TX_MASK) {
 80013c6:	f011 0130 	ands.w	r1, r1, #48	; 0x30
 80013ca:	f43f ae5f 	beq.w	800108c <_usb_ep0setup+0xac>
 80013ce:	2910      	cmp	r1, #16
 80013d0:	d0ad      	beq.n	800132e <_usb_ep0setup+0x34e>
        usbSetupTransfer(usbp, (uint8_t *)active_status, 2, NULL);
 80013d2:	2502      	movs	r5, #2
 80013d4:	2000      	movs	r0, #0
 80013d6:	4913      	ldr	r1, [pc, #76]	; (8001424 <_usb_ep0setup+0x444>)
 80013d8:	e9c4 501b 	strd	r5, r0, [r4, #108]	; 0x6c
 80013dc:	66a1      	str	r1, [r4, #104]	; 0x68
 80013de:	e628      	b.n	8001032 <_usb_ep0setup+0x52>
  if ((STM32_USB->EPR[ep] & EPR_STAT_TX_MASK) != EPR_STAT_TX_VALID)
 80013e0:	f002 0230 	and.w	r2, r2, #48	; 0x30
 80013e4:	2a30      	cmp	r2, #48	; 0x30
 80013e6:	f43f af1a 	beq.w	800121e <_usb_ep0setup+0x23e>
    EPR_SET_STAT_TX(ep, EPR_STAT_TX_NAK);
 80013ea:	681a      	ldr	r2, [r3, #0]
 80013ec:	f422 42f0 	bic.w	r2, r2, #30720	; 0x7800
 80013f0:	f022 0240 	bic.w	r2, r2, #64	; 0x40
 80013f4:	f082 0220 	eor.w	r2, r2, #32
 80013f8:	f442 4200 	orr.w	r2, r2, #32768	; 0x8000
 80013fc:	f042 0280 	orr.w	r2, r2, #128	; 0x80
 8001400:	601a      	str	r2, [r3, #0]
 8001402:	e70c      	b.n	800121e <_usb_ep0setup+0x23e>
  EPR_SET_STAT_TX(ep, EPR_STAT_TX_STALL);
 8001404:	f422 42f0 	bic.w	r2, r2, #30720	; 0x7800
 8001408:	f022 0240 	bic.w	r2, r2, #64	; 0x40
 800140c:	f082 0210 	eor.w	r2, r2, #16
 8001410:	f442 4200 	orr.w	r2, r2, #32768	; 0x8000
 8001414:	f042 0280 	orr.w	r2, r2, #128	; 0x80
 8001418:	601a      	str	r2, [r3, #0]
 800141a:	e700      	b.n	800121e <_usb_ep0setup+0x23e>
 800141c:	40005c00 	.word	0x40005c00
 8001420:	0800a344 	.word	0x0800a344
 8001424:	08009fb8 	.word	0x08009fb8
	...

08001430 <usbStartTransmitI>:
                       const uint8_t *buf, size_t n) {
 8001430:	b5f0      	push	{r4, r5, r6, r7, lr}
  usbp->transmitting |= (uint16_t)((unsigned)1U << (unsigned)ep);
 8001432:	2401      	movs	r4, #1
  isp->txcnt  = 0;
 8001434:	2700      	movs	r7, #0
  isp = usbp->epc[ep]->in_state;
 8001436:	eb00 0c81 	add.w	ip, r0, r1, lsl #2
 800143a:	f8dc e00c 	ldr.w	lr, [ip, #12]
  usbp->transmitting |= (uint16_t)((unsigned)1U << (unsigned)ep);
 800143e:	f8b0 c008 	ldrh.w	ip, [r0, #8]
  isp = usbp->epc[ep]->in_state;
 8001442:	f8de 5014 	ldr.w	r5, [lr, #20]
  usbp->transmitting |= (uint16_t)((unsigned)1U << (unsigned)ep);
 8001446:	408c      	lsls	r4, r1
 8001448:	ea44 040c 	orr.w	r4, r4, ip
 800144c:	8104      	strh	r4, [r0, #8]
  isp->txbuf  = buf;
 800144e:	60aa      	str	r2, [r5, #8]
  isp->txcnt  = 0;
 8001450:	e9c5 3700 	strd	r3, r7, [r5]
}
 8001454:	e8bd 40f0 	ldmia.w	sp!, {r4, r5, r6, r7, lr}
  usb_lld_start_in(usbp, ep);
 8001458:	f7ff bbfa 	b.w	8000c50 <usb_lld_start_in>
 800145c:	0000      	movs	r0, r0
	...

08001460 <set_address>:
  usbp->address = usbp->setup[2];
 8001460:	f890 3076 	ldrb.w	r3, [r0, #118]	; 0x76
  _usb_isr_invoke_event_cb(usbp, USB_EVENT_ADDRESS);
 8001464:	6842      	ldr	r2, [r0, #4]
  usbp->address = usbp->setup[2];
 8001466:	f880 307e 	strb.w	r3, [r0, #126]	; 0x7e
  STM32_USB->DADDR = (uint32_t)(usbp->address) | DADDR_EF;
 800146a:	4906      	ldr	r1, [pc, #24]	; (8001484 <set_address+0x24>)
  _usb_isr_invoke_event_cb(usbp, USB_EVENT_ADDRESS);
 800146c:	6812      	ldr	r2, [r2, #0]
 800146e:	f043 0380 	orr.w	r3, r3, #128	; 0x80
static void set_address(USBDriver *usbp) {
 8001472:	b510      	push	{r4, lr}
 8001474:	4604      	mov	r4, r0
 8001476:	64cb      	str	r3, [r1, #76]	; 0x4c
  _usb_isr_invoke_event_cb(usbp, USB_EVENT_ADDRESS);
 8001478:	b10a      	cbz	r2, 800147e <set_address+0x1e>
 800147a:	2101      	movs	r1, #1
 800147c:	4790      	blx	r2
  usbp->state = USB_SELECTED;
 800147e:	2303      	movs	r3, #3
 8001480:	7023      	strb	r3, [r4, #0]
}
 8001482:	bd10      	pop	{r4, pc}
 8001484:	40005c00 	.word	0x40005c00
	...

08001490 <sduInterruptTransmitted>:
 */
void sduInterruptTransmitted(USBDriver *usbp, usbep_t ep) {

  (void)usbp;
  (void)ep;
}
 8001490:	4770      	bx	lr
 8001492:	bf00      	nop
	...

080014a0 <sduRequestsHook>:
  if ((usbp->setup[0] & USB_RTYPE_TYPE_MASK) == USB_RTYPE_TYPE_CLASS) {
 80014a0:	f890 3074 	ldrb.w	r3, [r0, #116]	; 0x74
bool sduRequestsHook(USBDriver *usbp) {
 80014a4:	4602      	mov	r2, r0
  if ((usbp->setup[0] & USB_RTYPE_TYPE_MASK) == USB_RTYPE_TYPE_CLASS) {
 80014a6:	f003 0360 	and.w	r3, r3, #96	; 0x60
 80014aa:	2b20      	cmp	r3, #32
 80014ac:	d001      	beq.n	80014b2 <sduRequestsHook+0x12>
      return false;
 80014ae:	2000      	movs	r0, #0
}
 80014b0:	4770      	bx	lr
    switch (usbp->setup[1]) {
 80014b2:	f890 3075 	ldrb.w	r3, [r0, #117]	; 0x75
 80014b6:	2b20      	cmp	r3, #32
 80014b8:	d3f9      	bcc.n	80014ae <sduRequestsHook+0xe>
 80014ba:	2b21      	cmp	r3, #33	; 0x21
 80014bc:	d807      	bhi.n	80014ce <sduRequestsHook+0x2e>
      usbSetupTransfer(usbp, (uint8_t *)&linecoding, sizeof(linecoding), NULL);
 80014be:	2007      	movs	r0, #7
 80014c0:	2100      	movs	r1, #0
 80014c2:	4b07      	ldr	r3, [pc, #28]	; (80014e0 <sduRequestsHook+0x40>)
 80014c4:	e9c2 011b 	strd	r0, r1, [r2, #108]	; 0x6c
 80014c8:	6693      	str	r3, [r2, #104]	; 0x68
      return true;
 80014ca:	2001      	movs	r0, #1
 80014cc:	4770      	bx	lr
    switch (usbp->setup[1]) {
 80014ce:	2b22      	cmp	r3, #34	; 0x22
 80014d0:	d1ed      	bne.n	80014ae <sduRequestsHook+0xe>
      usbSetupTransfer(usbp, NULL, 0, NULL);
 80014d2:	2300      	movs	r3, #0
      return true;
 80014d4:	2001      	movs	r0, #1
      usbSetupTransfer(usbp, NULL, 0, NULL);
 80014d6:	e9c2 331a 	strd	r3, r3, [r2, #104]	; 0x68
 80014da:	6713      	str	r3, [r2, #112]	; 0x70
 80014dc:	4770      	bx	lr
 80014de:	bf00      	nop
 80014e0:	20000838 	.word	0x20000838
	...

080014f0 <_ctl.lto_priv.116>:
#else
    break;
#endif
  }
  return MSG_OK;
}
 80014f0:	2000      	movs	r0, #0
 80014f2:	4770      	bx	lr
	...

08001500 <_ctl.lto_priv.117>:
 8001500:	2000      	movs	r0, #0
 8001502:	4770      	bx	lr
	...

08001510 <sdu_start_receive>:
static bool sdu_start_receive(SerialUSBDriver *sdup) {
 8001510:	b5f8      	push	{r3, r4, r5, r6, r7, lr}
  if ((usbGetDriverStateI(sdup->config->usbp) != USB_ACTIVE) ||
 8001512:	f8d0 148c 	ldr.w	r1, [r0, #1164]	; 0x48c
 8001516:	680a      	ldr	r2, [r1, #0]
 8001518:	7813      	ldrb	r3, [r2, #0]
 800151a:	2b04      	cmp	r3, #4
 800151c:	d001      	beq.n	8001522 <sdu_start_receive+0x12>
    return true;
 800151e:	2001      	movs	r0, #1
}
 8001520:	bdf8      	pop	{r3, r4, r5, r6, r7, pc}
  if ((usbGetDriverStateI(sdup->config->usbp) != USB_ACTIVE) ||
 8001522:	7a03      	ldrb	r3, [r0, #8]
 8001524:	2b02      	cmp	r3, #2
 8001526:	d1fa      	bne.n	800151e <sdu_start_receive+0xe>
  if (usbGetReceiveStatusI(sdup->config->usbp, sdup->config->bulk_in)) {
 8001528:	2301      	movs	r3, #1
 800152a:	790c      	ldrb	r4, [r1, #4]
 800152c:	8955      	ldrh	r5, [r2, #10]
 800152e:	fa03 f404 	lsl.w	r4, r3, r4
 8001532:	4225      	tst	r5, r4
 8001534:	d1f3      	bne.n	800151e <sdu_start_receive+0xe>
 */
uint8_t *ibqGetEmptyBufferI(input_buffers_queue_t *ibqp) {

  osalDbgCheckClassI();

  if (ibqIsFullI(ibqp)) {
 8001536:	e9d0 4607 	ldrd	r4, r6, [r0, #28]
 800153a:	42b4      	cmp	r4, r6
 800153c:	d015      	beq.n	800156a <sdu_start_receive+0x5a>
  if (buf == NULL) {
 800153e:	1d23      	adds	r3, r4, #4
 8001540:	d0ed      	beq.n	800151e <sdu_start_receive+0xe>
  usbp->receiving |= (uint16_t)((unsigned)1U << (unsigned)ep);
 8001542:	2001      	movs	r0, #1
  osp->rxcnt  = 0;
 8001544:	2400      	movs	r4, #0
  osp->rxsize = n;
 8001546:	f44f 7780 	mov.w	r7, #256	; 0x100
  usbStartReceiveI(sdup->config->usbp, sdup->config->bulk_out,
 800154a:	7949      	ldrb	r1, [r1, #5]
  osp = usbp->epc[ep]->out_state;
 800154c:	eb02 0681 	add.w	r6, r2, r1, lsl #2
 8001550:	68f6      	ldr	r6, [r6, #12]
  usbp->receiving |= (uint16_t)((unsigned)1U << (unsigned)ep);
 8001552:	4088      	lsls	r0, r1
  osp = usbp->epc[ep]->out_state;
 8001554:	69b6      	ldr	r6, [r6, #24]
  usbp->receiving |= (uint16_t)((unsigned)1U << (unsigned)ep);
 8001556:	4305      	orrs	r5, r0
 8001558:	8155      	strh	r5, [r2, #10]
  usb_lld_start_out(usbp, ep);
 800155a:	4610      	mov	r0, r2
  osp->rxbuf  = buf;
 800155c:	60b3      	str	r3, [r6, #8]
  osp->rxcnt  = 0;
 800155e:	e9c6 7400 	strd	r7, r4, [r6]
  usb_lld_start_out(usbp, ep);
 8001562:	f7ff fbb5 	bl	8000cd0 <usb_lld_start_out>
  return false;
 8001566:	4620      	mov	r0, r4
}
 8001568:	bdf8      	pop	{r3, r4, r5, r6, r7, pc}
 800156a:	6980      	ldr	r0, [r0, #24]
 800156c:	2800      	cmp	r0, #0
 800156e:	d1d6      	bne.n	800151e <sdu_start_receive+0xe>
 8001570:	e7e5      	b.n	800153e <sdu_start_receive+0x2e>
 8001572:	bf00      	nop
	...

08001580 <ibnotify>:
  (void) sdu_start_receive(sdup);
 8001580:	6b40      	ldr	r0, [r0, #52]	; 0x34
 8001582:	f7ff bfc5 	b.w	8001510 <sdu_start_receive>
 8001586:	bf00      	nop
	...

08001590 <obqGetFullBufferI>:
uint8_t *obqGetFullBufferI(output_buffers_queue_t *obqp,
                           size_t *sizep) {

  osalDbgCheckClassI();

  if (obqIsEmptyI(obqp)) {
 8001590:	e9d0 2304 	ldrd	r2, r3, [r0, #16]
 8001594:	429a      	cmp	r2, r3
 8001596:	d004      	beq.n	80015a2 <obqGetFullBufferI+0x12>
    return NULL;
  }

  /* Buffer size.*/
  *sizep = *((size_t *)obqp->brdptr);
 8001598:	4618      	mov	r0, r3
 800159a:	f850 3b04 	ldr.w	r3, [r0], #4
 800159e:	600b      	str	r3, [r1, #0]

  return obqp->brdptr + sizeof (size_t);
}
 80015a0:	4770      	bx	lr
  if (obqIsEmptyI(obqp)) {
 80015a2:	68c2      	ldr	r2, [r0, #12]
 80015a4:	2a00      	cmp	r2, #0
 80015a6:	d0f7      	beq.n	8001598 <obqGetFullBufferI+0x8>
    return NULL;
 80015a8:	2000      	movs	r0, #0
 80015aa:	4770      	bx	lr
 80015ac:	0000      	movs	r0, r0
	...

080015b0 <obnotify>:
static void obnotify(io_buffers_queue_t *bqp) {
 80015b0:	b510      	push	{r4, lr}
  SerialUSBDriver *sdup = bqGetLinkX(bqp);
 80015b2:	6b44      	ldr	r4, [r0, #52]	; 0x34
static void obnotify(io_buffers_queue_t *bqp) {
 80015b4:	b082      	sub	sp, #8
  if ((usbGetDriverStateI(sdup->config->usbp) != USB_ACTIVE) ||
 80015b6:	f8d4 248c 	ldr.w	r2, [r4, #1164]	; 0x48c
 80015ba:	6813      	ldr	r3, [r2, #0]
 80015bc:	7819      	ldrb	r1, [r3, #0]
 80015be:	2904      	cmp	r1, #4
 80015c0:	d001      	beq.n	80015c6 <obnotify+0x16>
}
 80015c2:	b002      	add	sp, #8
 80015c4:	bd10      	pop	{r4, pc}
  if ((usbGetDriverStateI(sdup->config->usbp) != USB_ACTIVE) ||
 80015c6:	7a21      	ldrb	r1, [r4, #8]
 80015c8:	2902      	cmp	r1, #2
 80015ca:	d1fa      	bne.n	80015c2 <obnotify+0x12>
  if (!usbGetTransmitStatusI(sdup->config->usbp, sdup->config->bulk_in)) {
 80015cc:	2101      	movs	r1, #1
 80015ce:	7910      	ldrb	r0, [r2, #4]
 80015d0:	891a      	ldrh	r2, [r3, #8]
 80015d2:	fa01 f300 	lsl.w	r3, r1, r0
 80015d6:	4213      	tst	r3, r2
 80015d8:	d1f3      	bne.n	80015c2 <obnotify+0x12>
    uint8_t *buf = obqGetFullBufferI(&sdup->obqueue, &n);
 80015da:	a901      	add	r1, sp, #4
 80015dc:	f104 0044 	add.w	r0, r4, #68	; 0x44
 80015e0:	f7ff ffd6 	bl	8001590 <obqGetFullBufferI>
    if (buf != NULL) {
 80015e4:	2800      	cmp	r0, #0
 80015e6:	d0ec      	beq.n	80015c2 <obnotify+0x12>
      usbStartTransmitI(sdup->config->usbp, sdup->config->bulk_in, buf, n);
 80015e8:	f8d4 348c 	ldr.w	r3, [r4, #1164]	; 0x48c
 80015ec:	4602      	mov	r2, r0
 80015ee:	7919      	ldrb	r1, [r3, #4]
 80015f0:	6818      	ldr	r0, [r3, #0]
 80015f2:	9b01      	ldr	r3, [sp, #4]
 80015f4:	f7ff ff1c 	bl	8001430 <usbStartTransmitI>
 80015f8:	e7e3      	b.n	80015c2 <obnotify+0x12>
 80015fa:	bf00      	nop
 80015fc:	0000      	movs	r0, r0
	...

08001600 <sof_handler>:
}

/*
 * Handles the USB driver global events.
 */
static void sof_handler(USBDriver *usbp) {
 8001600:	b510      	push	{r4, lr}
 8001602:	2320      	movs	r3, #32
 8001604:	b082      	sub	sp, #8
 8001606:	f383 8811 	msr	BASEPRI, r3
  if ((usbGetDriverStateI(sdup->config->usbp) != USB_ACTIVE) ||
 800160a:	4c1f      	ldr	r4, [pc, #124]	; (8001688 <sof_handler+0x88>)
 800160c:	f8d4 248c 	ldr.w	r2, [r4, #1164]	; 0x48c
 8001610:	6813      	ldr	r3, [r2, #0]
 8001612:	7819      	ldrb	r1, [r3, #0]
 8001614:	2904      	cmp	r1, #4
 8001616:	d004      	beq.n	8001622 <sof_handler+0x22>
 8001618:	2300      	movs	r3, #0
 800161a:	f383 8811 	msr	BASEPRI, r3
  (void)usbp;

  osalSysLockFromISR();
  sduSOFHookI(&SDU1);
  osalSysUnlockFromISR();
}
 800161e:	b002      	add	sp, #8
 8001620:	bd10      	pop	{r4, pc}
 8001622:	7a21      	ldrb	r1, [r4, #8]
 8001624:	2902      	cmp	r1, #2
 8001626:	d1f7      	bne.n	8001618 <sof_handler+0x18>
  if (usbGetTransmitStatusI(sdup->config->usbp, sdup->config->bulk_in)) {
 8001628:	2101      	movs	r1, #1
 800162a:	7910      	ldrb	r0, [r2, #4]
 800162c:	891a      	ldrh	r2, [r3, #8]
 800162e:	fa01 f300 	lsl.w	r3, r1, r0
 8001632:	4213      	tst	r3, r2
 8001634:	d1f0      	bne.n	8001618 <sof_handler+0x18>

  osalDbgCheckClassI();

  /* If queue is empty and there is a buffer partially filled and
     it is not being written.*/
  if (obqIsEmptyI(obqp) && (obqp->ptr != NULL)) {
 8001636:	e9d4 3215 	ldrd	r3, r2, [r4, #84]	; 0x54
 800163a:	4293      	cmp	r3, r2
 800163c:	d1ec      	bne.n	8001618 <sof_handler+0x18>
 800163e:	6d22      	ldr	r2, [r4, #80]	; 0x50
 8001640:	2a00      	cmp	r2, #0
 8001642:	d0e9      	beq.n	8001618 <sof_handler+0x18>
 8001644:	6ee2      	ldr	r2, [r4, #108]	; 0x6c
 8001646:	2a00      	cmp	r2, #0
 8001648:	d0e6      	beq.n	8001618 <sof_handler+0x18>
    size_t size = (size_t)obqp->ptr - ((size_t)obqp->bwrptr + sizeof (size_t));
 800164a:	3a04      	subs	r2, #4

    if (size > 0U) {
 800164c:	1ad2      	subs	r2, r2, r3
 800164e:	d0e3      	beq.n	8001618 <sof_handler+0x18>

      /* Writing size field in the buffer.*/
      *((size_t *)obqp->bwrptr) = size;
 8001650:	601a      	str	r2, [r3, #0]

      /* Posting the buffer in the queue.*/
      obqp->bcounter--;
      obqp->bwrptr += obqp->bsize;
      if (obqp->bwrptr >= obqp->btop) {
 8001652:	e9d4 1017 	ldrd	r1, r0, [r4, #92]	; 0x5c
      obqp->bwrptr += obqp->bsize;
 8001656:	4403      	add	r3, r0
      if (obqp->bwrptr >= obqp->btop) {
 8001658:	428b      	cmp	r3, r1
      obqp->bwrptr += obqp->bsize;
 800165a:	6563      	str	r3, [r4, #84]	; 0x54
        obqp->bwrptr = obqp->buffers;
 800165c:	bf28      	it	cs
 800165e:	6ea3      	ldrcs	r3, [r4, #104]	; 0x68
      obqp->bcounter--;
 8001660:	6d22      	ldr	r2, [r4, #80]	; 0x50
        obqp->bwrptr = obqp->buffers;
 8001662:	bf28      	it	cs
 8001664:	6563      	strcs	r3, [r4, #84]	; 0x54
      }

      /* No "current" buffer.*/
      obqp->ptr = NULL;
 8001666:	2300      	movs	r3, #0
      obqp->bcounter--;
 8001668:	3a01      	subs	r2, #1
    uint8_t *buf = obqGetFullBufferI(&sdup->obqueue, &n);
 800166a:	a901      	add	r1, sp, #4
 800166c:	4807      	ldr	r0, [pc, #28]	; (800168c <sof_handler+0x8c>)
 800166e:	6522      	str	r2, [r4, #80]	; 0x50
      obqp->ptr = NULL;
 8001670:	66e3      	str	r3, [r4, #108]	; 0x6c
 8001672:	f7ff ff8d 	bl	8001590 <obqGetFullBufferI>
    usbStartTransmitI(sdup->config->usbp, sdup->config->bulk_in, buf, n);
 8001676:	f8d4 348c 	ldr.w	r3, [r4, #1164]	; 0x48c
 800167a:	4602      	mov	r2, r0
 800167c:	7919      	ldrb	r1, [r3, #4]
 800167e:	6818      	ldr	r0, [r3, #0]
 8001680:	9b01      	ldr	r3, [sp, #4]
 8001682:	f7ff fed5 	bl	8001430 <usbStartTransmitI>
 8001686:	e7c7      	b.n	8001618 <sof_handler+0x18>
 8001688:	20000b34 	.word	0x20000b34
 800168c:	20000b78 	.word	0x20000b78

08001690 <_port_irq_epilogue>:
 8001690:	2320      	movs	r3, #32
 8001692:	f383 8811 	msr	BASEPRI, r3
 * @brief   Exception exit redirection to _port_switch_from_isr().
 */
void _port_irq_epilogue(void) {

  port_lock_from_isr();
  if ((SCB->ICSR & SCB_ICSR_RETTOBASE_Msk) != 0U) {
 8001696:	4b0f      	ldr	r3, [pc, #60]	; (80016d4 <_port_irq_epilogue+0x44>)
 8001698:	685b      	ldr	r3, [r3, #4]
 800169a:	f413 6300 	ands.w	r3, r3, #2048	; 0x800
 800169e:	d102      	bne.n	80016a6 <_port_irq_epilogue+0x16>
 80016a0:	f383 8811 	msr	BASEPRI, r3
    /* Note, returning without unlocking is intentional, this is done in
       order to keep the rest of the context switch atomic.*/
    return;
  }
  port_unlock_from_isr();
}
 80016a4:	4770      	bx	lr
  __ASM volatile ("MRS %0, psp"  : "=r" (result) );
 80016a6:	f3ef 8309 	mrs	r3, PSP
    ctxp->xpsr = (regarm_t)0x01000000;
 80016aa:	f04f 7180 	mov.w	r1, #16777216	; 0x1000000
    ctxp--;
 80016ae:	f1a3 0220 	sub.w	r2, r3, #32
    ctxp->xpsr = (regarm_t)0x01000000;
 80016b2:	f843 1c04 	str.w	r1, [r3, #-4]
  __ASM volatile ("MSR psp, %0" : : "r" (topOfProcStack) : );
 80016b6:	f382 8809 	msr	PSP, r2
 * @retval false        if preemption is not required.
 *
 * @special
 */
bool chSchIsPreemptionRequired(void) {
  tprio_t p1 = firstprio(&ch.rlist.queue);
 80016ba:	4a07      	ldr	r2, [pc, #28]	; (80016d8 <_port_irq_epilogue+0x48>)
 80016bc:	6811      	ldr	r1, [r2, #0]
  tprio_t p2 = currp->prio;
 80016be:	6992      	ldr	r2, [r2, #24]
    if (chSchIsPreemptionRequired()) {
 80016c0:	6889      	ldr	r1, [r1, #8]
 80016c2:	6892      	ldr	r2, [r2, #8]
 80016c4:	4291      	cmp	r1, r2
      ctxp->pc = (regarm_t)_port_switch_from_isr;
 80016c6:	bf8c      	ite	hi
 80016c8:	4a04      	ldrhi	r2, [pc, #16]	; (80016dc <_port_irq_epilogue+0x4c>)
      ctxp->pc = (regarm_t)_port_exit_from_isr;
 80016ca:	4a05      	ldrls	r2, [pc, #20]	; (80016e0 <_port_irq_epilogue+0x50>)
 80016cc:	f843 2c08 	str.w	r2, [r3, #-8]
 80016d0:	4770      	bx	lr
 80016d2:	bf00      	nop
 80016d4:	e000ed00 	.word	0xe000ed00
 80016d8:	200012d0 	.word	0x200012d0
 80016dc:	08000261 	.word	0x08000261
 80016e0:	08000264 	.word	0x08000264
	...

080016f0 <chCoreAllocAlignedI>:
 * @return              A pointer to the allocated memory block.
 * @retval NULL         allocation failed, core memory exhausted.
 *
 * @iclass
 */
static inline void *chCoreAllocAlignedI(size_t size, unsigned align) {
 80016f0:	b4f0      	push	{r4, r5, r6, r7}
  p = (uint8_t *)MEM_ALIGN_NEXT(ch_memcore.nextmem + offset, align);
 80016f2:	4d0b      	ldr	r5, [pc, #44]	; (8001720 <chCoreAllocAlignedI+0x30>)
  size = MEM_ALIGN_NEXT(size, align);
 80016f4:	1e4a      	subs	r2, r1, #1
  p = (uint8_t *)MEM_ALIGN_NEXT(ch_memcore.nextmem + offset, align);
 80016f6:	682f      	ldr	r7, [r5, #0]
  size = MEM_ALIGN_NEXT(size, align);
 80016f8:	424e      	negs	r6, r1
  p = (uint8_t *)MEM_ALIGN_NEXT(ch_memcore.nextmem + offset, align);
 80016fa:	1e7c      	subs	r4, r7, #1
  size = MEM_ALIGN_NEXT(size, align);
 80016fc:	1813      	adds	r3, r2, r0
  p = (uint8_t *)MEM_ALIGN_NEXT(ch_memcore.nextmem + offset, align);
 80016fe:	4421      	add	r1, r4
 8001700:	ea01 0006 	and.w	r0, r1, r6
  size = MEM_ALIGN_NEXT(size, align);
 8001704:	4033      	ands	r3, r6
  if ((next > ch_memcore.endmem) || (next < ch_memcore.nextmem)) {
 8001706:	686a      	ldr	r2, [r5, #4]
  next = p + size;
 8001708:	4403      	add	r3, r0
  if ((next > ch_memcore.endmem) || (next < ch_memcore.nextmem)) {
 800170a:	4293      	cmp	r3, r2
 800170c:	d804      	bhi.n	8001718 <chCoreAllocAlignedI+0x28>
 800170e:	429f      	cmp	r7, r3
 8001710:	d802      	bhi.n	8001718 <chCoreAllocAlignedI+0x28>
  ch_memcore.nextmem = next;
 8001712:	602b      	str	r3, [r5, #0]

  return chCoreAllocAlignedWithOffsetI(size, align, 0U);
}
 8001714:	bcf0      	pop	{r4, r5, r6, r7}
 8001716:	4770      	bx	lr
    return NULL;
 8001718:	2000      	movs	r0, #0
 800171a:	bcf0      	pop	{r4, r5, r6, r7}
 800171c:	4770      	bx	lr
 800171e:	bf00      	nop
 8001720:	20001460 	.word	0x20001460
	...

08001730 <chPoolAlloc>:
 * @return              The pointer to the allocated object.
 * @retval NULL         if pool is empty.
 *
 * @api
 */
void *chPoolAlloc(memory_pool_t *mp) {
 8001730:	b508      	push	{r3, lr}
  __ASM volatile ("MSR basepri, %0" : : "r" (basePri) : "memory");
 8001732:	2220      	movs	r2, #32
 8001734:	4603      	mov	r3, r0
 8001736:	f382 8811 	msr	BASEPRI, r2
  objp = mp->next;
 800173a:	6800      	ldr	r0, [r0, #0]
  if (objp != NULL) {
 800173c:	b128      	cbz	r0, 800174a <chPoolAlloc+0x1a>
    mp->next = mp->next->next;
 800173e:	6802      	ldr	r2, [r0, #0]
 8001740:	601a      	str	r2, [r3, #0]
 8001742:	2300      	movs	r3, #0
 8001744:	f383 8811 	msr	BASEPRI, r3
  chSysLock();
  objp = chPoolAllocI(mp);
  chSysUnlock();

  return objp;
}
 8001748:	bd08      	pop	{r3, pc}
  else if (mp->provider != NULL) {
 800174a:	68da      	ldr	r2, [r3, #12]
 800174c:	2a00      	cmp	r2, #0
 800174e:	d0f8      	beq.n	8001742 <chPoolAlloc+0x12>
    objp = mp->provider(mp->object_size, mp->align);
 8001750:	e9d3 0101 	ldrd	r0, r1, [r3, #4]
 8001754:	4790      	blx	r2
 8001756:	2300      	movs	r3, #0
 8001758:	f383 8811 	msr	BASEPRI, r3
}
 800175c:	bd08      	pop	{r3, pc}
 800175e:	bf00      	nop

08001760 <oslib_test_002_001_execute>:
  test_set_step(1);
 8001760:	2101      	movs	r1, #1
static void oslib_test_002_001_execute(void) {
 8001762:	e92d 41f0 	stmdb	sp!, {r4, r5, r6, r7, r8, lr}
  test_set_step(1);
 8001766:	2204      	movs	r2, #4
 8001768:	2520      	movs	r5, #32
 800176a:	2000      	movs	r0, #0
 800176c:	4e38      	ldr	r6, [pc, #224]	; (8001850 <oslib_test_002_001_execute+0xf0>)
 800176e:	4b39      	ldr	r3, [pc, #228]	; (8001854 <oslib_test_002_001_execute+0xf4>)
 8001770:	4c39      	ldr	r4, [pc, #228]	; (8001858 <oslib_test_002_001_execute+0xf8>)
 8001772:	6031      	str	r1, [r6, #0]
 8001774:	f385 8811 	msr	BASEPRI, r5
  chDbgCheck((mp != NULL) && (objp != NULL));

  chDbgAssert(((size_t)objp & MEM_ALIGN_MASK(mp->align)) == 0U,
              "unaligned object");

  php->next = mp->next;
 8001778:	6821      	ldr	r1, [r4, #0]
  mp->next = php;
 800177a:	6023      	str	r3, [r4, #0]
  php->next = mp->next;
 800177c:	6019      	str	r1, [r3, #0]
 800177e:	f380 8811 	msr	BASEPRI, r0
    p = (void *)(((uint8_t *)p) + mp->object_size);
 8001782:	6861      	ldr	r1, [r4, #4]
  while (n != 0U) {
 8001784:	3a01      	subs	r2, #1
    p = (void *)(((uint8_t *)p) + mp->object_size);
 8001786:	440b      	add	r3, r1
  while (n != 0U) {
 8001788:	d1f4      	bne.n	8001774 <oslib_test_002_001_execute+0x14>
  test_set_step(2);
 800178a:	2302      	movs	r3, #2
 800178c:	2504      	movs	r5, #4
      test_assert(chPoolAlloc(&mp1) != NULL, "list empty");
 800178e:	f8df 80c8 	ldr.w	r8, [pc, #200]	; 8001858 <oslib_test_002_001_execute+0xf8>
 8001792:	4f32      	ldr	r7, [pc, #200]	; (800185c <oslib_test_002_001_execute+0xfc>)
  test_set_step(2);
 8001794:	6033      	str	r3, [r6, #0]
      test_assert(chPoolAlloc(&mp1) != NULL, "list empty");
 8001796:	4640      	mov	r0, r8
 8001798:	f7ff ffca 	bl	8001730 <chPoolAlloc>
 800179c:	3000      	adds	r0, #0
 800179e:	bf18      	it	ne
 80017a0:	2001      	movne	r0, #1
 80017a2:	4639      	mov	r1, r7
 80017a4:	f7ff f8d4 	bl	8000950 <_test_assert>
 80017a8:	2800      	cmp	r0, #0
 80017aa:	d13b      	bne.n	8001824 <oslib_test_002_001_execute+0xc4>
    for (i = 0; i < MEMORY_POOL_SIZE; i++)
 80017ac:	3d01      	subs	r5, #1
 80017ae:	d1f2      	bne.n	8001796 <oslib_test_002_001_execute+0x36>
  test_set_step(3);
 80017b0:	2303      	movs	r3, #3
    test_assert(chPoolAlloc(&mp1) == NULL, "list not empty");
 80017b2:	4829      	ldr	r0, [pc, #164]	; (8001858 <oslib_test_002_001_execute+0xf8>)
  test_set_step(3);
 80017b4:	6033      	str	r3, [r6, #0]
    test_assert(chPoolAlloc(&mp1) == NULL, "list not empty");
 80017b6:	f7ff ffbb 	bl	8001730 <chPoolAlloc>
 80017ba:	fab0 f080 	clz	r0, r0
 80017be:	4928      	ldr	r1, [pc, #160]	; (8001860 <oslib_test_002_001_execute+0x100>)
 80017c0:	0940      	lsrs	r0, r0, #5
 80017c2:	f7ff f8c5 	bl	8000950 <_test_assert>
 80017c6:	bb68      	cbnz	r0, 8001824 <oslib_test_002_001_execute+0xc4>
  test_set_step(4);
 80017c8:	2204      	movs	r2, #4
 80017ca:	2720      	movs	r7, #32
 80017cc:	4b21      	ldr	r3, [pc, #132]	; (8001854 <oslib_test_002_001_execute+0xf4>)
 80017ce:	6032      	str	r2, [r6, #0]
 80017d0:	f103 0010 	add.w	r0, r3, #16
 80017d4:	f387 8811 	msr	BASEPRI, r7
  php->next = mp->next;
 80017d8:	6822      	ldr	r2, [r4, #0]
  mp->next = php;
 80017da:	6023      	str	r3, [r4, #0]
  php->next = mp->next;
 80017dc:	f843 2b04 	str.w	r2, [r3], #4
 80017e0:	f385 8811 	msr	BASEPRI, r5
    for (i = 0; i < MEMORY_POOL_SIZE; i++)
 80017e4:	4298      	cmp	r0, r3
 80017e6:	d1f5      	bne.n	80017d4 <oslib_test_002_001_execute+0x74>
  test_set_step(5);
 80017e8:	2305      	movs	r3, #5
 80017ea:	2504      	movs	r5, #4
      test_assert(chPoolAlloc(&mp1) != NULL, "list empty");
 80017ec:	f8df 8068 	ldr.w	r8, [pc, #104]	; 8001858 <oslib_test_002_001_execute+0xf8>
 80017f0:	4f1a      	ldr	r7, [pc, #104]	; (800185c <oslib_test_002_001_execute+0xfc>)
  test_set_step(5);
 80017f2:	6033      	str	r3, [r6, #0]
      test_assert(chPoolAlloc(&mp1) != NULL, "list empty");
 80017f4:	4640      	mov	r0, r8
 80017f6:	f7ff ff9b 	bl	8001730 <chPoolAlloc>
 80017fa:	3000      	adds	r0, #0
 80017fc:	bf18      	it	ne
 80017fe:	2001      	movne	r0, #1
 8001800:	4639      	mov	r1, r7
 8001802:	f7ff f8a5 	bl	8000950 <_test_assert>
 8001806:	b968      	cbnz	r0, 8001824 <oslib_test_002_001_execute+0xc4>
    for (i = 0; i < MEMORY_POOL_SIZE; i++)
 8001808:	3d01      	subs	r5, #1
 800180a:	d1f3      	bne.n	80017f4 <oslib_test_002_001_execute+0x94>
  test_set_step(6);
 800180c:	2306      	movs	r3, #6
    test_assert(chPoolAlloc(&mp1) == NULL, "list not empty");
 800180e:	4812      	ldr	r0, [pc, #72]	; (8001858 <oslib_test_002_001_execute+0xf8>)
  test_set_step(6);
 8001810:	6033      	str	r3, [r6, #0]
    test_assert(chPoolAlloc(&mp1) == NULL, "list not empty");
 8001812:	f7ff ff8d 	bl	8001730 <chPoolAlloc>
 8001816:	fab0 f080 	clz	r0, r0
 800181a:	4911      	ldr	r1, [pc, #68]	; (8001860 <oslib_test_002_001_execute+0x100>)
 800181c:	0940      	lsrs	r0, r0, #5
 800181e:	f7ff f897 	bl	8000950 <_test_assert>
 8001822:	b108      	cbz	r0, 8001828 <oslib_test_002_001_execute+0xc8>
}
 8001824:	e8bd 81f0 	ldmia.w	sp!, {r4, r5, r6, r7, r8, pc}
  test_set_step(7);
 8001828:	2107      	movs	r1, #7
  mp->object_size = size;
 800182a:	2304      	movs	r3, #4
  mp->provider = provider;
 800182c:	4a0d      	ldr	r2, [pc, #52]	; (8001864 <oslib_test_002_001_execute+0x104>)
    test_assert(chPoolAlloc(&mp1) == NULL, "provider returned memory");
 800182e:	480a      	ldr	r0, [pc, #40]	; (8001858 <oslib_test_002_001_execute+0xf8>)
  test_set_step(7);
 8001830:	6031      	str	r1, [r6, #0]
  mp->next = NULL;
 8001832:	6025      	str	r5, [r4, #0]
  mp->align = align;
 8001834:	e9c4 3301 	strd	r3, r3, [r4, #4]
  mp->provider = provider;
 8001838:	60e2      	str	r2, [r4, #12]
    test_assert(chPoolAlloc(&mp1) == NULL, "provider returned memory");
 800183a:	f7ff ff79 	bl	8001730 <chPoolAlloc>
}
 800183e:	e8bd 41f0 	ldmia.w	sp!, {r4, r5, r6, r7, r8, lr}
    test_assert(chPoolAlloc(&mp1) == NULL, "provider returned memory");
 8001842:	fab0 f080 	clz	r0, r0
 8001846:	4908      	ldr	r1, [pc, #32]	; (8001868 <oslib_test_002_001_execute+0x108>)
 8001848:	0940      	lsrs	r0, r0, #5
 800184a:	f7ff b881 	b.w	8000950 <_test_assert>
 800184e:	bf00      	nop
 8001850:	20001c5c 	.word	0x20001c5c
 8001854:	20001518 	.word	0x20001518
 8001858:	20000888 	.word	0x20000888
 800185c:	0800a4a0 	.word	0x0800a4a0
 8001860:	0800a4ac 	.word	0x0800a4ac
 8001864:	080006b1 	.word	0x080006b1
 8001868:	0800a4bc 	.word	0x0800a4bc
 800186c:	00000000 	.word	0x00000000

08001870 <chEvtAddEvents>:
 8001870:	2320      	movs	r3, #32
 8001872:	f383 8811 	msr	BASEPRI, r3
 *
 * @iclass
 */
static inline eventmask_t chEvtAddEventsI(eventmask_t events) {

  return currp->epending |= events;
 8001876:	4b04      	ldr	r3, [pc, #16]	; (8001888 <chEvtAddEvents+0x18>)
 8001878:	2200      	movs	r2, #0
 800187a:	699b      	ldr	r3, [r3, #24]
 800187c:	6b59      	ldr	r1, [r3, #52]	; 0x34
 800187e:	4308      	orrs	r0, r1
 8001880:	6358      	str	r0, [r3, #52]	; 0x34
 8001882:	f382 8811 	msr	BASEPRI, r2
}
 8001886:	4770      	bx	lr
 8001888:	200012d0 	.word	0x200012d0
 800188c:	00000000 	.word	0x00000000

08001890 <chEvtUnregister>:
 8001890:	2320      	movs	r3, #32
 8001892:	f383 8811 	msr	BASEPRI, r3
  p = (event_listener_t *)esp;
 8001896:	4602      	mov	r2, r0
 8001898:	e002      	b.n	80018a0 <chEvtUnregister+0x10>
    if (p->next == elp) {
 800189a:	428b      	cmp	r3, r1
 800189c:	d007      	beq.n	80018ae <chEvtUnregister+0x1e>
 800189e:	461a      	mov	r2, r3
  while (p->next != (event_listener_t *)esp) {
 80018a0:	6813      	ldr	r3, [r2, #0]
 80018a2:	4283      	cmp	r3, r0
 80018a4:	d1f9      	bne.n	800189a <chEvtUnregister+0xa>
 80018a6:	2300      	movs	r3, #0
 80018a8:	f383 8811 	msr	BASEPRI, r3
}
 80018ac:	4770      	bx	lr
      p->next = elp->next;
 80018ae:	680b      	ldr	r3, [r1, #0]
 80018b0:	6013      	str	r3, [r2, #0]
 80018b2:	2300      	movs	r3, #0
 80018b4:	f383 8811 	msr	BASEPRI, r3
}
 80018b8:	4770      	bx	lr
 80018ba:	bf00      	nop
 80018bc:	0000      	movs	r0, r0
	...

080018c0 <rt_test_008_001_execute>:
  test_set_step(2);
 80018c0:	2002      	movs	r0, #2
static void rt_test_008_001_execute(void) {
 80018c2:	e92d 47f0 	stmdb	sp!, {r4, r5, r6, r7, r8, r9, sl, lr}
  test_set_step(2);
 80018c6:	f8df 90ec 	ldr.w	r9, [pc, #236]	; 80019b4 <rt_test_008_001_execute+0xf4>
  esp->next = (event_listener_t *)esp;
 80018ca:	4c36      	ldr	r4, [pc, #216]	; (80019a4 <rt_test_008_001_execute+0xe4>)
static void rt_test_008_001_execute(void) {
 80018cc:	b08c      	sub	sp, #48	; 0x30
  test_set_step(2);
 80018ce:	f8c9 0000 	str.w	r0, [r9]
 80018d2:	6024      	str	r4, [r4, #0]
 80018d4:	2620      	movs	r6, #32
 80018d6:	f386 8811 	msr	BASEPRI, r6
  elp->events   = events;
 80018da:	2301      	movs	r3, #1
  elp->flags    = (eventflags_t)0;
 80018dc:	2500      	movs	r5, #0
  elp->wflags   = wflags;
 80018de:	f04f 31ff 	mov.w	r1, #4294967295	; 0xffffffff
  elp->listener = currp;
 80018e2:	4a31      	ldr	r2, [pc, #196]	; (80019a8 <rt_test_008_001_execute+0xe8>)
  elp->events   = events;
 80018e4:	9309      	str	r3, [sp, #36]	; 0x24
  elp->next     = esp->next;
 80018e6:	6823      	ldr	r3, [r4, #0]
 80018e8:	af0c      	add	r7, sp, #48	; 0x30
 80018ea:	9301      	str	r3, [sp, #4]
  elp->listener = currp;
 80018ec:	6993      	ldr	r3, [r2, #24]
  elp->wflags   = wflags;
 80018ee:	e9cd 510a 	strd	r5, r1, [sp, #40]	; 0x28
  elp->listener = currp;
 80018f2:	9308      	str	r3, [sp, #32]
  elp->next     = esp->next;
 80018f4:	9b01      	ldr	r3, [sp, #4]
 80018f6:	f847 3d14 	str.w	r3, [r7, #-20]!
  esp->next     = elp;
 80018fa:	6027      	str	r7, [r4, #0]
 80018fc:	f385 8811 	msr	BASEPRI, r5
 8001900:	f386 8811 	msr	BASEPRI, r6
  elp->next     = esp->next;
 8001904:	6823      	ldr	r3, [r4, #0]
 8001906:	f10d 0830 	add.w	r8, sp, #48	; 0x30
  elp->listener = currp;
 800190a:	6992      	ldr	r2, [r2, #24]
  elp->next     = esp->next;
 800190c:	f848 3d28 	str.w	r3, [r8, #-40]!
  elp->listener = currp;
 8001910:	9203      	str	r2, [sp, #12]
  elp->flags    = (eventflags_t)0;
 8001912:	e9cd 0504 	strd	r0, r5, [sp, #16]
  elp->wflags   = wflags;
 8001916:	9106      	str	r1, [sp, #24]
  esp->next     = elp;
 8001918:	f8c4 8000 	str.w	r8, [r4]
 800191c:	f385 8811 	msr	BASEPRI, r5
 8001920:	f386 8811 	msr	BASEPRI, r6
  return (bool)(esp != (event_source_t *)esp->next);
 8001924:	6820      	ldr	r0, [r4, #0]
    test_assert_lock(chEvtIsListeningI(&es1), "no listener");
 8001926:	4921      	ldr	r1, [pc, #132]	; (80019ac <rt_test_008_001_execute+0xec>)
 8001928:	1b00      	subs	r0, r0, r4
 800192a:	bf18      	it	ne
 800192c:	2001      	movne	r0, #1
 800192e:	f7ff f80f 	bl	8000950 <_test_assert>
 8001932:	b120      	cbz	r0, 800193e <rt_test_008_001_execute+0x7e>
 8001934:	f385 8811 	msr	BASEPRI, r5
}
 8001938:	b00c      	add	sp, #48	; 0x30
 800193a:	e8bd 87f0 	ldmia.w	sp!, {r4, r5, r6, r7, r8, r9, sl, pc}
 800193e:	4682      	mov	sl, r0
 8001940:	f380 8811 	msr	BASEPRI, r0
  test_set_step(3);
 8001944:	2303      	movs	r3, #3
    chEvtUnregister(&es1, &el1);
 8001946:	4639      	mov	r1, r7
 8001948:	4620      	mov	r0, r4
  test_set_step(3);
 800194a:	f8c9 3000 	str.w	r3, [r9]
    chEvtUnregister(&es1, &el1);
 800194e:	f7ff ff9f 	bl	8001890 <chEvtUnregister>
 8001952:	f386 8811 	msr	BASEPRI, r6
 8001956:	6820      	ldr	r0, [r4, #0]
    test_assert_lock(chEvtIsListeningI(&es1), "no listener");
 8001958:	4914      	ldr	r1, [pc, #80]	; (80019ac <rt_test_008_001_execute+0xec>)
 800195a:	1b00      	subs	r0, r0, r4
 800195c:	bf18      	it	ne
 800195e:	2001      	movne	r0, #1
 8001960:	f7fe fff6 	bl	8000950 <_test_assert>
 8001964:	4605      	mov	r5, r0
 8001966:	b120      	cbz	r0, 8001972 <rt_test_008_001_execute+0xb2>
 8001968:	f38a 8811 	msr	BASEPRI, sl
}
 800196c:	b00c      	add	sp, #48	; 0x30
 800196e:	e8bd 87f0 	ldmia.w	sp!, {r4, r5, r6, r7, r8, r9, sl, pc}
 8001972:	f380 8811 	msr	BASEPRI, r0
  test_set_step(4);
 8001976:	2304      	movs	r3, #4
    chEvtUnregister(&es1, &el2);
 8001978:	4641      	mov	r1, r8
 800197a:	4620      	mov	r0, r4
  test_set_step(4);
 800197c:	f8c9 3000 	str.w	r3, [r9]
    chEvtUnregister(&es1, &el2);
 8001980:	f7ff ff86 	bl	8001890 <chEvtUnregister>
 8001984:	f386 8811 	msr	BASEPRI, r6
    test_assert_lock(!chEvtIsListeningI(&es1), "stuck listener");
 8001988:	6820      	ldr	r0, [r4, #0]
 800198a:	4909      	ldr	r1, [pc, #36]	; (80019b0 <rt_test_008_001_execute+0xf0>)
 800198c:	1b00      	subs	r0, r0, r4
 800198e:	fab0 f080 	clz	r0, r0
 8001992:	0940      	lsrs	r0, r0, #5
 8001994:	f7fe ffdc 	bl	8000950 <_test_assert>
 8001998:	2800      	cmp	r0, #0
 800199a:	d1cb      	bne.n	8001934 <rt_test_008_001_execute+0x74>
 800199c:	f380 8811 	msr	BASEPRI, r0
 80019a0:	e7ca      	b.n	8001938 <rt_test_008_001_execute+0x78>
 80019a2:	bf00      	nop
 80019a4:	20000814 	.word	0x20000814
 80019a8:	200012d0 	.word	0x200012d0
 80019ac:	0800b4f8 	.word	0x0800b4f8
 80019b0:	0800b504 	.word	0x0800b504
 80019b4:	20001c5c 	.word	0x20001c5c
	...

080019c0 <chThdCreateSuspendedI>:
thread_t *chThdCreateSuspendedI(const thread_descriptor_t *tdp) {
 80019c0:	b4f0      	push	{r4, r5, r6, r7}
  tp->flags     = CH_FLAG_MODE_STATIC;
 80019c2:	2100      	movs	r1, #0
  tp->state     = CH_STATE_WTSTART;
 80019c4:	2702      	movs	r7, #2
  tp->refs      = (trefs_t)1;
 80019c6:	2501      	movs	r5, #1
  tp = (thread_t *)((uint8_t *)tdp->wend -
 80019c8:	6883      	ldr	r3, [r0, #8]
  tp->wabase = tdp->wbase;
 80019ca:	6846      	ldr	r6, [r0, #4]
  PORT_SETUP_CONTEXT(tp, tdp->wbase, tp, tdp->funcp, tdp->arg);
 80019cc:	6904      	ldr	r4, [r0, #16]
  REG_INSERT(tp);
 80019ce:	4a19      	ldr	r2, [pc, #100]	; (8001a34 <chThdCreateSuspendedI+0x74>)
  tp->wabase = tdp->wbase;
 80019d0:	f843 6c2c 	str.w	r6, [r3, #-44]
  PORT_SETUP_CONTEXT(tp, tdp->wbase, tp, tdp->funcp, tdp->arg);
 80019d4:	f843 4c6c 	str.w	r4, [r3, #-108]
  return _thread_init(tp, tdp->name, tdp->prio);
 80019d8:	6806      	ldr	r6, [r0, #0]
  PORT_SETUP_CONTEXT(tp, tdp->wbase, tp, tdp->funcp, tdp->arg);
 80019da:	6944      	ldr	r4, [r0, #20]
  return _thread_init(tp, tdp->name, tdp->prio);
 80019dc:	68c0      	ldr	r0, [r0, #12]
  tp->refs      = (trefs_t)1;
 80019de:	f803 5c26 	strb.w	r5, [r3, #-38]
  tp->flags     = CH_FLAG_MODE_STATIC;
 80019e2:	f803 1c27 	strb.w	r1, [r3, #-39]
  tp->state     = CH_STATE_WTSTART;
 80019e6:	f803 7c28 	strb.w	r7, [r3, #-40]
  REG_INSERT(tp);
 80019ea:	f843 2c38 	str.w	r2, [r3, #-56]
  PORT_SETUP_CONTEXT(tp, tdp->wbase, tp, tdp->funcp, tdp->arg);
 80019ee:	4d12      	ldr	r5, [pc, #72]	; (8001a38 <chThdCreateSuspendedI+0x78>)
 80019f0:	f843 4c68 	str.w	r4, [r3, #-104]
  tp->prio      = prio;
 80019f4:	f843 0c40 	str.w	r0, [r3, #-64]
  REG_INSERT(tp);
 80019f8:	6954      	ldr	r4, [r2, #20]
  tp->realprio  = prio;
 80019fa:	f843 0c0c 	str.w	r0, [r3, #-12]
  PORT_SETUP_CONTEXT(tp, tdp->wbase, tp, tdp->funcp, tdp->arg);
 80019fe:	f1a3 006c 	sub.w	r0, r3, #108	; 0x6c
 8001a02:	f843 0c3c 	str.w	r0, [r3, #-60]
 8001a06:	f843 5c4c 	str.w	r5, [r3, #-76]
  tp = (thread_t *)((uint8_t *)tdp->wend -
 8001a0a:	f1a3 0048 	sub.w	r0, r3, #72	; 0x48
  tp->epending  = (eventmask_t)0;
 8001a0e:	e943 1105 	strd	r1, r1, [r3, #-20]
  list_init(&tp->waiting);
 8001a12:	f1a3 0520 	sub.w	r5, r3, #32
  queue_init(&tp->msgqueue);
 8001a16:	f1a3 011c 	sub.w	r1, r3, #28
  tp->name      = name;
 8001a1a:	f843 6c30 	str.w	r6, [r3, #-48]
  REG_INSERT(tp);
 8001a1e:	f843 4c34 	str.w	r4, [r3, #-52]
 8001a22:	6120      	str	r0, [r4, #16]
 8001a24:	6150      	str	r0, [r2, #20]
  tqp->next = (thread_t *)tqp;
 8001a26:	e943 5108 	strd	r5, r1, [r3, #-32]
}
 8001a2a:	bcf0      	pop	{r4, r5, r6, r7}
  tqp->prev = (thread_t *)tqp;
 8001a2c:	f843 1c18 	str.w	r1, [r3, #-24]
 8001a30:	4770      	bx	lr
 8001a32:	bf00      	nop
 8001a34:	200012d0 	.word	0x200012d0
 8001a38:	08000251 	.word	0x08000251
 8001a3c:	00000000 	.word	0x00000000

08001a40 <wakeup>:
 8001a40:	2320      	movs	r3, #32
 8001a42:	f383 8811 	msr	BASEPRI, r3
  switch (tp->state) {
 8001a46:	f890 3020 	ldrb.w	r3, [r0, #32]
 8001a4a:	2b07      	cmp	r3, #7
 8001a4c:	d80e      	bhi.n	8001a6c <wakeup+0x2c>
 8001a4e:	e8df f003 	tbb	[pc, r3]
 8001a52:	0d28      	.short	0x0d28
 8001a54:	0408240d 	.word	0x0408240d
 8001a58:	080d      	.short	0x080d
    chSemFastSignalI(tp->u.wtsemp);
 8001a5a:	6a42      	ldr	r2, [r0, #36]	; 0x24
 */
static inline void chSemFastSignalI(semaphore_t *sp) {

  chDbgCheckClassI();

  sp->cnt++;
 8001a5c:	6893      	ldr	r3, [r2, #8]
 8001a5e:	3301      	adds	r3, #1
 8001a60:	6093      	str	r3, [r2, #8]
  return tp;
}

static inline thread_t *queue_dequeue(thread_t *tp) {

  tp->queue.prev->queue.next = tp->queue.next;
 8001a62:	e9d0 2300 	ldrd	r2, r3, [r0]
 8001a66:	601a      	str	r2, [r3, #0]
  tp->queue.next->queue.prev = tp->queue.prev;
 8001a68:	6802      	ldr	r2, [r0, #0]
 8001a6a:	6053      	str	r3, [r2, #4]
static void wakeup(void *p) {
 8001a6c:	b410      	push	{r4}
  tp->state = CH_STATE_READY;
 8001a6e:	2200      	movs	r2, #0
  tp->u.rdymsg = MSG_TIMEOUT;
 8001a70:	f04f 34ff 	mov.w	r4, #4294967295	; 0xffffffff
  } while (cp->prio >= tp->prio);
 8001a74:	6881      	ldr	r1, [r0, #8]
  cp = (thread_t *)&ch.rlist.queue;
 8001a76:	4b0d      	ldr	r3, [pc, #52]	; (8001aac <wakeup+0x6c>)
  tp->u.rdymsg = MSG_TIMEOUT;
 8001a78:	6244      	str	r4, [r0, #36]	; 0x24
  tp->state = CH_STATE_READY;
 8001a7a:	f880 2020 	strb.w	r2, [r0, #32]
    cp = cp->queue.next;
 8001a7e:	681b      	ldr	r3, [r3, #0]
  } while (cp->prio >= tp->prio);
 8001a80:	689a      	ldr	r2, [r3, #8]
 8001a82:	428a      	cmp	r2, r1
 8001a84:	d2fb      	bcs.n	8001a7e <wakeup+0x3e>
  tp->queue.prev             = cp->queue.prev;
 8001a86:	685a      	ldr	r2, [r3, #4]
 8001a88:	2100      	movs	r1, #0
 8001a8a:	e9c0 3200 	strd	r3, r2, [r0]
  tp->queue.prev->queue.next = tp;
 8001a8e:	6010      	str	r0, [r2, #0]
  cp->queue.prev             = tp;
 8001a90:	6058      	str	r0, [r3, #4]
 8001a92:	f381 8811 	msr	BASEPRI, r1
}
 8001a96:	bc10      	pop	{r4}
 8001a98:	4770      	bx	lr
    *tp->u.wttrp = NULL;
 8001a9a:	2200      	movs	r2, #0
 8001a9c:	6a43      	ldr	r3, [r0, #36]	; 0x24
 8001a9e:	601a      	str	r2, [r3, #0]
 8001aa0:	e7e4      	b.n	8001a6c <wakeup+0x2c>
 8001aa2:	2300      	movs	r3, #0
 8001aa4:	f383 8811 	msr	BASEPRI, r3
 8001aa8:	4770      	bx	lr
 8001aaa:	bf00      	nop
 8001aac:	200012d0 	.word	0x200012d0

08001ab0 <chSchReadyI>:
thread_t *chSchReadyI(thread_t *tp) {
 8001ab0:	4601      	mov	r1, r0
  tp->state = CH_STATE_READY;
 8001ab2:	2200      	movs	r2, #0
  cp = (thread_t *)&ch.rlist.queue;
 8001ab4:	4b07      	ldr	r3, [pc, #28]	; (8001ad4 <chSchReadyI+0x24>)
  } while (cp->prio >= tp->prio);
 8001ab6:	6880      	ldr	r0, [r0, #8]
  tp->state = CH_STATE_READY;
 8001ab8:	f881 2020 	strb.w	r2, [r1, #32]
    cp = cp->queue.next;
 8001abc:	681b      	ldr	r3, [r3, #0]
  } while (cp->prio >= tp->prio);
 8001abe:	689a      	ldr	r2, [r3, #8]
 8001ac0:	4282      	cmp	r2, r0
 8001ac2:	d2fb      	bcs.n	8001abc <chSchReadyI+0xc>
  tp->queue.prev             = cp->queue.prev;
 8001ac4:	685a      	ldr	r2, [r3, #4]
}
 8001ac6:	4608      	mov	r0, r1
  tp->queue.prev             = cp->queue.prev;
 8001ac8:	e9c1 3200 	strd	r3, r2, [r1]
  tp->queue.prev->queue.next = tp;
 8001acc:	6011      	str	r1, [r2, #0]
  cp->queue.prev             = tp;
 8001ace:	6059      	str	r1, [r3, #4]
}
 8001ad0:	4770      	bx	lr
 8001ad2:	bf00      	nop
 8001ad4:	200012d0 	.word	0x200012d0
	...

08001ae0 <chThdDequeueNextI.constprop.101>:
  return (bool)(tqp->next != (const thread_t *)tqp);
 8001ae0:	6802      	ldr	r2, [r0, #0]
 *
 * @iclass
 */
void chThdDequeueNextI(threads_queue_t *tqp, msg_t msg) {

  if (queue_notempty(tqp)) {
 8001ae2:	4290      	cmp	r0, r2
 8001ae4:	d00a      	beq.n	8001afc <chThdDequeueNextI.constprop.101+0x1c>
void chThdDequeueNextI(threads_queue_t *tqp, msg_t msg) {
 8001ae6:	b410      	push	{r4}
 8001ae8:	4603      	mov	r3, r0

  tp = queue_fifo_remove(tqp);

  chDbgAssert(tp->state == CH_STATE_QUEUED, "invalid state");

  tp->u.rdymsg = msg;
 8001aea:	2400      	movs	r4, #0
  tqp->next             = tp->queue.next;
 8001aec:	6811      	ldr	r1, [r2, #0]
  (void) chSchReadyI(tp);
 8001aee:	4610      	mov	r0, r2
 8001af0:	6019      	str	r1, [r3, #0]
  tqp->next->queue.prev = (thread_t *)tqp;
 8001af2:	604b      	str	r3, [r1, #4]
  tp->u.rdymsg = msg;
 8001af4:	6254      	str	r4, [r2, #36]	; 0x24
    chThdDoDequeueNextI(tqp, msg);
  }
}
 8001af6:	bc10      	pop	{r4}
  (void) chSchReadyI(tp);
 8001af8:	f7ff bfda 	b.w	8001ab0 <chSchReadyI>
 8001afc:	4770      	bx	lr
 8001afe:	bf00      	nop

08001b00 <chMBPostI.constprop.69>:

  chDbgCheckClassI();
  chDbgCheck(mbp != NULL);

  /* If the mailbox is in reset state then returns immediately.*/
  if (mbp->reset) {
 8001b00:	4b0f      	ldr	r3, [pc, #60]	; (8001b40 <chMBPostI.constprop.69+0x40>)
 8001b02:	7d1a      	ldrb	r2, [r3, #20]
 8001b04:	b9aa      	cbnz	r2, 8001b32 <chMBPostI.constprop.69+0x32>
 8001b06:	691a      	ldr	r2, [r3, #16]
msg_t chMBPostI(mailbox_t *mbp, msg_t msg) {
 8001b08:	b570      	push	{r4, r5, r6, lr}
 8001b0a:	e9d3 6100 	ldrd	r6, r1, [r3]
 */
static inline size_t chMBGetSizeI(const mailbox_t *mbp) {

  /*lint -save -e9033 [10.8] Perfectly safe pointers
    arithmetic.*/
  return (size_t)(mbp->top - mbp->buffer);
 8001b0e:	1b8c      	subs	r4, r1, r6
    return MSG_RESET;
  }

  /* Is there a free message slot in queue? if so then post.*/
  if (chMBGetFreeCountI(mbp) > (size_t)0) {
 8001b10:	ebb2 0fa4 	cmp.w	r2, r4, asr #2
 8001b14:	d010      	beq.n	8001b38 <chMBPostI.constprop.69+0x38>
    *mbp->wrptr++ = msg;
 8001b16:	689d      	ldr	r5, [r3, #8]
    if (mbp->wrptr >= mbp->top) {
      mbp->wrptr = mbp->buffer;
    }
    mbp->cnt++;
 8001b18:	3201      	adds	r2, #1
    *mbp->wrptr++ = msg;
 8001b1a:	1d2c      	adds	r4, r5, #4
 8001b1c:	609c      	str	r4, [r3, #8]
    if (mbp->wrptr >= mbp->top) {
 8001b1e:	42a1      	cmp	r1, r4
    *mbp->wrptr++ = msg;
 8001b20:	6028      	str	r0, [r5, #0]

    /* If there is a reader waiting then makes it ready.*/
    chThdDequeueNextI(&mbp->qr, MSG_OK);
 8001b22:	4808      	ldr	r0, [pc, #32]	; (8001b44 <chMBPostI.constprop.69+0x44>)
      mbp->wrptr = mbp->buffer;
 8001b24:	bf98      	it	ls
 8001b26:	609e      	strls	r6, [r3, #8]
    mbp->cnt++;
 8001b28:	611a      	str	r2, [r3, #16]
    chThdDequeueNextI(&mbp->qr, MSG_OK);
 8001b2a:	f7ff ffd9 	bl	8001ae0 <chThdDequeueNextI.constprop.101>

    return MSG_OK;
 8001b2e:	2000      	movs	r0, #0
  }

  /* No space, immediate timeout.*/
  return MSG_TIMEOUT;
}
 8001b30:	bd70      	pop	{r4, r5, r6, pc}
    return MSG_RESET;
 8001b32:	f06f 0001 	mvn.w	r0, #1
}
 8001b36:	4770      	bx	lr
  return MSG_TIMEOUT;
 8001b38:	f04f 30ff 	mov.w	r0, #4294967295	; 0xffffffff
}
 8001b3c:	bd70      	pop	{r4, r5, r6, pc}
 8001b3e:	bf00      	nop
 8001b40:	20000860 	.word	0x20000860
 8001b44:	20000880 	.word	0x20000880
	...

08001b50 <chMBPostAheadI.constprop.66>:
 * @retval MSG_TIMEOUT  if the mailbox is full and the message cannot be
 *                      posted.
 *
 * @iclass
 */
msg_t chMBPostAheadI(mailbox_t *mbp, msg_t msg) {
 8001b50:	b538      	push	{r3, r4, r5, lr}

  chDbgCheckClassI();
  chDbgCheck(mbp != NULL);

  /* If the mailbox is in reset state then returns immediately.*/
  if (mbp->reset) {
 8001b52:	4b0f      	ldr	r3, [pc, #60]	; (8001b90 <chMBPostAheadI.constprop.66+0x40>)
 8001b54:	7d1a      	ldrb	r2, [r3, #20]
 8001b56:	b9a2      	cbnz	r2, 8001b82 <chMBPostAheadI.constprop.66+0x32>
 8001b58:	e9d3 4500 	ldrd	r4, r5, [r3]
 8001b5c:	6919      	ldr	r1, [r3, #16]
 8001b5e:	1b2a      	subs	r2, r5, r4
    return MSG_RESET;
  }

  /* Is there a free message slot in queue? if so then post.*/
  if (chMBGetFreeCountI(mbp) > (size_t)0) {
 8001b60:	ebb1 0fa2 	cmp.w	r1, r2, asr #2
 8001b64:	d010      	beq.n	8001b88 <chMBPostAheadI.constprop.66+0x38>
    if (--mbp->rdptr < mbp->buffer) {
 8001b66:	68da      	ldr	r2, [r3, #12]
      mbp->rdptr = mbp->top - 1;
    }
    *mbp->rdptr = msg;
    mbp->cnt++;
 8001b68:	3101      	adds	r1, #1
    if (--mbp->rdptr < mbp->buffer) {
 8001b6a:	3a04      	subs	r2, #4
 8001b6c:	4294      	cmp	r4, r2
      mbp->rdptr = mbp->top - 1;
 8001b6e:	bf88      	it	hi
 8001b70:	1f2a      	subhi	r2, r5, #4
 8001b72:	60da      	str	r2, [r3, #12]
    *mbp->rdptr = msg;
 8001b74:	6010      	str	r0, [r2, #0]

    /* If there is a reader waiting then makes it ready.*/
    chThdDequeueNextI(&mbp->qr, MSG_OK);
 8001b76:	4807      	ldr	r0, [pc, #28]	; (8001b94 <chMBPostAheadI.constprop.66+0x44>)
    mbp->cnt++;
 8001b78:	6119      	str	r1, [r3, #16]
    chThdDequeueNextI(&mbp->qr, MSG_OK);
 8001b7a:	f7ff ffb1 	bl	8001ae0 <chThdDequeueNextI.constprop.101>

    return MSG_OK;
 8001b7e:	2000      	movs	r0, #0
  }

  /* No space, immediate timeout.*/
  return MSG_TIMEOUT;
}
 8001b80:	bd38      	pop	{r3, r4, r5, pc}
    return MSG_RESET;
 8001b82:	f06f 0001 	mvn.w	r0, #1
}
 8001b86:	bd38      	pop	{r3, r4, r5, pc}
  return MSG_TIMEOUT;
 8001b88:	f04f 30ff 	mov.w	r0, #4294967295	; 0xffffffff
}
 8001b8c:	bd38      	pop	{r3, r4, r5, pc}
 8001b8e:	bf00      	nop
 8001b90:	20000860 	.word	0x20000860
 8001b94:	20000880 	.word	0x20000880
	...

08001ba0 <chMBFetchI.constprop.63>:
 * @retval MSG_TIMEOUT  if the mailbox is empty and a message cannot be
 *                      fetched.
 *
 * @iclass
 */
msg_t chMBFetchI(mailbox_t *mbp, msg_t *msgp) {
 8001ba0:	b538      	push	{r3, r4, r5, lr}

  chDbgCheckClassI();
  chDbgCheck((mbp != NULL) && (msgp != NULL));

  /* If the mailbox is in reset state then returns immediately.*/
  if (mbp->reset) {
 8001ba2:	4b0f      	ldr	r3, [pc, #60]	; (8001be0 <chMBFetchI.constprop.63+0x40>)
 8001ba4:	7d1a      	ldrb	r2, [r3, #20]
 8001ba6:	b9a2      	cbnz	r2, 8001bd2 <chMBFetchI.constprop.63+0x32>
 8001ba8:	691a      	ldr	r2, [r3, #16]
    return MSG_RESET;
  }

  /* Is there a message in queue? if so then fetch.*/
  if (chMBGetUsedCountI(mbp) > (size_t)0) {
 8001baa:	b1aa      	cbz	r2, 8001bd8 <chMBFetchI.constprop.63+0x38>
    *msgp = *mbp->rdptr++;
 8001bac:	68dc      	ldr	r4, [r3, #12]
    if (mbp->rdptr >= mbp->top) {
 8001bae:	685d      	ldr	r5, [r3, #4]
    *msgp = *mbp->rdptr++;
 8001bb0:	1d21      	adds	r1, r4, #4
    if (mbp->rdptr >= mbp->top) {
 8001bb2:	42a9      	cmp	r1, r5
    *msgp = *mbp->rdptr++;
 8001bb4:	6824      	ldr	r4, [r4, #0]
 8001bb6:	60d9      	str	r1, [r3, #12]
      mbp->rdptr = mbp->buffer;
 8001bb8:	bf28      	it	cs
 8001bba:	6819      	ldrcs	r1, [r3, #0]
    *msgp = *mbp->rdptr++;
 8001bbc:	6004      	str	r4, [r0, #0]
    }
    mbp->cnt--;
 8001bbe:	f102 32ff 	add.w	r2, r2, #4294967295	; 0xffffffff

    /* If there is a writer waiting then makes it ready.*/
    chThdDequeueNextI(&mbp->qw, MSG_OK);
 8001bc2:	4808      	ldr	r0, [pc, #32]	; (8001be4 <chMBFetchI.constprop.63+0x44>)
      mbp->rdptr = mbp->buffer;
 8001bc4:	bf28      	it	cs
 8001bc6:	60d9      	strcs	r1, [r3, #12]
    mbp->cnt--;
 8001bc8:	611a      	str	r2, [r3, #16]
    chThdDequeueNextI(&mbp->qw, MSG_OK);
 8001bca:	f7ff ff89 	bl	8001ae0 <chThdDequeueNextI.constprop.101>

    return MSG_OK;
 8001bce:	2000      	movs	r0, #0
  }

  /* No message, immediate timeout.*/
  return MSG_TIMEOUT;
}
 8001bd0:	bd38      	pop	{r3, r4, r5, pc}
    return MSG_RESET;
 8001bd2:	f06f 0001 	mvn.w	r0, #1
}
 8001bd6:	bd38      	pop	{r3, r4, r5, pc}
  return MSG_TIMEOUT;
 8001bd8:	f04f 30ff 	mov.w	r0, #4294967295	; 0xffffffff
}
 8001bdc:	bd38      	pop	{r3, r4, r5, pc}
 8001bde:	bf00      	nop
 8001be0:	20000860 	.word	0x20000860
 8001be4:	20000878 	.word	0x20000878
	...

08001bf0 <chCondSignalI.constprop.92>:
  return (bool)(tqp->next != (const thread_t *)tqp);
 8001bf0:	4b07      	ldr	r3, [pc, #28]	; (8001c10 <chCondSignalI.constprop.92+0x20>)
 8001bf2:	681a      	ldr	r2, [r3, #0]
void chCondSignalI(condition_variable_t *cp) {

  chDbgCheckClassI();
  chDbgCheck(cp != NULL);

  if (queue_notempty(&cp->queue)) {
 8001bf4:	429a      	cmp	r2, r3
 8001bf6:	d009      	beq.n	8001c0c <chCondSignalI.constprop.92+0x1c>
void chCondSignalI(condition_variable_t *cp) {
 8001bf8:	b410      	push	{r4}
    thread_t *tp = queue_fifo_remove(&cp->queue);
    tp->u.rdymsg = MSG_OK;
 8001bfa:	2400      	movs	r4, #0
  tqp->next             = tp->queue.next;
 8001bfc:	6811      	ldr	r1, [r2, #0]
    (void) chSchReadyI(tp);
 8001bfe:	4610      	mov	r0, r2
  tqp->next->queue.prev = (thread_t *)tqp;
 8001c00:	604b      	str	r3, [r1, #4]
  tqp->next             = tp->queue.next;
 8001c02:	6019      	str	r1, [r3, #0]
    tp->u.rdymsg = MSG_OK;
 8001c04:	6254      	str	r4, [r2, #36]	; 0x24
  }
}
 8001c06:	bc10      	pop	{r4}
    (void) chSchReadyI(tp);
 8001c08:	f7ff bf52 	b.w	8001ab0 <chSchReadyI>
 8001c0c:	4770      	bx	lr
 8001c0e:	bf00      	nop
 8001c10:	2000080c 	.word	0x2000080c
	...

08001c20 <chEvtSignalI>:
void chEvtSignalI(thread_t *tp, eventmask_t events) {
 8001c20:	4603      	mov	r3, r0
  tp->epending |= events;
 8001c22:	6b42      	ldr	r2, [r0, #52]	; 0x34
  if (((tp->state == CH_STATE_WTOREVT) &&
 8001c24:	f890 0020 	ldrb.w	r0, [r0, #32]
  tp->epending |= events;
 8001c28:	4311      	orrs	r1, r2
  if (((tp->state == CH_STATE_WTOREVT) &&
 8001c2a:	280a      	cmp	r0, #10
  tp->epending |= events;
 8001c2c:	6359      	str	r1, [r3, #52]	; 0x34
  if (((tp->state == CH_STATE_WTOREVT) &&
 8001c2e:	d00a      	beq.n	8001c46 <chEvtSignalI+0x26>
       ((tp->epending & tp->u.ewmask) != (eventmask_t)0)) ||
 8001c30:	280b      	cmp	r0, #11
 8001c32:	d000      	beq.n	8001c36 <chEvtSignalI+0x16>
}
 8001c34:	4770      	bx	lr
       ((tp->epending & tp->u.ewmask) == tp->u.ewmask))) {
 8001c36:	6a5a      	ldr	r2, [r3, #36]	; 0x24
      ((tp->state == CH_STATE_WTANDEVT) &&
 8001c38:	438a      	bics	r2, r1
 8001c3a:	d1fb      	bne.n	8001c34 <chEvtSignalI+0x14>
    tp->u.rdymsg = MSG_OK;
 8001c3c:	2200      	movs	r2, #0
    (void) chSchReadyI(tp);
 8001c3e:	4618      	mov	r0, r3
    tp->u.rdymsg = MSG_OK;
 8001c40:	625a      	str	r2, [r3, #36]	; 0x24
    (void) chSchReadyI(tp);
 8001c42:	f7ff bf35 	b.w	8001ab0 <chSchReadyI>
       ((tp->epending & tp->u.ewmask) != (eventmask_t)0)) ||
 8001c46:	6a5a      	ldr	r2, [r3, #36]	; 0x24
  if (((tp->state == CH_STATE_WTOREVT) &&
 8001c48:	4211      	tst	r1, r2
 8001c4a:	d1f7      	bne.n	8001c3c <chEvtSignalI+0x1c>
 8001c4c:	4770      	bx	lr
 8001c4e:	bf00      	nop

08001c50 <chEvtBroadcastFlagsI>:
void chEvtBroadcastFlagsI(event_source_t *esp, eventflags_t flags) {
 8001c50:	b570      	push	{r4, r5, r6, lr}
  elp = esp->next;
 8001c52:	6804      	ldr	r4, [r0, #0]
  while (elp != (event_listener_t *)esp) {
 8001c54:	42a0      	cmp	r0, r4
 8001c56:	d00f      	beq.n	8001c78 <chEvtBroadcastFlagsI+0x28>
 8001c58:	4606      	mov	r6, r0
 8001c5a:	460d      	mov	r5, r1
    elp->flags |= flags;
 8001c5c:	68e3      	ldr	r3, [r4, #12]
 8001c5e:	432b      	orrs	r3, r5
 8001c60:	60e3      	str	r3, [r4, #12]
    if ((flags == (eventflags_t)0) ||
 8001c62:	b115      	cbz	r5, 8001c6a <chEvtBroadcastFlagsI+0x1a>
        ((elp->flags & elp->wflags) != (eventflags_t)0)) {
 8001c64:	6922      	ldr	r2, [r4, #16]
    if ((flags == (eventflags_t)0) ||
 8001c66:	4213      	tst	r3, r2
 8001c68:	d003      	beq.n	8001c72 <chEvtBroadcastFlagsI+0x22>
      chEvtSignalI(elp->listener, elp->events);
 8001c6a:	e9d4 0101 	ldrd	r0, r1, [r4, #4]
 8001c6e:	f7ff ffd7 	bl	8001c20 <chEvtSignalI>
    elp = elp->next;
 8001c72:	6824      	ldr	r4, [r4, #0]
  while (elp != (event_listener_t *)esp) {
 8001c74:	42a6      	cmp	r6, r4
 8001c76:	d1f1      	bne.n	8001c5c <chEvtBroadcastFlagsI+0xc>
}
 8001c78:	bd70      	pop	{r4, r5, r6, pc}
 8001c7a:	bf00      	nop
 8001c7c:	0000      	movs	r0, r0
	...

08001c80 <sduDataReceived>:
  SerialUSBDriver *sdup = usbp->out_params[ep - 1U];
 8001c80:	3111      	adds	r1, #17
void sduDataReceived(USBDriver *usbp, usbep_t ep) {
 8001c82:	b538      	push	{r3, r4, r5, lr}
  SerialUSBDriver *sdup = usbp->out_params[ep - 1U];
 8001c84:	f850 4021 	ldr.w	r4, [r0, r1, lsl #2]
  if (sdup == NULL) {
 8001c88:	b344      	cbz	r4, 8001cdc <sduDataReceived+0x5c>
 8001c8a:	2320      	movs	r3, #32
 8001c8c:	f383 8811 	msr	BASEPRI, r3
 * @iclass
 */
static inline void osalEventBroadcastFlagsI(event_source_t *esp,
                                            eventflags_t flags) {

  chEvtBroadcastFlagsI(esp, flags);
 8001c90:	2104      	movs	r1, #4
 8001c92:	1860      	adds	r0, r4, r1
 8001c94:	f7ff ffdc 	bl	8001c50 <chEvtBroadcastFlagsI>
                     usbGetReceiveTransactionSizeX(sdup->config->usbp,
 8001c98:	f8d4 148c 	ldr.w	r1, [r4, #1164]	; 0x48c
  *((size_t *)ibqp->bwrptr) = size;
 8001c9c:	69e3      	ldr	r3, [r4, #28]
 8001c9e:	7948      	ldrb	r0, [r1, #5]
 8001ca0:	680a      	ldr	r2, [r1, #0]
  if (ibqp->bwrptr >= ibqp->btop) {
 8001ca2:	6a61      	ldr	r1, [r4, #36]	; 0x24
 8001ca4:	eb02 0280 	add.w	r2, r2, r0, lsl #2
 8001ca8:	68d2      	ldr	r2, [r2, #12]
  ibqPostFullBufferI(&sdup->ibqueue,
 8001caa:	f104 000c 	add.w	r0, r4, #12
 8001cae:	6992      	ldr	r2, [r2, #24]
 8001cb0:	6852      	ldr	r2, [r2, #4]
  *((size_t *)ibqp->bwrptr) = size;
 8001cb2:	601a      	str	r2, [r3, #0]
  ibqp->bwrptr += ibqp->bsize;
 8001cb4:	6aa5      	ldr	r5, [r4, #40]	; 0x28
  ibqp->bcounter++;
 8001cb6:	69a2      	ldr	r2, [r4, #24]
  ibqp->bwrptr += ibqp->bsize;
 8001cb8:	442b      	add	r3, r5
  if (ibqp->bwrptr >= ibqp->btop) {
 8001cba:	428b      	cmp	r3, r1
  ibqp->bwrptr += ibqp->bsize;
 8001cbc:	61e3      	str	r3, [r4, #28]
    ibqp->bwrptr = ibqp->buffers;
 8001cbe:	bf28      	it	cs
 8001cc0:	6b23      	ldrcs	r3, [r4, #48]	; 0x30
  ibqp->bcounter++;
 8001cc2:	f102 0201 	add.w	r2, r2, #1
    ibqp->bwrptr = ibqp->buffers;
 8001cc6:	bf28      	it	cs
 8001cc8:	61e3      	strcs	r3, [r4, #28]
  ibqp->bcounter++;
 8001cca:	61a2      	str	r2, [r4, #24]
  chThdDequeueNextI(tqp, msg);
 8001ccc:	f7ff ff08 	bl	8001ae0 <chThdDequeueNextI.constprop.101>
  (void) sdu_start_receive(sdup);
 8001cd0:	4620      	mov	r0, r4
 8001cd2:	f7ff fc1d 	bl	8001510 <sdu_start_receive>
 8001cd6:	2300      	movs	r3, #0
 8001cd8:	f383 8811 	msr	BASEPRI, r3
}
 8001cdc:	bd38      	pop	{r3, r4, r5, pc}
 8001cde:	bf00      	nop

08001ce0 <sduDataTransmitted>:
void sduDataTransmitted(USBDriver *usbp, usbep_t ep) {
 8001ce0:	e92d 41f0 	stmdb	sp!, {r4, r5, r6, r7, r8, lr}
  SerialUSBDriver *sdup = usbp->in_params[ep - 1U];
 8001ce4:	eb00 0381 	add.w	r3, r0, r1, lsl #2
 8001ce8:	6a9c      	ldr	r4, [r3, #40]	; 0x28
void sduDataTransmitted(USBDriver *usbp, usbep_t ep) {
 8001cea:	b082      	sub	sp, #8
  if (sdup == NULL) {
 8001cec:	b1f4      	cbz	r4, 8001d2c <sduDataTransmitted+0x4c>
 8001cee:	460e      	mov	r6, r1
 8001cf0:	4605      	mov	r5, r0
 8001cf2:	2320      	movs	r3, #32
 8001cf4:	f383 8811 	msr	BASEPRI, r3
  chEvtBroadcastFlagsI(esp, flags);
 8001cf8:	2108      	movs	r1, #8
 8001cfa:	1d20      	adds	r0, r4, #4
 8001cfc:	eb05 0786 	add.w	r7, r5, r6, lsl #2
 8001d00:	f7ff ffa6 	bl	8001c50 <chEvtBroadcastFlagsI>
  if (usbp->epc[ep]->in_state->txsize > 0U) {
 8001d04:	68fb      	ldr	r3, [r7, #12]
 8001d06:	f104 0844 	add.w	r8, r4, #68	; 0x44
 8001d0a:	695b      	ldr	r3, [r3, #20]
 8001d0c:	681b      	ldr	r3, [r3, #0]
 8001d0e:	bb03      	cbnz	r3, 8001d52 <sduDataTransmitted+0x72>
  buf = obqGetFullBufferI(&sdup->obqueue, &n);
 8001d10:	4640      	mov	r0, r8
 8001d12:	a901      	add	r1, sp, #4
 8001d14:	f7ff fc3c 	bl	8001590 <obqGetFullBufferI>
  if (buf != NULL) {
 8001d18:	b158      	cbz	r0, 8001d32 <sduDataTransmitted+0x52>
    usbStartTransmitI(usbp, ep, buf, n);
 8001d1a:	4602      	mov	r2, r0
 8001d1c:	4631      	mov	r1, r6
 8001d1e:	4628      	mov	r0, r5
 8001d20:	9b01      	ldr	r3, [sp, #4]
 8001d22:	f7ff fb85 	bl	8001430 <usbStartTransmitI>
 8001d26:	2300      	movs	r3, #0
 8001d28:	f383 8811 	msr	BASEPRI, r3
}
 8001d2c:	b002      	add	sp, #8
 8001d2e:	e8bd 81f0 	ldmia.w	sp!, {r4, r5, r6, r7, r8, pc}
  else if ((usbp->epc[ep]->in_state->txsize > 0U) &&
 8001d32:	68fb      	ldr	r3, [r7, #12]
 8001d34:	695a      	ldr	r2, [r3, #20]
 8001d36:	6812      	ldr	r2, [r2, #0]
 8001d38:	2a00      	cmp	r2, #0
 8001d3a:	d0f4      	beq.n	8001d26 <sduDataTransmitted+0x46>
            ((size_t)usbp->epc[ep]->in_maxsize - 1U)) == 0U)) {
 8001d3c:	8a1b      	ldrh	r3, [r3, #16]
 8001d3e:	3b01      	subs	r3, #1
  else if ((usbp->epc[ep]->in_state->txsize > 0U) &&
 8001d40:	4013      	ands	r3, r2
 8001d42:	d1f0      	bne.n	8001d26 <sduDataTransmitted+0x46>
    usbStartTransmitI(usbp, ep, usbp->setup, 0);
 8001d44:	4631      	mov	r1, r6
 8001d46:	f105 0274 	add.w	r2, r5, #116	; 0x74
 8001d4a:	4628      	mov	r0, r5
 8001d4c:	f7ff fb70 	bl	8001430 <usbStartTransmitI>
 8001d50:	e7e9      	b.n	8001d26 <sduDataTransmitted+0x46>
  obqp->brdptr += obqp->bsize;
 8001d52:	6da3      	ldr	r3, [r4, #88]	; 0x58
 8001d54:	6e21      	ldr	r1, [r4, #96]	; 0x60
  obqp->bcounter++;
 8001d56:	6d22      	ldr	r2, [r4, #80]	; 0x50
  obqp->brdptr += obqp->bsize;
 8001d58:	440b      	add	r3, r1
  if (obqp->brdptr >= obqp->btop) {
 8001d5a:	6de1      	ldr	r1, [r4, #92]	; 0x5c
  obqp->brdptr += obqp->bsize;
 8001d5c:	65a3      	str	r3, [r4, #88]	; 0x58
  if (obqp->brdptr >= obqp->btop) {
 8001d5e:	428b      	cmp	r3, r1
    obqp->brdptr = obqp->buffers;
 8001d60:	bf28      	it	cs
 8001d62:	6ea3      	ldrcs	r3, [r4, #104]	; 0x68
  obqp->bcounter++;
 8001d64:	f102 0201 	add.w	r2, r2, #1
    obqp->brdptr = obqp->buffers;
 8001d68:	bf28      	it	cs
 8001d6a:	65a3      	strcs	r3, [r4, #88]	; 0x58
  chThdDequeueNextI(tqp, msg);
 8001d6c:	4640      	mov	r0, r8
  obqp->bcounter++;
 8001d6e:	6522      	str	r2, [r4, #80]	; 0x50
 8001d70:	f7ff feb6 	bl	8001ae0 <chThdDequeueNextI.constprop.101>
  buf = obqGetFullBufferI(&sdup->obqueue, &n);
 8001d74:	4640      	mov	r0, r8
 8001d76:	a901      	add	r1, sp, #4
 8001d78:	f7ff fc0a 	bl	8001590 <obqGetFullBufferI>
  if (buf != NULL) {
 8001d7c:	2800      	cmp	r0, #0
 8001d7e:	d1cc      	bne.n	8001d1a <sduDataTransmitted+0x3a>
 8001d80:	e7d7      	b.n	8001d32 <sduDataTransmitted+0x52>
 8001d82:	bf00      	nop
	...

08001d90 <chMtxUnlockS>:
 * @param[in] mp        pointer to the @p mutex_t structure
 *
 * @sclass
 */
void chMtxUnlockS(mutex_t *mp) {
  thread_t *ctp = currp;
 8001d90:	4a12      	ldr	r2, [pc, #72]	; (8001ddc <chMtxUnlockS+0x4c>)
void chMtxUnlockS(mutex_t *mp) {
 8001d92:	b430      	push	{r4, r5}
  return (bool)(tqp->next != (const thread_t *)tqp);
 8001d94:	6804      	ldr	r4, [r0, #0]
    chDbgAssert(ctp->mtxlist == mp, "not next in list");

    /* Removes the top mutex from the thread's owned mutexes list and marks
       it as not owned. Note, it is assumed to be the same mutex passed as
       parameter of this function.*/
    ctp->mtxlist = mp->next;
 8001d96:	68c3      	ldr	r3, [r0, #12]
  thread_t *ctp = currp;
 8001d98:	6995      	ldr	r5, [r2, #24]

    /* If a thread is waiting on the mutex then the fun part begins.*/
    if (chMtxQueueNotEmptyS(mp)) {
 8001d9a:	4284      	cmp	r4, r0
    ctp->mtxlist = mp->next;
 8001d9c:	63ab      	str	r3, [r5, #56]	; 0x38
    if (chMtxQueueNotEmptyS(mp)) {
 8001d9e:	d018      	beq.n	8001dd2 <chMtxUnlockS+0x42>
 8001da0:	4601      	mov	r1, r0
      thread_t *tp;

      /* Recalculates the optimal thread priority by scanning the owned
         mutexes list.*/
      tprio_t newprio = ctp->realprio;
 8001da2:	6be8      	ldr	r0, [r5, #60]	; 0x3c
      lmp = ctp->mtxlist;
      while (lmp != NULL) {
 8001da4:	b14b      	cbz	r3, 8001dba <chMtxUnlockS+0x2a>
 8001da6:	681a      	ldr	r2, [r3, #0]
        /* If the highest priority thread waiting in the mutexes list has a
           greater priority than the current thread base priority then the
           final priority will have at least that priority.*/
        if (chMtxQueueNotEmptyS(lmp) &&
 8001da8:	4293      	cmp	r3, r2
 8001daa:	d003      	beq.n	8001db4 <chMtxUnlockS+0x24>
 8001dac:	6892      	ldr	r2, [r2, #8]
 8001dae:	4290      	cmp	r0, r2
 8001db0:	bf38      	it	cc
 8001db2:	4610      	movcc	r0, r2
            (lmp->queue.next->prio > newprio)) {
          newprio = lmp->queue.next->prio;
        }
        lmp = lmp->next;
 8001db4:	68db      	ldr	r3, [r3, #12]
      while (lmp != NULL) {
 8001db6:	2b00      	cmp	r3, #0
 8001db8:	d1f5      	bne.n	8001da6 <chMtxUnlockS+0x16>
#if CH_CFG_USE_MUTEXES_RECURSIVE == TRUE
      mp->cnt = (cnt_t)1;
#endif
      tp = queue_fifo_remove(&mp->queue);
      mp->owner = tp;
      mp->next = tp->mtxlist;
 8001dba:	6ba2      	ldr	r2, [r4, #56]	; 0x38
  tqp->next             = tp->queue.next;
 8001dbc:	6823      	ldr	r3, [r4, #0]
      ctp->prio = newprio;
 8001dbe:	60a8      	str	r0, [r5, #8]
 8001dc0:	600b      	str	r3, [r1, #0]
      tp->mtxlist = mp;
      (void) chSchReadyI(tp);
 8001dc2:	4620      	mov	r0, r4
  tqp->next->queue.prev = (thread_t *)tqp;
 8001dc4:	6059      	str	r1, [r3, #4]
      mp->next = tp->mtxlist;
 8001dc6:	e9c1 4202 	strd	r4, r2, [r1, #8]
      tp->mtxlist = mp;
 8001dca:	63a1      	str	r1, [r4, #56]	; 0x38
      mp->owner = NULL;
    }
#if CH_CFG_USE_MUTEXES_RECURSIVE == TRUE
  }
#endif
}
 8001dcc:	bc30      	pop	{r4, r5}
      (void) chSchReadyI(tp);
 8001dce:	f7ff be6f 	b.w	8001ab0 <chSchReadyI>
      mp->owner = NULL;
 8001dd2:	2300      	movs	r3, #0
 8001dd4:	60a3      	str	r3, [r4, #8]
}
 8001dd6:	bc30      	pop	{r4, r5}
 8001dd8:	4770      	bx	lr
 8001dda:	bf00      	nop
 8001ddc:	200012d0 	.word	0x200012d0

08001de0 <chSemSignalI>:
  chDbgCheck(sp != NULL);
  chDbgAssert(((sp->cnt >= (cnt_t)0) && queue_isempty(&sp->queue)) ||
              ((sp->cnt < (cnt_t)0) && queue_notempty(&sp->queue)),
              "inconsistent semaphore");

  if (++sp->cnt <= (cnt_t)0) {
 8001de0:	6883      	ldr	r3, [r0, #8]
 8001de2:	3301      	adds	r3, #1
 8001de4:	2b00      	cmp	r3, #0
 8001de6:	6083      	str	r3, [r0, #8]
 8001de8:	dd00      	ble.n	8001dec <chSemSignalI+0xc>
 8001dea:	4770      	bx	lr
void chSemSignalI(semaphore_t *sp) {
 8001dec:	b410      	push	{r4}
 8001dee:	4602      	mov	r2, r0
    /* Note, it is done this way in order to allow a tail call on
             chSchReadyI().*/
    thread_t *tp = queue_fifo_remove(&sp->queue);
    tp->u.rdymsg = MSG_OK;
 8001df0:	2400      	movs	r4, #0
  thread_t *tp = tqp->next;
 8001df2:	6803      	ldr	r3, [r0, #0]
  tqp->next             = tp->queue.next;
 8001df4:	6819      	ldr	r1, [r3, #0]
    (void) chSchReadyI(tp);
 8001df6:	4618      	mov	r0, r3
 8001df8:	6011      	str	r1, [r2, #0]
  tqp->next->queue.prev = (thread_t *)tqp;
 8001dfa:	604a      	str	r2, [r1, #4]
    tp->u.rdymsg = MSG_OK;
 8001dfc:	625c      	str	r4, [r3, #36]	; 0x24
  }
}
 8001dfe:	bc10      	pop	{r4}
    (void) chSchReadyI(tp);
 8001e00:	f7ff be56 	b.w	8001ab0 <chSchReadyI>
	...

08001e10 <chThdDequeueAllI>:
 * @param[in] tqp       pointer to the threads queue object
 * @param[in] msg       the message code
 *
 * @iclass
 */
void chThdDequeueAllI(threads_queue_t *tqp, msg_t msg) {
 8001e10:	b538      	push	{r3, r4, r5, lr}
  return (bool)(tqp->next != (const thread_t *)tqp);
 8001e12:	6803      	ldr	r3, [r0, #0]

  while (queue_notempty(tqp)) {
 8001e14:	4298      	cmp	r0, r3
 8001e16:	d00b      	beq.n	8001e30 <chThdDequeueAllI+0x20>
 8001e18:	4604      	mov	r4, r0
 8001e1a:	460d      	mov	r5, r1
  tqp->next             = tp->queue.next;
 8001e1c:	681a      	ldr	r2, [r3, #0]
 8001e1e:	4618      	mov	r0, r3
 8001e20:	6022      	str	r2, [r4, #0]
  tqp->next->queue.prev = (thread_t *)tqp;
 8001e22:	6054      	str	r4, [r2, #4]
  tp->u.rdymsg = msg;
 8001e24:	625d      	str	r5, [r3, #36]	; 0x24
  (void) chSchReadyI(tp);
 8001e26:	f7ff fe43 	bl	8001ab0 <chSchReadyI>
  return (bool)(tqp->next != (const thread_t *)tqp);
 8001e2a:	6823      	ldr	r3, [r4, #0]
 8001e2c:	429c      	cmp	r4, r3
 8001e2e:	d1f5      	bne.n	8001e1c <chThdDequeueAllI+0xc>
    chThdDoDequeueNextI(tqp, msg);
  }
}
 8001e30:	bd38      	pop	{r3, r4, r5, pc}
 8001e32:	bf00      	nop
	...

08001e40 <chVTDoResetI>:
#else /* CH_CFG_ST_TIMEDELTA > 0 */
  sysinterval_t nowdelta, delta;

  /* If the timer is not the first of the list then it is simply unlinked
     else the operation is more complex.*/
  if (ch.vtlist.next != vtp) {
 8001e40:	4b1f      	ldr	r3, [pc, #124]	; (8001ec0 <chVTDoResetI+0x80>)
void chVTDoResetI(virtual_timer_t *vtp) {
 8001e42:	b430      	push	{r4, r5}
  if (ch.vtlist.next != vtp) {
 8001e44:	69da      	ldr	r2, [r3, #28]
 8001e46:	4282      	cmp	r2, r0
 8001e48:	d00f      	beq.n	8001e6a <chVTDoResetI+0x2a>
    /* Removing the element from the delta list.*/
    vtp->prev->next = vtp->next;
 8001e4a:	e9d0 2100 	ldrd	r2, r1, [r0]
    vtp->next->prev = vtp->prev;
    vtp->func = NULL;
 8001e4e:	2400      	movs	r4, #0
    vtp->prev->next = vtp->next;
 8001e50:	600a      	str	r2, [r1, #0]
    vtp->next->prev = vtp->prev;
 8001e52:	6802      	ldr	r2, [r0, #0]

    /* Adding delta to the next element, if it is not the last one.*/
    if (&ch.vtlist != (virtual_timers_list_t *)vtp->next)
 8001e54:	331c      	adds	r3, #28
 8001e56:	429a      	cmp	r2, r3
    vtp->next->prev = vtp->prev;
 8001e58:	6051      	str	r1, [r2, #4]
    vtp->func = NULL;
 8001e5a:	60c4      	str	r4, [r0, #12]
    if (&ch.vtlist != (virtual_timers_list_t *)vtp->next)
 8001e5c:	d003      	beq.n	8001e66 <chVTDoResetI+0x26>
      vtp->next->delta += vtp->delta;
 8001e5e:	6881      	ldr	r1, [r0, #8]
 8001e60:	6893      	ldr	r3, [r2, #8]
 8001e62:	440b      	add	r3, r1
 8001e64:	6093      	str	r3, [r2, #8]
    }
#endif
  }
  port_timer_set_alarm(chTimeAddX(ch.vtlist.lasttime, delta));
#endif /* CH_CFG_ST_TIMEDELTA > 0 */
}
 8001e66:	bc30      	pop	{r4, r5}
 8001e68:	4770      	bx	lr
  ch.vtlist.next = vtp->next;
 8001e6a:	4618      	mov	r0, r3
  vtp->func = NULL;
 8001e6c:	2400      	movs	r4, #0
  ch.vtlist.next = vtp->next;
 8001e6e:	6811      	ldr	r1, [r2, #0]
 8001e70:	f840 1f1c 	str.w	r1, [r0, #28]!
  if (&ch.vtlist == (virtual_timers_list_t *)ch.vtlist.next) {
 8001e74:	4281      	cmp	r1, r0
  ch.vtlist.next->prev = (virtual_timer_t *)&ch.vtlist;
 8001e76:	6048      	str	r0, [r1, #4]
  vtp->func = NULL;
 8001e78:	60d4      	str	r4, [r2, #12]
  if (&ch.vtlist == (virtual_timers_list_t *)ch.vtlist.next) {
 8001e7a:	d01c      	beq.n	8001eb6 <chVTDoResetI+0x76>
 8001e7c:	f04f 4480 	mov.w	r4, #1073741824	; 0x40000000
  ch.vtlist.next->delta += vtp->delta;
 8001e80:	6895      	ldr	r5, [r2, #8]
 8001e82:	688a      	ldr	r2, [r1, #8]
  nowdelta = chTimeDiffX(ch.vtlist.lasttime, chVTGetSystemTimeX());
 8001e84:	8d18      	ldrh	r0, [r3, #40]	; 0x28
  ch.vtlist.next->delta += vtp->delta;
 8001e86:	1953      	adds	r3, r2, r5
 8001e88:	608b      	str	r3, [r1, #8]
 8001e8a:	6a62      	ldr	r2, [r4, #36]	; 0x24
  return (sysinterval_t)((systime_t)(end - start));
 8001e8c:	1a12      	subs	r2, r2, r0
 8001e8e:	b292      	uxth	r2, r2
  if (nowdelta >= ch.vtlist.next->delta) {
 8001e90:	4293      	cmp	r3, r2
 8001e92:	d9e8      	bls.n	8001e66 <chVTDoResetI+0x26>
  delta = ch.vtlist.next->delta - nowdelta;
 8001e94:	1a99      	subs	r1, r3, r2
  if (delta < (sysinterval_t)CH_CFG_ST_TIMEDELTA) {
 8001e96:	2901      	cmp	r1, #1
 8001e98:	d90b      	bls.n	8001eb2 <chVTDoResetI+0x72>
 8001e9a:	f64f 72ff 	movw	r2, #65535	; 0xffff
 8001e9e:	4293      	cmp	r3, r2
 8001ea0:	bf28      	it	cs
 8001ea2:	4613      	movcs	r3, r2
}
 8001ea4:	bc30      	pop	{r4, r5}
 *
 * @notapi
 */
static inline void st_lld_set_alarm(systime_t time) {

  STM32_ST_TIM->CCR[0] = (uint32_t)time;
 8001ea6:	f04f 4280 	mov.w	r2, #1073741824	; 0x40000000
  return systime + (systime_t)interval;
 8001eaa:	4403      	add	r3, r0
 8001eac:	b29b      	uxth	r3, r3
 8001eae:	6353      	str	r3, [r2, #52]	; 0x34
 8001eb0:	4770      	bx	lr
    delta = nowdelta + (sysinterval_t)CH_CFG_ST_TIMEDELTA;
 8001eb2:	1c93      	adds	r3, r2, #2
 8001eb4:	e7f6      	b.n	8001ea4 <chVTDoResetI+0x64>
  STM32_ST_TIM->DIER = 0;
 8001eb6:	f04f 4380 	mov.w	r3, #1073741824	; 0x40000000
 8001eba:	60dc      	str	r4, [r3, #12]
 8001ebc:	e7d3      	b.n	8001e66 <chVTDoResetI+0x26>
 8001ebe:	bf00      	nop
 8001ec0:	200012d0 	.word	0x200012d0
	...

08001ed0 <chVTDoSetI>:
                vtfunc_t vtfunc, void *par) {
 8001ed0:	b470      	push	{r4, r5, r6}
  return (systime_t)STM32_ST_TIM->CNT;
 8001ed2:	f04f 4480 	mov.w	r4, #1073741824	; 0x40000000
 8001ed6:	4d2e      	ldr	r5, [pc, #184]	; (8001f90 <chVTDoSetI+0xc0>)
 8001ed8:	6a64      	ldr	r4, [r4, #36]	; 0x24
    if (delay < (sysinterval_t)CH_CFG_ST_TIMEDELTA) {
 8001eda:	2901      	cmp	r1, #1
  vtp->func = vtfunc;
 8001edc:	e9c0 2303 	strd	r2, r3, [r0, #12]
 8001ee0:	b2a3      	uxth	r3, r4
 8001ee2:	69ea      	ldr	r2, [r5, #28]
    if (delay < (sysinterval_t)CH_CFG_ST_TIMEDELTA) {
 8001ee4:	d92e      	bls.n	8001f44 <chVTDoSetI+0x74>
    if (&ch.vtlist == (virtual_timers_list_t *)ch.vtlist.next) {
 8001ee6:	f105 041c 	add.w	r4, r5, #28
 8001eea:	42a2      	cmp	r2, r4
 8001eec:	d038      	beq.n	8001f60 <chVTDoSetI+0x90>
    delta = chTimeDiffX(ch.vtlist.lasttime, now) + delay;
 8001eee:	8d2e      	ldrh	r6, [r5, #40]	; 0x28
 8001ef0:	6894      	ldr	r4, [r2, #8]
  return (sysinterval_t)((systime_t)(end - start));
 8001ef2:	1b9b      	subs	r3, r3, r6
 8001ef4:	b29b      	uxth	r3, r3
 8001ef6:	1859      	adds	r1, r3, r1
    if (delta < chTimeDiffX(ch.vtlist.lasttime, now)) {
 8001ef8:	d317      	bcc.n	8001f2a <chVTDoSetI+0x5a>
      p = p->next;
 8001efa:	6812      	ldr	r2, [r2, #0]
      delta -= p->delta;
 8001efc:	1b09      	subs	r1, r1, r4
 8001efe:	6894      	ldr	r4, [r2, #8]
  while (p->delta < delta) {
 8001f00:	42a1      	cmp	r1, r4
 8001f02:	d904      	bls.n	8001f0e <chVTDoSetI+0x3e>
    p = p->next;
 8001f04:	6812      	ldr	r2, [r2, #0]
    delta -= p->delta;
 8001f06:	1b09      	subs	r1, r1, r4
  while (p->delta < delta) {
 8001f08:	6894      	ldr	r4, [r2, #8]
 8001f0a:	428c      	cmp	r4, r1
 8001f0c:	d3fa      	bcc.n	8001f04 <chVTDoSetI+0x34>
  ch.vtlist.delta = (sysinterval_t)-1;
 8001f0e:	f04f 34ff 	mov.w	r4, #4294967295	; 0xffffffff
  vtp->prev = vtp->next->prev;
 8001f12:	6853      	ldr	r3, [r2, #4]
 8001f14:	e9c0 2300 	strd	r2, r3, [r0]
  vtp->prev->next = vtp;
 8001f18:	6018      	str	r0, [r3, #0]
  p->prev = vtp;
 8001f1a:	6050      	str	r0, [r2, #4]
  vtp->delta = delta;
 8001f1c:	6081      	str	r1, [r0, #8]
  p->delta -= delta;
 8001f1e:	6893      	ldr	r3, [r2, #8]
 8001f20:	1a59      	subs	r1, r3, r1
 8001f22:	6091      	str	r1, [r2, #8]
  ch.vtlist.delta = (sysinterval_t)-1;
 8001f24:	626c      	str	r4, [r5, #36]	; 0x24
}
 8001f26:	bc70      	pop	{r4, r5, r6}
 8001f28:	4770      	bx	lr
    else if (delta < p->delta) {
 8001f2a:	42a1      	cmp	r1, r4
 8001f2c:	d2e8      	bcs.n	8001f00 <chVTDoSetI+0x30>
  return systime + (systime_t)interval;
 8001f2e:	f64f 73ff 	movw	r3, #65535	; 0xffff
 8001f32:	4299      	cmp	r1, r3
 8001f34:	bf94      	ite	ls
 8001f36:	1876      	addls	r6, r6, r1
 8001f38:	18f6      	addhi	r6, r6, r3
  STM32_ST_TIM->CCR[0] = (uint32_t)time;
 8001f3a:	f04f 4380 	mov.w	r3, #1073741824	; 0x40000000
 8001f3e:	b2b6      	uxth	r6, r6
 8001f40:	635e      	str	r6, [r3, #52]	; 0x34
 8001f42:	e7dd      	b.n	8001f00 <chVTDoSetI+0x30>
    if (&ch.vtlist == (virtual_timers_list_t *)ch.vtlist.next) {
 8001f44:	f105 011c 	add.w	r1, r5, #28
 8001f48:	428a      	cmp	r2, r1
      vtp->delta = delay;
 8001f4a:	f04f 0102 	mov.w	r1, #2
    if (&ch.vtlist == (virtual_timers_list_t *)ch.vtlist.next) {
 8001f4e:	d1ce      	bne.n	8001eee <chVTDoSetI+0x1e>
      ch.vtlist.lasttime = now;
 8001f50:	852b      	strh	r3, [r5, #40]	; 0x28
      ch.vtlist.prev = vtp;
 8001f52:	e9c5 0007 	strd	r0, r0, [r5, #28]
      vtp->delta = delay;
 8001f56:	460c      	mov	r4, r1
      vtp->prev = (virtual_timer_t *)&ch.vtlist;
 8001f58:	e9c0 2200 	strd	r2, r2, [r0]
      vtp->delta = delay;
 8001f5c:	6081      	str	r1, [r0, #8]
 8001f5e:	e00b      	b.n	8001f78 <chVTDoSetI+0xa8>
 8001f60:	f64f 74ff 	movw	r4, #65535	; 0xffff
 8001f64:	428c      	cmp	r4, r1
 8001f66:	bf28      	it	cs
 8001f68:	460c      	movcs	r4, r1
      ch.vtlist.lasttime = now;
 8001f6a:	852b      	strh	r3, [r5, #40]	; 0x28
      ch.vtlist.prev = vtp;
 8001f6c:	e9c5 0007 	strd	r0, r0, [r5, #28]
      vtp->prev = (virtual_timer_t *)&ch.vtlist;
 8001f70:	e9c0 2200 	strd	r2, r2, [r0]
 8001f74:	b2a4      	uxth	r4, r4
      vtp->delta = delay;
 8001f76:	6081      	str	r1, [r0, #8]
  STM32_ST_TIM->CCR[0] = (uint32_t)time;
 8001f78:	f04f 4280 	mov.w	r2, #1073741824	; 0x40000000
  STM32_ST_TIM->SR     = 0;
 8001f7c:	2000      	movs	r0, #0
  STM32_ST_TIM->DIER   = STM32_TIM_DIER_CC1IE;
 8001f7e:	2102      	movs	r1, #2
 8001f80:	4423      	add	r3, r4
  STM32_ST_TIM->CCR[0] = (uint32_t)time;
 8001f82:	b29b      	uxth	r3, r3
 8001f84:	6353      	str	r3, [r2, #52]	; 0x34
}
 8001f86:	bc70      	pop	{r4, r5, r6}
  STM32_ST_TIM->SR     = 0;
 8001f88:	6110      	str	r0, [r2, #16]
  STM32_ST_TIM->DIER   = STM32_TIM_DIER_CC1IE;
 8001f8a:	60d1      	str	r1, [r2, #12]
 8001f8c:	4770      	bx	lr
 8001f8e:	bf00      	nop
 8001f90:	200012d0 	.word	0x200012d0
	...

08001fa0 <chSysGetStatusAndLockX.part.1>:
  __ASM volatile ("MRS %0, ipsr" : "=r" (result) );
 8001fa0:	f3ef 8305 	mrs	r3, IPSR
  __ASM volatile ("MSR basepri, %0" : : "r" (basePri) : "memory");
 8001fa4:	2320      	movs	r3, #32
 8001fa6:	f383 8811 	msr	BASEPRI, r3
    else {
      chSysLock();
    }
  }
  return sts;
}
 8001faa:	4770      	bx	lr
 8001fac:	0000      	movs	r0, r0
	...

08001fb0 <chSysIntegrityCheckI>:
  if ((testmask & CH_INTEGRITY_RLIST) != 0U) {
 8001fb0:	07c2      	lsls	r2, r0, #31
bool chSysIntegrityCheckI(unsigned testmask) {
 8001fb2:	b410      	push	{r4}
  if ((testmask & CH_INTEGRITY_RLIST) != 0U) {
 8001fb4:	d510      	bpl.n	8001fd8 <chSysIntegrityCheckI+0x28>
    tp = ch.rlist.queue.next;
 8001fb6:	4b26      	ldr	r3, [pc, #152]	; (8002050 <chSysIntegrityCheckI+0xa0>)
 8001fb8:	e9d3 1400 	ldrd	r1, r4, [r3]
    while (tp != (thread_t *)&ch.rlist.queue) {
 8001fbc:	4299      	cmp	r1, r3
 8001fbe:	d03b      	beq.n	8002038 <chSysIntegrityCheckI+0x88>
    n = (cnt_t)0;
 8001fc0:	2200      	movs	r2, #0
      tp = tp->queue.next;
 8001fc2:	6809      	ldr	r1, [r1, #0]
      n++;
 8001fc4:	3201      	adds	r2, #1
    while (tp != (thread_t *)&ch.rlist.queue) {
 8001fc6:	4299      	cmp	r1, r3
 8001fc8:	d1fb      	bne.n	8001fc2 <chSysIntegrityCheckI+0x12>
    while (tp != (thread_t *)&ch.rlist.queue) {
 8001fca:	428c      	cmp	r4, r1
 8001fcc:	d031      	beq.n	8002032 <chSysIntegrityCheckI+0x82>
      tp = tp->queue.prev;
 8001fce:	6864      	ldr	r4, [r4, #4]
      n--;
 8001fd0:	3a01      	subs	r2, #1
    while (tp != (thread_t *)&ch.rlist.queue) {
 8001fd2:	429c      	cmp	r4, r3
 8001fd4:	d1fb      	bne.n	8001fce <chSysIntegrityCheckI+0x1e>
    if (n != (cnt_t)0) {
 8001fd6:	bb62      	cbnz	r2, 8002032 <chSysIntegrityCheckI+0x82>
  if ((testmask & CH_INTEGRITY_VTLIST) != 0U) {
 8001fd8:	0783      	lsls	r3, r0, #30
 8001fda:	d512      	bpl.n	8002002 <chSysIntegrityCheckI+0x52>
    vtp = ch.vtlist.next;
 8001fdc:	4b1c      	ldr	r3, [pc, #112]	; (8002050 <chSysIntegrityCheckI+0xa0>)
 8001fde:	69da      	ldr	r2, [r3, #28]
    while (vtp != (virtual_timer_t *)&ch.vtlist) {
 8001fe0:	f103 041c 	add.w	r4, r3, #28
 8001fe4:	42a2      	cmp	r2, r4
 8001fe6:	6a19      	ldr	r1, [r3, #32]
 8001fe8:	d02a      	beq.n	8002040 <chSysIntegrityCheckI+0x90>
    n = (cnt_t)0;
 8001fea:	2300      	movs	r3, #0
      vtp = vtp->next;
 8001fec:	6812      	ldr	r2, [r2, #0]
      n++;
 8001fee:	3301      	adds	r3, #1
    while (vtp != (virtual_timer_t *)&ch.vtlist) {
 8001ff0:	42a2      	cmp	r2, r4
 8001ff2:	d1fb      	bne.n	8001fec <chSysIntegrityCheckI+0x3c>
    while (vtp != (virtual_timer_t *)&ch.vtlist) {
 8001ff4:	4291      	cmp	r1, r2
 8001ff6:	d01c      	beq.n	8002032 <chSysIntegrityCheckI+0x82>
      vtp = vtp->prev;
 8001ff8:	6849      	ldr	r1, [r1, #4]
      n--;
 8001ffa:	3b01      	subs	r3, #1
    while (vtp != (virtual_timer_t *)&ch.vtlist) {
 8001ffc:	42a1      	cmp	r1, r4
 8001ffe:	d1fb      	bne.n	8001ff8 <chSysIntegrityCheckI+0x48>
    if (n != (cnt_t)0) {
 8002000:	b9bb      	cbnz	r3, 8002032 <chSysIntegrityCheckI+0x82>
  if ((testmask & CH_INTEGRITY_REGISTRY) != 0U) {
 8002002:	f010 0004 	ands.w	r0, r0, #4
 8002006:	d012      	beq.n	800202e <chSysIntegrityCheckI+0x7e>
    tp = ch.rlist.newer;
 8002008:	4b11      	ldr	r3, [pc, #68]	; (8002050 <chSysIntegrityCheckI+0xa0>)
    n = (cnt_t)0;
 800200a:	2000      	movs	r0, #0
 800200c:	e9d3 2104 	ldrd	r2, r1, [r3, #16]
    while (tp != (thread_t *)&ch.rlist) {
 8002010:	429a      	cmp	r2, r3
 8002012:	d019      	beq.n	8002048 <chSysIntegrityCheckI+0x98>
      tp = tp->newer;
 8002014:	6912      	ldr	r2, [r2, #16]
      n++;
 8002016:	3001      	adds	r0, #1
    while (tp != (thread_t *)&ch.rlist) {
 8002018:	429a      	cmp	r2, r3
 800201a:	d1fb      	bne.n	8002014 <chSysIntegrityCheckI+0x64>
    while (tp != (thread_t *)&ch.rlist) {
 800201c:	4291      	cmp	r1, r2
 800201e:	d008      	beq.n	8002032 <chSysIntegrityCheckI+0x82>
      tp = tp->older;
 8002020:	6949      	ldr	r1, [r1, #20]
      n--;
 8002022:	3801      	subs	r0, #1
    while (tp != (thread_t *)&ch.rlist) {
 8002024:	4299      	cmp	r1, r3
 8002026:	d1fb      	bne.n	8002020 <chSysIntegrityCheckI+0x70>
    if (n != (cnt_t)0) {
 8002028:	3000      	adds	r0, #0
 800202a:	bf18      	it	ne
 800202c:	2001      	movne	r0, #1
}
 800202e:	bc10      	pop	{r4}
 8002030:	4770      	bx	lr
      return true;
 8002032:	2001      	movs	r0, #1
}
 8002034:	bc10      	pop	{r4}
 8002036:	4770      	bx	lr
    while (tp != (thread_t *)&ch.rlist.queue) {
 8002038:	429c      	cmp	r4, r3
 800203a:	d0cd      	beq.n	8001fd8 <chSysIntegrityCheckI+0x28>
    n = (cnt_t)0;
 800203c:	2200      	movs	r2, #0
 800203e:	e7c6      	b.n	8001fce <chSysIntegrityCheckI+0x1e>
    while (vtp != (virtual_timer_t *)&ch.vtlist) {
 8002040:	42a1      	cmp	r1, r4
 8002042:	d0de      	beq.n	8002002 <chSysIntegrityCheckI+0x52>
    n = (cnt_t)0;
 8002044:	2300      	movs	r3, #0
 8002046:	e7d7      	b.n	8001ff8 <chSysIntegrityCheckI+0x48>
    while (tp != (thread_t *)&ch.rlist) {
 8002048:	4291      	cmp	r1, r2
 800204a:	d1e9      	bne.n	8002020 <chSysIntegrityCheckI+0x70>
 800204c:	e7ef      	b.n	800202e <chSysIntegrityCheckI+0x7e>
 800204e:	bf00      	nop
 8002050:	200012d0 	.word	0x200012d0
	...

08002060 <rt_test_002_001_execute>:
  test_set_step(1);
 8002060:	2001      	movs	r0, #1
static void rt_test_002_001_execute(void) {
 8002062:	b570      	push	{r4, r5, r6, lr}
  test_set_step(1);
 8002064:	4d23      	ldr	r5, [pc, #140]	; (80020f4 <rt_test_002_001_execute+0x94>)
 8002066:	2420      	movs	r4, #32
 8002068:	6028      	str	r0, [r5, #0]
 800206a:	f384 8811 	msr	BASEPRI, r4
    result = chSysIntegrityCheckI(CH_INTEGRITY_RLIST);
 800206e:	f7ff ff9f 	bl	8001fb0 <chSysIntegrityCheckI>
 8002072:	2300      	movs	r3, #0
 8002074:	f383 8811 	msr	BASEPRI, r3
    test_assert(result == false, "ready list check failed");
 8002078:	f080 0001 	eor.w	r0, r0, #1
 800207c:	b2c0      	uxtb	r0, r0
 800207e:	491e      	ldr	r1, [pc, #120]	; (80020f8 <rt_test_002_001_execute+0x98>)
 8002080:	f7fe fc66 	bl	8000950 <_test_assert>
 8002084:	b100      	cbz	r0, 8002088 <rt_test_002_001_execute+0x28>
}
 8002086:	bd70      	pop	{r4, r5, r6, pc}
 8002088:	4606      	mov	r6, r0
  test_set_step(2);
 800208a:	2002      	movs	r0, #2
 800208c:	6028      	str	r0, [r5, #0]
 800208e:	f384 8811 	msr	BASEPRI, r4
    result = chSysIntegrityCheckI(CH_INTEGRITY_VTLIST);
 8002092:	f7ff ff8d 	bl	8001fb0 <chSysIntegrityCheckI>
 8002096:	f386 8811 	msr	BASEPRI, r6
    test_assert(result == false, "virtual timers list check failed");
 800209a:	f080 0001 	eor.w	r0, r0, #1
 800209e:	b2c0      	uxtb	r0, r0
 80020a0:	4916      	ldr	r1, [pc, #88]	; (80020fc <rt_test_002_001_execute+0x9c>)
 80020a2:	f7fe fc55 	bl	8000950 <_test_assert>
 80020a6:	4606      	mov	r6, r0
 80020a8:	2800      	cmp	r0, #0
 80020aa:	d1ec      	bne.n	8002086 <rt_test_002_001_execute+0x26>
  test_set_step(3);
 80020ac:	2303      	movs	r3, #3
 80020ae:	602b      	str	r3, [r5, #0]
 80020b0:	f384 8811 	msr	BASEPRI, r4
    result = chSysIntegrityCheckI(CH_INTEGRITY_REGISTRY);
 80020b4:	2004      	movs	r0, #4
 80020b6:	f7ff ff7b 	bl	8001fb0 <chSysIntegrityCheckI>
 80020ba:	f386 8811 	msr	BASEPRI, r6
    test_assert(result == false, "registry list check failed");
 80020be:	f080 0001 	eor.w	r0, r0, #1
 80020c2:	b2c0      	uxtb	r0, r0
 80020c4:	490e      	ldr	r1, [pc, #56]	; (8002100 <rt_test_002_001_execute+0xa0>)
 80020c6:	f7fe fc43 	bl	8000950 <_test_assert>
 80020ca:	4606      	mov	r6, r0
 80020cc:	2800      	cmp	r0, #0
 80020ce:	d1da      	bne.n	8002086 <rt_test_002_001_execute+0x26>
  test_set_step(4);
 80020d0:	2304      	movs	r3, #4
 80020d2:	602b      	str	r3, [r5, #0]
 80020d4:	f384 8811 	msr	BASEPRI, r4
    result = chSysIntegrityCheckI(CH_INTEGRITY_PORT);
 80020d8:	2008      	movs	r0, #8
 80020da:	f7ff ff69 	bl	8001fb0 <chSysIntegrityCheckI>
 80020de:	f386 8811 	msr	BASEPRI, r6
}
 80020e2:	e8bd 4070 	ldmia.w	sp!, {r4, r5, r6, lr}
    test_assert(result == false, "port layer check failed");
 80020e6:	f080 0001 	eor.w	r0, r0, #1
 80020ea:	b2c0      	uxtb	r0, r0
 80020ec:	4905      	ldr	r1, [pc, #20]	; (8002104 <rt_test_002_001_execute+0xa4>)
 80020ee:	f7fe bc2f 	b.w	8000950 <_test_assert>
 80020f2:	bf00      	nop
 80020f4:	20001c5c 	.word	0x20001c5c
 80020f8:	0800b190 	.word	0x0800b190
 80020fc:	0800b1a8 	.word	0x0800b1a8
 8002100:	0800b1cc 	.word	0x0800b1cc
 8002104:	0800b1e8 	.word	0x0800b1e8
	...

08002110 <_idle_thread>:
static void _idle_thread(void *p) {
 8002110:	e7fe      	b.n	8002110 <_idle_thread>
 8002112:	bf00      	nop
	...

08002120 <usbInitEndpointI>:
  if (epcp->in_state != NULL) {
 8002120:	6953      	ldr	r3, [r2, #20]
                      const USBEndpointConfig *epcp) {
 8002122:	b410      	push	{r4}
  usbp->epc[ep] = epcp;
 8002124:	eb00 0481 	add.w	r4, r0, r1, lsl #2
 8002128:	60e2      	str	r2, [r4, #12]
  if (epcp->in_state != NULL) {
 800212a:	b123      	cbz	r3, 8002136 <usbInitEndpointI+0x16>
    memset(epcp->in_state, 0, sizeof(USBInEndpointState));
 800212c:	2400      	movs	r4, #0
 800212e:	601c      	str	r4, [r3, #0]
 8002130:	605c      	str	r4, [r3, #4]
 8002132:	609c      	str	r4, [r3, #8]
 8002134:	60dc      	str	r4, [r3, #12]
  if (epcp->out_state != NULL) {
 8002136:	6993      	ldr	r3, [r2, #24]
 8002138:	b123      	cbz	r3, 8002144 <usbInitEndpointI+0x24>
    memset(epcp->out_state, 0, sizeof(USBOutEndpointState));
 800213a:	2200      	movs	r2, #0
 800213c:	601a      	str	r2, [r3, #0]
 800213e:	605a      	str	r2, [r3, #4]
 8002140:	609a      	str	r2, [r3, #8]
 8002142:	60da      	str	r2, [r3, #12]
}
 8002144:	bc10      	pop	{r4}
  usb_lld_init_endpoint(usbp, ep);
 8002146:	f7fe bdeb 	b.w	8000d20 <usb_lld_init_endpoint>
 800214a:	bf00      	nop
 800214c:	0000      	movs	r0, r0
	...

08002150 <usb_event>:
static void usb_event(USBDriver *usbp, usbevent_t event) {
 8002150:	b570      	push	{r4, r5, r6, lr}
  switch (event) {
 8002152:	2905      	cmp	r1, #5
 8002154:	d812      	bhi.n	800217c <usb_event+0x2c>
 8002156:	e8df f001 	tbb	[pc, r1]
 800215a:	1147      	.short	0x1147
 800215c:	03474712 	.word	0x03474712
 8002160:	2320      	movs	r3, #32
 8002162:	f383 8811 	msr	BASEPRI, r3
  chEvtBroadcastFlagsI(esp, flags);
 8002166:	4c2e      	ldr	r4, [pc, #184]	; (8002220 <usb_event+0xd0>)
 8002168:	2101      	movs	r1, #1
 800216a:	1d20      	adds	r0, r4, #4
 800216c:	f7ff fd70 	bl	8001c50 <chEvtBroadcastFlagsI>
  bqResumeX(&sdup->ibqueue);
 8002170:	2300      	movs	r3, #0
 8002172:	7523      	strb	r3, [r4, #20]
  bqResumeX(&sdup->obqueue);
 8002174:	f884 304c 	strb.w	r3, [r4, #76]	; 0x4c
 8002178:	f383 8811 	msr	BASEPRI, r3
}
 800217c:	bd70      	pop	{r4, r5, r6, pc}
 800217e:	4606      	mov	r6, r0
 8002180:	2320      	movs	r3, #32
 8002182:	f383 8811 	msr	BASEPRI, r3
  ibqp->bcounter  = 0;
 8002186:	2500      	movs	r5, #0
 8002188:	4c25      	ldr	r4, [pc, #148]	; (8002220 <usb_event+0xd0>)
    usbInitEndpointI(usbp, USBD1_DATA_REQUEST_EP, &ep1config);
 800218a:	4a26      	ldr	r2, [pc, #152]	; (8002224 <usb_event+0xd4>)
 800218c:	2101      	movs	r1, #1
 800218e:	f7ff ffc7 	bl	8002120 <usbInitEndpointI>
    usbInitEndpointI(usbp, USBD1_INTERRUPT_REQUEST_EP, &ep2config);
 8002192:	4630      	mov	r0, r6
 8002194:	4a24      	ldr	r2, [pc, #144]	; (8002228 <usb_event+0xd8>)
 8002196:	2102      	movs	r1, #2
 8002198:	f7ff ffc2 	bl	8002120 <usbInitEndpointI>
  ibqp->brdptr    = ibqp->buffers;
 800219c:	6b23      	ldr	r3, [r4, #48]	; 0x30
  chThdDequeueAllI(tqp, msg);
 800219e:	f104 000c 	add.w	r0, r4, #12
 80021a2:	f06f 0101 	mvn.w	r1, #1
  ibqp->bwrptr    = ibqp->buffers;
 80021a6:	e9c4 3307 	strd	r3, r3, [r4, #28]
  ibqp->bcounter  = 0;
 80021aa:	61a5      	str	r5, [r4, #24]
  ibqp->top       = NULL;
 80021ac:	e9c4 550d 	strd	r5, r5, [r4, #52]	; 0x34
 80021b0:	f7ff fe2e 	bl	8001e10 <chThdDequeueAllI>
  obqp->brdptr    = obqp->buffers;
 80021b4:	e9d4 2319 	ldrd	r2, r3, [r4, #100]	; 0x64
 80021b8:	f104 0044 	add.w	r0, r4, #68	; 0x44
 80021bc:	f06f 0101 	mvn.w	r1, #1
  obqp->bcounter  = bqSizeX(obqp);
 80021c0:	6522      	str	r2, [r4, #80]	; 0x50
  obqp->bwrptr    = obqp->buffers;
 80021c2:	e9c4 3315 	strd	r3, r3, [r4, #84]	; 0x54
  bqResumeX(&sdup->ibqueue);
 80021c6:	7525      	strb	r5, [r4, #20]
  obqp->top       = NULL;
 80021c8:	e9c4 551b 	strd	r5, r5, [r4, #108]	; 0x6c
 80021cc:	f7ff fe20 	bl	8001e10 <chThdDequeueAllI>
  chEvtBroadcastFlagsI(esp, flags);
 80021d0:	1d20      	adds	r0, r4, #4
 80021d2:	2101      	movs	r1, #1
  bqResumeX(&sdup->obqueue);
 80021d4:	f884 504c 	strb.w	r5, [r4, #76]	; 0x4c
 80021d8:	f7ff fd3a 	bl	8001c50 <chEvtBroadcastFlagsI>
  (void) sdu_start_receive(sdup);
 80021dc:	4620      	mov	r0, r4
 80021de:	f7ff f997 	bl	8001510 <sdu_start_receive>
 80021e2:	f385 8811 	msr	BASEPRI, r5
}
 80021e6:	bd70      	pop	{r4, r5, r6, pc}
 80021e8:	2320      	movs	r3, #32
 80021ea:	f383 8811 	msr	BASEPRI, r3
  bqSuspendI(&sdup->ibqueue);
 80021ee:	2501      	movs	r5, #1
 80021f0:	4c0b      	ldr	r4, [pc, #44]	; (8002220 <usb_event+0xd0>)
 80021f2:	2102      	movs	r1, #2
 80021f4:	1d20      	adds	r0, r4, #4
 80021f6:	f7ff fd2b 	bl	8001c50 <chEvtBroadcastFlagsI>
  chThdDequeueAllI(tqp, msg);
 80021fa:	f104 000c 	add.w	r0, r4, #12
 80021fe:	f06f 0101 	mvn.w	r1, #1
 8002202:	7525      	strb	r5, [r4, #20]
 8002204:	f7ff fe04 	bl	8001e10 <chThdDequeueAllI>
 8002208:	f104 0044 	add.w	r0, r4, #68	; 0x44
 800220c:	f06f 0101 	mvn.w	r1, #1
  bqSuspendI(&sdup->obqueue);
 8002210:	f884 504c 	strb.w	r5, [r4, #76]	; 0x4c
 8002214:	f7ff fdfc 	bl	8001e10 <chThdDequeueAllI>
 8002218:	2300      	movs	r3, #0
 800221a:	f383 8811 	msr	BASEPRI, r3
 800221e:	bd70      	pop	{r4, r5, r6, pc}
 8002220:	20000b34 	.word	0x20000b34
 8002224:	0800a2f0 	.word	0x0800a2f0
 8002228:	0800a314 	.word	0x0800a314
 800222c:	00000000 	.word	0x00000000

08002230 <parse_arguments>:

/*===========================================================================*/
/* Module local functions.                                                   */
/*===========================================================================*/

static char *parse_arguments(char *str, char **saveptr) {
 8002230:	b538      	push	{r3, r4, r5, lr}
 8002232:	460d      	mov	r5, r1
  char *p;

  if (str != NULL)
 8002234:	b1e8      	cbz	r0, 8002272 <parse_arguments+0x42>
 8002236:	4604      	mov	r4, r0
    *saveptr = str;
 8002238:	6028      	str	r0, [r5, #0]
  if (!p) {
    return NULL;
  }

  /* Skipping white space.*/
  p += strspn(p, " \t");
 800223a:	4911      	ldr	r1, [pc, #68]	; (8002280 <parse_arguments+0x50>)
 800223c:	4620      	mov	r0, r4
 800223e:	f007 fe45 	bl	8009ecc <strspn>

  if (*p == '"') {
 8002242:	5c21      	ldrb	r1, [r4, r0]
  p += strspn(p, " \t");
 8002244:	4404      	add	r4, r0
  if (*p == '"') {
 8002246:	2922      	cmp	r1, #34	; 0x22
 8002248:	d00d      	beq.n	8002266 <parse_arguments+0x36>
    p++;
    *saveptr = strpbrk(p, "\"");
  }
  else {
    /* The delimiter is white space.*/
    *saveptr = strpbrk(p, " \t");
 800224a:	490d      	ldr	r1, [pc, #52]	; (8002280 <parse_arguments+0x50>)
 800224c:	4620      	mov	r0, r4
 800224e:	f007 fe1b 	bl	8009e88 <strpbrk>
 8002252:	6028      	str	r0, [r5, #0]
  }

  /* Replacing the delimiter with a zero.*/
  if (*saveptr != NULL) {
 8002254:	b118      	cbz	r0, 800225e <parse_arguments+0x2e>
    *(*saveptr)++ = '\0';
 8002256:	2300      	movs	r3, #0
 8002258:	1c42      	adds	r2, r0, #1
 800225a:	602a      	str	r2, [r5, #0]
 800225c:	7003      	strb	r3, [r0, #0]
  }

  return *p != '\0' ? p : NULL;
 800225e:	7823      	ldrb	r3, [r4, #0]
 8002260:	b153      	cbz	r3, 8002278 <parse_arguments+0x48>
}
 8002262:	4620      	mov	r0, r4
 8002264:	bd38      	pop	{r3, r4, r5, pc}
    p++;
 8002266:	3401      	adds	r4, #1
    *saveptr = strpbrk(p, "\"");
 8002268:	4620      	mov	r0, r4
 800226a:	f007 fd1d 	bl	8009ca8 <strchr>
 800226e:	6028      	str	r0, [r5, #0]
 8002270:	e7f0      	b.n	8002254 <parse_arguments+0x24>
  p = *saveptr;
 8002272:	680c      	ldr	r4, [r1, #0]
  if (!p) {
 8002274:	2c00      	cmp	r4, #0
 8002276:	d1e0      	bne.n	800223a <parse_arguments+0xa>
  return *p != '\0' ? p : NULL;
 8002278:	2400      	movs	r4, #0
}
 800227a:	4620      	mov	r0, r4
 800227c:	bd38      	pop	{r3, r4, r5, pc}
 800227e:	bf00      	nop
 8002280:	0800a6f8 	.word	0x0800a6f8
	...

08002290 <chprintf>:
 * @param[in] chp       pointer to a @p BaseSequentialStream implementing object
 * @param[in] fmt       formatting string
 *
 * @api
 */
int chprintf(BaseSequentialStream *chp, const char *fmt, ...) {
 8002290:	b40e      	push	{r1, r2, r3}
 8002292:	e92d 4ff0 	stmdb	sp!, {r4, r5, r6, r7, r8, r9, sl, fp, lr}
 8002296:	4604      	mov	r4, r0
  int n = 0;
 8002298:	f04f 0800 	mov.w	r8, #0
int chprintf(BaseSequentialStream *chp, const char *fmt, ...) {
 800229c:	b086      	sub	sp, #24
 800229e:	af0f      	add	r7, sp, #60	; 0x3c
 80022a0:	f857 6b04 	ldr.w	r6, [r7], #4
  va_list ap;
  int formatted_bytes;

  va_start(ap, fmt);
 80022a4:	9702      	str	r7, [sp, #8]
    c = *fmt++;
 80022a6:	7831      	ldrb	r1, [r6, #0]
 80022a8:	1c72      	adds	r2, r6, #1
    if (c == 0)
 80022aa:	b161      	cbz	r1, 80022c6 <chprintf+0x36>
    if (c != '%') {
 80022ac:	2925      	cmp	r1, #37	; 0x25
 80022ae:	d010      	beq.n	80022d2 <chprintf+0x42>
    c = *fmt++;
 80022b0:	4616      	mov	r6, r2
      streamPut(chp, (uint8_t)c);
 80022b2:	6823      	ldr	r3, [r4, #0]
 80022b4:	4620      	mov	r0, r4
 80022b6:	689b      	ldr	r3, [r3, #8]
 80022b8:	4798      	blx	r3
    c = *fmt++;
 80022ba:	7831      	ldrb	r1, [r6, #0]
      n++;
 80022bc:	f108 0801 	add.w	r8, r8, #1
    c = *fmt++;
 80022c0:	1c72      	adds	r2, r6, #1
    if (c == 0)
 80022c2:	2900      	cmp	r1, #0
 80022c4:	d1f2      	bne.n	80022ac <chprintf+0x1c>
  formatted_bytes = chvprintf(chp, fmt, ap);
  va_end(ap);

  return formatted_bytes;
}
 80022c6:	4640      	mov	r0, r8
 80022c8:	b006      	add	sp, #24
 80022ca:	e8bd 4ff0 	ldmia.w	sp!, {r4, r5, r6, r7, r8, r9, sl, fp, lr}
 80022ce:	b003      	add	sp, #12
 80022d0:	4770      	bx	lr
    if (*fmt == '-') {
 80022d2:	7871      	ldrb	r1, [r6, #1]
    width = 0;
 80022d4:	f04f 0900 	mov.w	r9, #0
    if (*fmt == '-') {
 80022d8:	292d      	cmp	r1, #45	; 0x2d
 80022da:	bf03      	ittte	eq
 80022dc:	78b1      	ldrbeq	r1, [r6, #2]
      fmt++;
 80022de:	1cb2      	addeq	r2, r6, #2
      left_align = TRUE;
 80022e0:	2001      	moveq	r0, #1
    left_align = FALSE;
 80022e2:	2000      	movne	r0, #0
    if (*fmt == '0') {
 80022e4:	2930      	cmp	r1, #48	; 0x30
 80022e6:	bf03      	ittte	eq
 80022e8:	7851      	ldrbeq	r1, [r2, #1]
      fmt++;
 80022ea:	3201      	addeq	r2, #1
      filler = '0';
 80022ec:	2530      	moveq	r5, #48	; 0x30
    filler = ' ';
 80022ee:	2520      	movne	r5, #32
 80022f0:	3201      	adds	r2, #1
 80022f2:	e005      	b.n	8002300 <chprintf+0x70>
        c = va_arg(ap, int);
 80022f4:	783b      	ldrb	r3, [r7, #0]
 80022f6:	3704      	adds	r7, #4
 80022f8:	f812 1b01 	ldrb.w	r1, [r2], #1
      width = width * 10 + c;
 80022fc:	eb03 0946 	add.w	r9, r3, r6, lsl #1
      if (c >= '0' && c <= '9')
 8002300:	f1a1 0330 	sub.w	r3, r1, #48	; 0x30
 8002304:	b2db      	uxtb	r3, r3
 8002306:	2b09      	cmp	r3, #9
      c = *fmt++;
 8002308:	4694      	mov	ip, r2
      width = width * 10 + c;
 800230a:	eb09 0689 	add.w	r6, r9, r9, lsl #2
      if (c >= '0' && c <= '9')
 800230e:	d9f3      	bls.n	80022f8 <chprintf+0x68>
      else if (c == '*')
 8002310:	292a      	cmp	r1, #42	; 0x2a
 8002312:	d0ef      	beq.n	80022f4 <chprintf+0x64>
    if (c == '.') {
 8002314:	292e      	cmp	r1, #46	; 0x2e
    precision = 0;
 8002316:	f04f 0200 	mov.w	r2, #0
    if (c == '.') {
 800231a:	d048      	beq.n	80023ae <chprintf+0x11e>
    if (c == 'l' || c == 'L') {
 800231c:	f001 03df 	and.w	r3, r1, #223	; 0xdf
 8002320:	2b4c      	cmp	r3, #76	; 0x4c
 8002322:	f10c 0601 	add.w	r6, ip, #1
 8002326:	d04e      	beq.n	80023c6 <chprintf+0x136>
      is_long = (c >= 'A') && (c <= 'Z');
 8002328:	f1a1 0341 	sub.w	r3, r1, #65	; 0x41
    switch (c) {
 800232c:	f1a1 0644 	sub.w	r6, r1, #68	; 0x44
      is_long = (c >= 'A') && (c <= 'Z');
 8002330:	b2db      	uxtb	r3, r3
    switch (c) {
 8002332:	2e34      	cmp	r6, #52	; 0x34
 8002334:	f200 811f 	bhi.w	8002576 <chprintf+0x2e6>
 8002338:	e8df f016 	tbh	[pc, r6, lsl #1]
 800233c:	011d016f 	.word	0x011d016f
 8002340:	011d011d 	.word	0x011d011d
 8002344:	016f011d 	.word	0x016f011d
 8002348:	011d011d 	.word	0x011d011d
 800234c:	011d011d 	.word	0x011d011d
 8002350:	0119011d 	.word	0x0119011d
 8002354:	011d011d 	.word	0x011d011d
 8002358:	011d011d 	.word	0x011d011d
 800235c:	00e7011d 	.word	0x00e7011d
 8002360:	011d011d 	.word	0x011d011d
 8002364:	011d0178 	.word	0x011d0178
 8002368:	011d011d 	.word	0x011d011d
 800236c:	011d011d 	.word	0x011d011d
 8002370:	011d011d 	.word	0x011d011d
 8002374:	011d011d 	.word	0x011d011d
 8002378:	008f011d 	.word	0x008f011d
 800237c:	011d016f 	.word	0x011d016f
 8002380:	011d011d 	.word	0x011d011d
 8002384:	016f011d 	.word	0x016f011d
 8002388:	011d011d 	.word	0x011d011d
 800238c:	011d011d 	.word	0x011d011d
 8002390:	0119011d 	.word	0x0119011d
 8002394:	011d011d 	.word	0x011d011d
 8002398:	006d011d 	.word	0x006d011d
 800239c:	00e7011d 	.word	0x00e7011d
 80023a0:	011d011d 	.word	0x011d011d
 80023a4:	0178      	.short	0x0178
          c = va_arg(ap, int);
 80023a6:	783b      	ldrb	r3, [r7, #0]
 80023a8:	3704      	adds	r7, #4
        precision += c;
 80023aa:	eb03 0246 	add.w	r2, r3, r6, lsl #1
        c = *fmt++;
 80023ae:	f81c 1b01 	ldrb.w	r1, [ip], #1
        precision *= 10;
 80023b2:	eb02 0682 	add.w	r6, r2, r2, lsl #2
        if (c >= '0' && c <= '9')
 80023b6:	f1a1 0330 	sub.w	r3, r1, #48	; 0x30
 80023ba:	b2db      	uxtb	r3, r3
 80023bc:	2b09      	cmp	r3, #9
 80023be:	d9f4      	bls.n	80023aa <chprintf+0x11a>
        else if (c == '*')
 80023c0:	292a      	cmp	r1, #42	; 0x2a
 80023c2:	d0f0      	beq.n	80023a6 <chprintf+0x116>
 80023c4:	e7aa      	b.n	800231c <chprintf+0x8c>
      if (*fmt)
 80023c6:	f89c 3000 	ldrb.w	r3, [ip]
 80023ca:	b30b      	cbz	r3, 8002410 <chprintf+0x180>
    switch (c) {
 80023cc:	f1a3 0144 	sub.w	r1, r3, #68	; 0x44
 80023d0:	2934      	cmp	r1, #52	; 0x34
 80023d2:	f200 80d2 	bhi.w	800257a <chprintf+0x2ea>
 80023d6:	e8df f001 	tbb	[pc, r1]
 80023da:	d0e1      	.short	0xd0e1
 80023dc:	e1d0d0d0 	.word	0xe1d0d0d0
 80023e0:	d0d0d0d0 	.word	0xd0d0d0d0
 80023e4:	d0d0cbd0 	.word	0xd0d0cbd0
 80023e8:	99d0d0d0 	.word	0x99d0d0d0
 80023ec:	d0ded0d0 	.word	0xd0ded0d0
 80023f0:	d0d0d0d0 	.word	0xd0d0d0d0
 80023f4:	d0d0d0d0 	.word	0xd0d0d0d0
 80023f8:	d0e141d0 	.word	0xd0e141d0
 80023fc:	e1d0d0d0 	.word	0xe1d0d0d0
 8002400:	d0d0d0d0 	.word	0xd0d0d0d0
 8002404:	d0d0cbd0 	.word	0xd0d0cbd0
 8002408:	99d01fd0 	.word	0x99d01fd0
 800240c:	d0d0      	.short	0xd0d0
 800240e:	de          	.byte	0xde
 800240f:	00          	.byte	0x00
      if (*fmt)
 8002410:	460b      	mov	r3, r1
 8002412:	4666      	mov	r6, ip
 8002414:	e7da      	b.n	80023cc <chprintf+0x13c>
    switch (c) {
 8002416:	4666      	mov	r6, ip
      if ((s = va_arg(ap, char *)) == 0)
 8002418:	f8d7 a000 	ldr.w	sl, [r7]
 800241c:	3704      	adds	r7, #4
 800241e:	f1ba 0f00 	cmp.w	sl, #0
 8002422:	f000 8107 	beq.w	8002634 <chprintf+0x3a4>
 8002426:	f89a 3000 	ldrb.w	r3, [sl]
 800242a:	4655      	mov	r5, sl
      if (precision == 0)
 800242c:	2a00      	cmp	r2, #0
 800242e:	f040 8108 	bne.w	8002642 <chprintf+0x3b2>
      for (p = s; *p && (--precision >= 0); p++)
 8002432:	2b00      	cmp	r3, #0
 8002434:	f000 8115 	beq.w	8002662 <chprintf+0x3d2>
 8002438:	f647 72fe 	movw	r2, #32766	; 0x7ffe
 800243c:	4653      	mov	r3, sl
 800243e:	e001      	b.n	8002444 <chprintf+0x1b4>
 8002440:	3a01      	subs	r2, #1
 8002442:	d403      	bmi.n	800244c <chprintf+0x1bc>
 8002444:	f813 1f01 	ldrb.w	r1, [r3, #1]!
 8002448:	2900      	cmp	r1, #0
 800244a:	d1f9      	bne.n	8002440 <chprintf+0x1b0>
 800244c:	1b5b      	subs	r3, r3, r5
 800244e:	eba9 0903 	sub.w	r9, r9, r3
 8002452:	3b01      	subs	r3, #1
 8002454:	9300      	str	r3, [sp, #0]
      filler = ' ';
 8002456:	2520      	movs	r5, #32
 8002458:	e00b      	b.n	8002472 <chprintf+0x1e2>
    switch (c) {
 800245a:	4666      	mov	r6, ip
      *p++ = va_arg(ap, int);
 800245c:	683b      	ldr	r3, [r7, #0]
 800245e:	f10d 0a18 	add.w	sl, sp, #24
 8002462:	f80a 3d0c 	strb.w	r3, [sl, #-12]!
 8002466:	2300      	movs	r3, #0
      filler = ' ';
 8002468:	2520      	movs	r5, #32
 800246a:	f109 39ff 	add.w	r9, r9, #4294967295	; 0xffffffff
      *p++ = va_arg(ap, int);
 800246e:	3704      	adds	r7, #4
 8002470:	9300      	str	r3, [sp, #0]
    if ((width -= i) < 0)
 8002472:	f1b9 0f00 	cmp.w	r9, #0
 8002476:	db21      	blt.n	80024bc <chprintf+0x22c>
    if (left_align == FALSE)
 8002478:	2800      	cmp	r0, #0
 800247a:	f040 8088 	bne.w	800258e <chprintf+0x2fe>
      width = -width;
 800247e:	f1c9 0300 	rsb	r3, r9, #0
    if (width < 0) {
 8002482:	f1b9 0f00 	cmp.w	r9, #0
 8002486:	f000 8081 	beq.w	800258c <chprintf+0x2fc>
      if (*s == '-' && filler == '0') {
 800248a:	f89a 1000 	ldrb.w	r1, [sl]
 800248e:	6822      	ldr	r2, [r4, #0]
 8002490:	292d      	cmp	r1, #45	; 0x2d
 8002492:	6892      	ldr	r2, [r2, #8]
 8002494:	f000 80af 	beq.w	80025f6 <chprintf+0x366>
 8002498:	469b      	mov	fp, r3
 800249a:	e001      	b.n	80024a0 <chprintf+0x210>
 800249c:	6823      	ldr	r3, [r4, #0]
 800249e:	689a      	ldr	r2, [r3, #8]
        streamPut(chp, (uint8_t)filler);
 80024a0:	4629      	mov	r1, r5
 80024a2:	4620      	mov	r0, r4
 80024a4:	4790      	blx	r2
      } while (++width != 0);
 80024a6:	f11b 0b01 	adds.w	fp, fp, #1
 80024aa:	d1f7      	bne.n	800249c <chprintf+0x20c>
    while (--i >= 0) {
 80024ac:	9a00      	ldr	r2, [sp, #0]
 80024ae:	465b      	mov	r3, fp
 80024b0:	2a00      	cmp	r2, #0
 80024b2:	44c8      	add	r8, r9
 80024b4:	f6ff aef7 	blt.w	80022a6 <chprintf+0x16>
 80024b8:	4699      	mov	r9, r3
 80024ba:	e005      	b.n	80024c8 <chprintf+0x238>
 80024bc:	9b00      	ldr	r3, [sp, #0]
 80024be:	2b00      	cmp	r3, #0
 80024c0:	f6ff aef1 	blt.w	80022a6 <chprintf+0x16>
      width = 0;
 80024c4:	f04f 0900 	mov.w	r9, #0
      width = -width;
 80024c8:	f8dd b000 	ldr.w	fp, [sp]
      streamPut(chp, (uint8_t)*s++);
 80024cc:	6823      	ldr	r3, [r4, #0]
    while (--i >= 0) {
 80024ce:	f10b 3bff 	add.w	fp, fp, #4294967295	; 0xffffffff
      streamPut(chp, (uint8_t)*s++);
 80024d2:	689b      	ldr	r3, [r3, #8]
 80024d4:	f81a 1b01 	ldrb.w	r1, [sl], #1
 80024d8:	4620      	mov	r0, r4
 80024da:	4798      	blx	r3
    while (--i >= 0) {
 80024dc:	f1bb 3fff 	cmp.w	fp, #4294967295	; 0xffffffff
 80024e0:	d1f4      	bne.n	80024cc <chprintf+0x23c>
 80024e2:	9b00      	ldr	r3, [sp, #0]
 80024e4:	f108 0801 	add.w	r8, r8, #1
 80024e8:	4443      	add	r3, r8
 80024ea:	4698      	mov	r8, r3
    while (width) {
 80024ec:	f1b9 0f00 	cmp.w	r9, #0
 80024f0:	f43f aed9 	beq.w	80022a6 <chprintf+0x16>
 80024f4:	46ca      	mov	sl, r9
      streamPut(chp, (uint8_t)filler);
 80024f6:	6823      	ldr	r3, [r4, #0]
 80024f8:	4629      	mov	r1, r5
 80024fa:	689b      	ldr	r3, [r3, #8]
 80024fc:	4620      	mov	r0, r4
 80024fe:	4798      	blx	r3
    while (width) {
 8002500:	f1ba 0a01 	subs.w	sl, sl, #1
 8002504:	d1f7      	bne.n	80024f6 <chprintf+0x266>
 8002506:	44c8      	add	r8, r9
 8002508:	e6cd      	b.n	80022a6 <chprintf+0x16>
    switch (c) {
 800250a:	4666      	mov	r6, ip
    case 'U':
 800250c:	f04f 0e0a 	mov.w	lr, #10
 8002510:	f857 2b04 	ldr.w	r2, [r7], #4
  q = p + MAX_FILLER;
 8002514:	f10d 0117 	add.w	r1, sp, #23
 8002518:	e000      	b.n	800251c <chprintf+0x28c>
  } while ((ll /= radix) != 0);
 800251a:	4659      	mov	r1, fp
    i = (int)(l % radix);
 800251c:	fbb2 fcfe 	udiv	ip, r2, lr
 8002520:	fb0e 221c 	mls	r2, lr, ip, r2
    i += '0';
 8002524:	f102 0330 	add.w	r3, r2, #48	; 0x30
    if (i > '9')
 8002528:	2b39      	cmp	r3, #57	; 0x39
      i += 'A' - '0' - 10;
 800252a:	bfc8      	it	gt
 800252c:	f102 0337 	addgt.w	r3, r2, #55	; 0x37
    l /= radix;
 8002530:	4662      	mov	r2, ip
    *--q = i;
 8002532:	b2db      	uxtb	r3, r3
 8002534:	f801 3c01 	strb.w	r3, [r1, #-1]
 8002538:	f101 3bff 	add.w	fp, r1, #4294967295	; 0xffffffff
  } while ((ll /= radix) != 0);
 800253c:	2a00      	cmp	r2, #0
 800253e:	d1ec      	bne.n	800251a <chprintf+0x28a>
 8002540:	460a      	mov	r2, r1
  i = (int)(p + MAX_FILLER - q);
 8002542:	f10d 0117 	add.w	r1, sp, #23
 8002546:	f10d 0a0c 	add.w	sl, sp, #12
 800254a:	eba1 0e0b 	sub.w	lr, r1, fp
 800254e:	46d4      	mov	ip, sl
 8002550:	eb0b 010e 	add.w	r1, fp, lr
 8002554:	e001      	b.n	800255a <chprintf+0x2ca>
 8002556:	f812 3b01 	ldrb.w	r3, [r2], #1
  while (--i);
 800255a:	428a      	cmp	r2, r1
    *p++ = *q++;
 800255c:	f80c 3b01 	strb.w	r3, [ip], #1
  while (--i);
 8002560:	d1f9      	bne.n	8002556 <chprintf+0x2c6>
 8002562:	f10e 33ff 	add.w	r3, lr, #4294967295	; 0xffffffff
 8002566:	eba9 090e 	sub.w	r9, r9, lr
 800256a:	9300      	str	r3, [sp, #0]
 800256c:	e781      	b.n	8002472 <chprintf+0x1e2>
    switch (c) {
 800256e:	4666      	mov	r6, ip
    case 'O':
 8002570:	f04f 0e08 	mov.w	lr, #8
 8002574:	e7cc      	b.n	8002510 <chprintf+0x280>
    switch (c) {
 8002576:	4666      	mov	r6, ip
 8002578:	460b      	mov	r3, r1
      *p++ = c;
 800257a:	2200      	movs	r2, #0
 800257c:	f10d 0a18 	add.w	sl, sp, #24
 8002580:	9200      	str	r2, [sp, #0]
 8002582:	f109 39ff 	add.w	r9, r9, #4294967295	; 0xffffffff
 8002586:	f80a 3d0c 	strb.w	r3, [sl, #-12]!
 800258a:	e772      	b.n	8002472 <chprintf+0x1e2>
      width = -width;
 800258c:	4699      	mov	r9, r3
    while (--i >= 0) {
 800258e:	9b00      	ldr	r3, [sp, #0]
 8002590:	2b00      	cmp	r3, #0
 8002592:	da99      	bge.n	80024c8 <chprintf+0x238>
 8002594:	e7aa      	b.n	80024ec <chprintf+0x25c>
    switch (c) {
 8002596:	f04f 0e10 	mov.w	lr, #16
 800259a:	e7b9      	b.n	8002510 <chprintf+0x280>
 800259c:	1d39      	adds	r1, r7, #4
        l = va_arg(ap, long);
 800259e:	683a      	ldr	r2, [r7, #0]
 80025a0:	460f      	mov	r7, r1
      if (l < 0) {
 80025a2:	2a00      	cmp	r2, #0
 80025a4:	db54      	blt.n	8002650 <chprintf+0x3c0>
    p = tmpbuf;
 80025a6:	f10d 0a0c 	add.w	sl, sp, #12
 80025aa:	46d6      	mov	lr, sl
  q = p + MAX_FILLER;
 80025ac:	f10e 0b0b 	add.w	fp, lr, #11
 80025b0:	4659      	mov	r1, fp
    i = (int)(l % radix);
 80025b2:	4b2e      	ldr	r3, [pc, #184]	; (800266c <chprintf+0x3dc>)
 80025b4:	fba3 c302 	umull	ip, r3, r3, r2
 80025b8:	08db      	lsrs	r3, r3, #3
 80025ba:	469c      	mov	ip, r3
 80025bc:	eb03 0383 	add.w	r3, r3, r3, lsl #2
 80025c0:	eba2 0343 	sub.w	r3, r2, r3, lsl #1
  } while ((ll /= radix) != 0);
 80025c4:	4662      	mov	r2, ip
    i += '0';
 80025c6:	3330      	adds	r3, #48	; 0x30
    *--q = i;
 80025c8:	b2db      	uxtb	r3, r3
 80025ca:	f801 3d01 	strb.w	r3, [r1, #-1]!
  } while ((ll /= radix) != 0);
 80025ce:	2a00      	cmp	r2, #0
 80025d0:	d1ef      	bne.n	80025b2 <chprintf+0x322>
  i = (int)(p + MAX_FILLER - q);
 80025d2:	ebab 0201 	sub.w	r2, fp, r1
 80025d6:	4472      	add	r2, lr
 80025d8:	e001      	b.n	80025de <chprintf+0x34e>
 80025da:	f811 3f01 	ldrb.w	r3, [r1, #1]!
    *p++ = *q++;
 80025de:	f80e 3b01 	strb.w	r3, [lr], #1
  while (--i);
 80025e2:	4596      	cmp	lr, r2
 80025e4:	d1f9      	bne.n	80025da <chprintf+0x34a>
 80025e6:	ebae 0e0a 	sub.w	lr, lr, sl
 80025ea:	f10e 33ff 	add.w	r3, lr, #4294967295	; 0xffffffff
 80025ee:	eba9 090e 	sub.w	r9, r9, lr
 80025f2:	9300      	str	r3, [sp, #0]
 80025f4:	e73d      	b.n	8002472 <chprintf+0x1e2>
      if (*s == '-' && filler == '0') {
 80025f6:	2d30      	cmp	r5, #48	; 0x30
 80025f8:	f47f af4e 	bne.w	8002498 <chprintf+0x208>
        streamPut(chp, (uint8_t)*s++);
 80025fc:	4620      	mov	r0, r4
 80025fe:	9301      	str	r3, [sp, #4]
 8002600:	4790      	blx	r2
 8002602:	9b00      	ldr	r3, [sp, #0]
 8002604:	6822      	ldr	r2, [r4, #0]
 8002606:	3b01      	subs	r3, #1
 8002608:	9300      	str	r3, [sp, #0]
 800260a:	9b01      	ldr	r3, [sp, #4]
 800260c:	f108 0801 	add.w	r8, r8, #1
 8002610:	6892      	ldr	r2, [r2, #8]
 8002612:	f10a 0a01 	add.w	sl, sl, #1
 8002616:	469b      	mov	fp, r3
 8002618:	e742      	b.n	80024a0 <chprintf+0x210>
 800261a:	4639      	mov	r1, r7
 800261c:	f851 2b04 	ldr.w	r2, [r1], #4
      if (is_long)
 8002620:	2b19      	cmp	r3, #25
 8002622:	4666      	mov	r6, ip
        l = va_arg(ap, int);
 8002624:	bf88      	it	hi
 8002626:	460f      	movhi	r7, r1
      if (is_long)
 8002628:	d8bb      	bhi.n	80025a2 <chprintf+0x312>
 800262a:	e7b8      	b.n	800259e <chprintf+0x30e>
    switch (c) {
 800262c:	4666      	mov	r6, ip
 800262e:	f04f 0e10 	mov.w	lr, #16
 8002632:	e76d      	b.n	8002510 <chprintf+0x280>
 8002634:	4d0e      	ldr	r5, [pc, #56]	; (8002670 <chprintf+0x3e0>)
      if (precision == 0)
 8002636:	46aa      	mov	sl, r5
 8002638:	2a00      	cmp	r2, #0
 800263a:	f43f aefd 	beq.w	8002438 <chprintf+0x1a8>
      for (p = s; *p && (--precision >= 0); p++)
 800263e:	3a01      	subs	r2, #1
 8002640:	e6fc      	b.n	800243c <chprintf+0x1ac>
 8002642:	2b00      	cmp	r3, #0
 8002644:	d1fb      	bne.n	800263e <chprintf+0x3ae>
 8002646:	f04f 33ff 	mov.w	r3, #4294967295	; 0xffffffff
      filler = ' ';
 800264a:	2520      	movs	r5, #32
      for (p = s; *p && (--precision >= 0); p++)
 800264c:	9300      	str	r3, [sp, #0]
 800264e:	e710      	b.n	8002472 <chprintf+0x1e2>
        *p++ = '-';
 8002650:	232d      	movs	r3, #45	; 0x2d
        l = -l;
 8002652:	4252      	negs	r2, r2
        *p++ = '-';
 8002654:	f88d 300c 	strb.w	r3, [sp, #12]
 8002658:	f10d 0e0d 	add.w	lr, sp, #13
 800265c:	f10d 0a0c 	add.w	sl, sp, #12
 8002660:	e7a4      	b.n	80025ac <chprintf+0x31c>
      for (p = s; *p && (--precision >= 0); p++)
 8002662:	f04f 33ff 	mov.w	r3, #4294967295	; 0xffffffff
      filler = ' ';
 8002666:	2520      	movs	r5, #32
      for (p = s; *p && (--precision >= 0); p++)
 8002668:	9300      	str	r3, [sp, #0]
 800266a:	e705      	b.n	8002478 <chprintf+0x1e8>
 800266c:	cccccccd 	.word	0xcccccccd
 8002670:	0800a004 	.word	0x0800a004
	...

08002680 <cmd_systime>:

#if (SHELL_CMD_SYSTIME_ENABLED == TRUE) || defined(__DOXYGEN__)
static void cmd_systime(BaseSequentialStream *chp, int argc, char *argv[]) {

  (void)argv;
  if (argc > 0) {
 8002680:	2900      	cmp	r1, #0
 8002682:	dd03      	ble.n	800268c <cmd_systime+0xc>
    shellUsage(chp, "systime");
 8002684:	4a08      	ldr	r2, [pc, #32]	; (80026a8 <cmd_systime+0x28>)
 8002686:	4909      	ldr	r1, [pc, #36]	; (80026ac <cmd_systime+0x2c>)
 8002688:	f7ff be02 	b.w	8002290 <chprintf>
 800268c:	2320      	movs	r3, #32
 800268e:	f383 8811 	msr	BASEPRI, r3
  return (systime_t)STM32_ST_TIM->CNT;
 8002692:	f04f 4280 	mov.w	r2, #1073741824	; 0x40000000
 8002696:	2300      	movs	r3, #0
 8002698:	6a52      	ldr	r2, [r2, #36]	; 0x24
 800269a:	f383 8811 	msr	BASEPRI, r3
    return;
  }
  chprintf(chp, "%lu"SHELL_NEWLINE_STR, (unsigned long)chVTGetSystemTime());
 800269e:	4904      	ldr	r1, [pc, #16]	; (80026b0 <cmd_systime+0x30>)
 80026a0:	b292      	uxth	r2, r2
 80026a2:	f7ff bdf5 	b.w	8002290 <chprintf>
 80026a6:	bf00      	nop
 80026a8:	0800a224 	.word	0x0800a224
 80026ac:	0800a22c 	.word	0x0800a22c
 80026b0:	0800a238 	.word	0x0800a238
	...

080026c0 <cmd_echo>:
  if (argc != 1) {
 80026c0:	2901      	cmp	r1, #1
 80026c2:	d003      	beq.n	80026cc <cmd_echo+0xc>
    shellUsage(chp, "echo \"message\"");
 80026c4:	4a03      	ldr	r2, [pc, #12]	; (80026d4 <cmd_echo+0x14>)
 80026c6:	4904      	ldr	r1, [pc, #16]	; (80026d8 <cmd_echo+0x18>)
 80026c8:	f7ff bde2 	b.w	8002290 <chprintf>
  chprintf(chp, "%s"SHELL_NEWLINE_STR, argv[0]);
 80026cc:	6812      	ldr	r2, [r2, #0]
 80026ce:	4903      	ldr	r1, [pc, #12]	; (80026dc <cmd_echo+0x1c>)
 80026d0:	f7ff bdde 	b.w	8002290 <chprintf>
 80026d4:	0800a00c 	.word	0x0800a00c
 80026d8:	0800a22c 	.word	0x0800a22c
 80026dc:	0800a01c 	.word	0x0800a01c

080026e0 <cmd_info>:
  if (argc > 0) {
 80026e0:	2900      	cmp	r1, #0
 80026e2:	dd03      	ble.n	80026ec <cmd_info+0xc>
    shellUsage(chp, "info");
 80026e4:	4a19      	ldr	r2, [pc, #100]	; (800274c <cmd_info+0x6c>)
 80026e6:	491a      	ldr	r1, [pc, #104]	; (8002750 <cmd_info+0x70>)
 80026e8:	f7ff bdd2 	b.w	8002290 <chprintf>
static void cmd_info(BaseSequentialStream *chp, int argc, char *argv[]) {
 80026ec:	b510      	push	{r4, lr}
 80026ee:	4604      	mov	r4, r0
 80026f0:	b082      	sub	sp, #8
  chprintf(chp, "Kernel:       %s"SHELL_NEWLINE_STR, CH_KERNEL_VERSION);
 80026f2:	4a18      	ldr	r2, [pc, #96]	; (8002754 <cmd_info+0x74>)
 80026f4:	4918      	ldr	r1, [pc, #96]	; (8002758 <cmd_info+0x78>)
 80026f6:	f7ff fdcb 	bl	8002290 <chprintf>
  chprintf(chp, "Compiler:     %s"SHELL_NEWLINE_STR, PORT_COMPILER_NAME);
 80026fa:	4a18      	ldr	r2, [pc, #96]	; (800275c <cmd_info+0x7c>)
 80026fc:	4918      	ldr	r1, [pc, #96]	; (8002760 <cmd_info+0x80>)
 80026fe:	4620      	mov	r0, r4
 8002700:	f7ff fdc6 	bl	8002290 <chprintf>
  chprintf(chp, "Architecture: %s"SHELL_NEWLINE_STR, PORT_ARCHITECTURE_NAME);
 8002704:	4a17      	ldr	r2, [pc, #92]	; (8002764 <cmd_info+0x84>)
 8002706:	4918      	ldr	r1, [pc, #96]	; (8002768 <cmd_info+0x88>)
 8002708:	4620      	mov	r0, r4
 800270a:	f7ff fdc1 	bl	8002290 <chprintf>
  chprintf(chp, "Core Variant: %s"SHELL_NEWLINE_STR, PORT_CORE_VARIANT_NAME);
 800270e:	4a17      	ldr	r2, [pc, #92]	; (800276c <cmd_info+0x8c>)
 8002710:	4917      	ldr	r1, [pc, #92]	; (8002770 <cmd_info+0x90>)
 8002712:	4620      	mov	r0, r4
 8002714:	f7ff fdbc 	bl	8002290 <chprintf>
  chprintf(chp, "Port Info:    %s"SHELL_NEWLINE_STR, PORT_INFO);
 8002718:	4a16      	ldr	r2, [pc, #88]	; (8002774 <cmd_info+0x94>)
 800271a:	4917      	ldr	r1, [pc, #92]	; (8002778 <cmd_info+0x98>)
 800271c:	4620      	mov	r0, r4
 800271e:	f7ff fdb7 	bl	8002290 <chprintf>
  chprintf(chp, "Platform:     %s"SHELL_NEWLINE_STR, PLATFORM_NAME);
 8002722:	4a16      	ldr	r2, [pc, #88]	; (800277c <cmd_info+0x9c>)
 8002724:	4916      	ldr	r1, [pc, #88]	; (8002780 <cmd_info+0xa0>)
 8002726:	4620      	mov	r0, r4
 8002728:	f7ff fdb2 	bl	8002290 <chprintf>
  chprintf(chp, "Board:        %s"SHELL_NEWLINE_STR, BOARD_NAME);
 800272c:	4a15      	ldr	r2, [pc, #84]	; (8002784 <cmd_info+0xa4>)
 800272e:	4916      	ldr	r1, [pc, #88]	; (8002788 <cmd_info+0xa8>)
 8002730:	4620      	mov	r0, r4
 8002732:	f7ff fdad 	bl	8002290 <chprintf>
  chprintf(chp, "Build time:   %s%s%s"SHELL_NEWLINE_STR, __DATE__, " - ", __TIME__);
 8002736:	4b15      	ldr	r3, [pc, #84]	; (800278c <cmd_info+0xac>)
 8002738:	4620      	mov	r0, r4
 800273a:	9300      	str	r3, [sp, #0]
 800273c:	4a14      	ldr	r2, [pc, #80]	; (8002790 <cmd_info+0xb0>)
 800273e:	4b15      	ldr	r3, [pc, #84]	; (8002794 <cmd_info+0xb4>)
 8002740:	4915      	ldr	r1, [pc, #84]	; (8002798 <cmd_info+0xb8>)
 8002742:	f7ff fda5 	bl	8002290 <chprintf>
}
 8002746:	b002      	add	sp, #8
 8002748:	bd10      	pop	{r4, pc}
 800274a:	bf00      	nop
 800274c:	0800a024 	.word	0x0800a024
 8002750:	0800a22c 	.word	0x0800a22c
 8002754:	0800a02c 	.word	0x0800a02c
 8002758:	0800a034 	.word	0x0800a034
 800275c:	0800a048 	.word	0x0800a048
 8002760:	0800a090 	.word	0x0800a090
 8002764:	0800a0a4 	.word	0x0800a0a4
 8002768:	0800a0ac 	.word	0x0800a0ac
 800276c:	0800a0c0 	.word	0x0800a0c0
 8002770:	0800a0cc 	.word	0x0800a0cc
 8002774:	0800a0e0 	.word	0x0800a0e0
 8002778:	0800a0f8 	.word	0x0800a0f8
 800277c:	0800a10c 	.word	0x0800a10c
 8002780:	0800a138 	.word	0x0800a138
 8002784:	0800a14c 	.word	0x0800a14c
 8002788:	0800a160 	.word	0x0800a160
 800278c:	0800a19c 	.word	0x0800a19c
 8002790:	0800a178 	.word	0x0800a178
 8002794:	0800a174 	.word	0x0800a174
 8002798:	0800a184 	.word	0x0800a184
 800279c:	00000000 	.word	0x00000000

080027a0 <rt_test_010_012_execute>:
 */

static void rt_test_010_012_execute(void) {

  /* [10.12.1] The size of the system area is printed.*/
  test_set_step(1);
 80027a0:	2301      	movs	r3, #1
static void rt_test_010_012_execute(void) {
 80027a2:	b570      	push	{r4, r5, r6, lr}
  test_set_step(1);
 80027a4:	4d32      	ldr	r5, [pc, #200]	; (8002870 <rt_test_010_012_execute+0xd0>)
  {
    test_print("--- System: ");
    test_printn(sizeof(ch_system_t));
    test_println(" bytes");
 80027a6:	4c33      	ldr	r4, [pc, #204]	; (8002874 <rt_test_010_012_execute+0xd4>)
    test_print("--- System: ");
 80027a8:	4833      	ldr	r0, [pc, #204]	; (8002878 <rt_test_010_012_execute+0xd8>)
  test_set_step(1);
 80027aa:	602b      	str	r3, [r5, #0]
    test_print("--- System: ");
 80027ac:	f7fe f9d0 	bl	8000b50 <test_print>
 80027b0:	2074      	movs	r0, #116	; 0x74
 80027b2:	f7fe f92d 	bl	8000a10 <test_printn.part.0>
    test_println(" bytes");
 80027b6:	4620      	mov	r0, r4
 80027b8:	f7fe f9aa 	bl	8000b10 <test_println>
  }

  /* [10.12.2] The size of a thread structure is printed.*/
  test_set_step(2);
 80027bc:	2302      	movs	r3, #2
  {
    test_print("--- Thread: ");
 80027be:	482f      	ldr	r0, [pc, #188]	; (800287c <rt_test_010_012_execute+0xdc>)
  test_set_step(2);
 80027c0:	602b      	str	r3, [r5, #0]
    test_print("--- Thread: ");
 80027c2:	f7fe f9c5 	bl	8000b50 <test_print>
 80027c6:	2044      	movs	r0, #68	; 0x44
 80027c8:	f7fe f922 	bl	8000a10 <test_printn.part.0>
    test_printn(sizeof(thread_t));
    test_println(" bytes");
 80027cc:	4620      	mov	r0, r4
 80027ce:	f7fe f99f 	bl	8000b10 <test_println>
  }

  /* [10.12.3] The size of a virtual timer structure is printed.*/
  test_set_step(3);
 80027d2:	2303      	movs	r3, #3
    test_printn(sizeof(virtual_timer_t));
    test_println(" bytes");
  }

  /* [10.12.4] The size of a semaphore structure is printed.*/
  test_set_step(4);
 80027d4:	2604      	movs	r6, #4
    test_print("--- Timer : ");
 80027d6:	482a      	ldr	r0, [pc, #168]	; (8002880 <rt_test_010_012_execute+0xe0>)
  test_set_step(3);
 80027d8:	602b      	str	r3, [r5, #0]
    test_print("--- Timer : ");
 80027da:	f7fe f9b9 	bl	8000b50 <test_print>
 80027de:	2014      	movs	r0, #20
 80027e0:	f7fe f916 	bl	8000a10 <test_printn.part.0>
    test_println(" bytes");
 80027e4:	4620      	mov	r0, r4
 80027e6:	f7fe f993 	bl	8000b10 <test_println>
  {
#if CH_CFG_USE_SEMAPHORES || defined(__DOXYGEN__)
    test_print("--- Semaph: ");
 80027ea:	4826      	ldr	r0, [pc, #152]	; (8002884 <rt_test_010_012_execute+0xe4>)
  test_set_step(4);
 80027ec:	602e      	str	r6, [r5, #0]
    test_print("--- Semaph: ");
 80027ee:	f7fe f9af 	bl	8000b50 <test_print>
 80027f2:	200c      	movs	r0, #12
 80027f4:	f7fe f90c 	bl	8000a10 <test_printn.part.0>
    test_printn(sizeof(semaphore_t));
    test_println(" bytes");
 80027f8:	4620      	mov	r0, r4
 80027fa:	f7fe f989 	bl	8000b10 <test_println>
#endif
  }

  /* [10.12.5] The size of a mutex is printed.*/
  test_set_step(5);
 80027fe:	2305      	movs	r3, #5
  {
#if CH_CFG_USE_MUTEXES || defined(__DOXYGEN__)
    test_print("--- Mutex : ");
 8002800:	4821      	ldr	r0, [pc, #132]	; (8002888 <rt_test_010_012_execute+0xe8>)
  test_set_step(5);
 8002802:	602b      	str	r3, [r5, #0]
    test_print("--- Mutex : ");
 8002804:	f7fe f9a4 	bl	8000b50 <test_print>
 8002808:	2010      	movs	r0, #16
 800280a:	f7fe f901 	bl	8000a10 <test_printn.part.0>
    test_printn(sizeof(mutex_t));
    test_println(" bytes");
 800280e:	4620      	mov	r0, r4
 8002810:	f7fe f97e 	bl	8000b10 <test_println>
#endif
  }

  /* [10.12.6] The size of a condition variable is printed.*/
  test_set_step(6);
 8002814:	2306      	movs	r3, #6
  {
#if CH_CFG_USE_CONDVARS || defined(__DOXYGEN__)
    test_print("--- CondV.: ");
 8002816:	481d      	ldr	r0, [pc, #116]	; (800288c <rt_test_010_012_execute+0xec>)
  test_set_step(6);
 8002818:	602b      	str	r3, [r5, #0]
    test_print("--- CondV.: ");
 800281a:	f7fe f999 	bl	8000b50 <test_print>
 800281e:	2008      	movs	r0, #8
 8002820:	f7fe f8f6 	bl	8000a10 <test_printn.part.0>
    test_printn(sizeof(condition_variable_t));
    test_println(" bytes");
 8002824:	4620      	mov	r0, r4
 8002826:	f7fe f973 	bl	8000b10 <test_println>
#endif
  }

  /* [10.12.7] The size of an event source is printed.*/
  test_set_step(7);
 800282a:	2307      	movs	r3, #7
  {
#if CH_CFG_USE_EVENTS || defined(__DOXYGEN__)
    test_print("--- EventS: ");
 800282c:	4818      	ldr	r0, [pc, #96]	; (8002890 <rt_test_010_012_execute+0xf0>)
  test_set_step(7);
 800282e:	602b      	str	r3, [r5, #0]
    test_print("--- EventS: ");
 8002830:	f7fe f98e 	bl	8000b50 <test_print>
 8002834:	4630      	mov	r0, r6
 8002836:	f7fe f8eb 	bl	8000a10 <test_printn.part.0>
    test_printn(sizeof(event_source_t));
    test_println(" bytes");
 800283a:	4620      	mov	r0, r4
 800283c:	f7fe f968 	bl	8000b10 <test_println>
#endif
  }

  /* [10.12.8] The size of an event listener is printed.*/
  test_set_step(8);
 8002840:	2308      	movs	r3, #8
  {
#if CH_CFG_USE_EVENTS || defined(__DOXYGEN__)
    test_print("--- EventL: ");
 8002842:	4814      	ldr	r0, [pc, #80]	; (8002894 <rt_test_010_012_execute+0xf4>)
  test_set_step(8);
 8002844:	602b      	str	r3, [r5, #0]
    test_print("--- EventL: ");
 8002846:	f7fe f983 	bl	8000b50 <test_print>
 800284a:	2014      	movs	r0, #20
 800284c:	f7fe f8e0 	bl	8000a10 <test_printn.part.0>
    test_printn(sizeof(event_listener_t));
    test_println(" bytes");
 8002850:	4620      	mov	r0, r4
 8002852:	f7fe f95d 	bl	8000b10 <test_println>
#endif
  }

  /* [10.12.9] The size of a mailbox is printed.*/
  test_set_step(9);
 8002856:	2309      	movs	r3, #9
  {
#if CH_CFG_USE_MAILBOXES || defined(__DOXYGEN__)
    test_print("--- MailB.: ");
 8002858:	480f      	ldr	r0, [pc, #60]	; (8002898 <rt_test_010_012_execute+0xf8>)
  test_set_step(9);
 800285a:	602b      	str	r3, [r5, #0]
    test_print("--- MailB.: ");
 800285c:	f7fe f978 	bl	8000b50 <test_print>
 8002860:	2028      	movs	r0, #40	; 0x28
 8002862:	f7fe f8d5 	bl	8000a10 <test_printn.part.0>
    test_printn(sizeof(mailbox_t));
    test_println(" bytes");
 8002866:	4620      	mov	r0, r4
#endif
  }
}
 8002868:	e8bd 4070 	ldmia.w	sp!, {r4, r5, r6, lr}
    test_println(" bytes");
 800286c:	f7fe b950 	b.w	8000b10 <test_println>
 8002870:	20001c5c 	.word	0x20001c5c
 8002874:	0800b83c 	.word	0x0800b83c
 8002878:	0800b82c 	.word	0x0800b82c
 800287c:	0800b844 	.word	0x0800b844
 8002880:	0800b854 	.word	0x0800b854
 8002884:	0800b864 	.word	0x0800b864
 8002888:	0800b874 	.word	0x0800b874
 800288c:	0800b884 	.word	0x0800b884
 8002890:	0800b894 	.word	0x0800b894
 8002894:	0800b8a4 	.word	0x0800b8a4
 8002898:	0800b8b4 	.word	0x0800b8b4
 800289c:	00000000 	.word	0x00000000

080028a0 <rt_test_001_003_execute>:
 * <h2>Test Steps</h2>
 * - [1.3.1] Prints the configuration options settings.
 * .
 */

static void rt_test_001_003_execute(void) {
 80028a0:	b538      	push	{r3, r4, r5, lr}

  /* [1.3.1] Prints the configuration options settings.*/
  test_set_step(1);
 80028a2:	2501      	movs	r5, #1
 80028a4:	4bc8      	ldr	r3, [pc, #800]	; (8002bc8 <rt_test_001_003_execute+0x328>)
  {
    test_print("--- CH_CFG_ST_RESOLUTION:               ");
    test_printn(CH_CFG_ST_RESOLUTION);
    test_println("");
 80028a6:	4cc9      	ldr	r4, [pc, #804]	; (8002bcc <rt_test_001_003_execute+0x32c>)
    test_print("--- CH_CFG_ST_RESOLUTION:               ");
 80028a8:	48c9      	ldr	r0, [pc, #804]	; (8002bd0 <rt_test_001_003_execute+0x330>)
  test_set_step(1);
 80028aa:	601d      	str	r5, [r3, #0]
    test_print("--- CH_CFG_ST_RESOLUTION:               ");
 80028ac:	f7fe f950 	bl	8000b50 <test_print>
 80028b0:	2010      	movs	r0, #16
 80028b2:	f7fe f8ad 	bl	8000a10 <test_printn.part.0>
    test_println("");
 80028b6:	4620      	mov	r0, r4
 80028b8:	f7fe f92a 	bl	8000b10 <test_println>
    test_print("--- CH_CFG_ST_FREQUENCY:                ");
 80028bc:	48c5      	ldr	r0, [pc, #788]	; (8002bd4 <rt_test_001_003_execute+0x334>)
 80028be:	f7fe f947 	bl	8000b50 <test_print>
 80028c2:	f44f 60fa 	mov.w	r0, #2000	; 0x7d0
 80028c6:	f7fe f8a3 	bl	8000a10 <test_printn.part.0>
    test_printn(CH_CFG_ST_FREQUENCY);
    test_println("");
 80028ca:	4620      	mov	r0, r4
 80028cc:	f7fe f920 	bl	8000b10 <test_println>
    test_print("--- CH_CFG_INTERVALS_SIZE:              ");
 80028d0:	48c1      	ldr	r0, [pc, #772]	; (8002bd8 <rt_test_001_003_execute+0x338>)
 80028d2:	f7fe f93d 	bl	8000b50 <test_print>
 80028d6:	2020      	movs	r0, #32
 80028d8:	f7fe f89a 	bl	8000a10 <test_printn.part.0>
    test_printn(CH_CFG_INTERVALS_SIZE);
    test_println("");
 80028dc:	4620      	mov	r0, r4
 80028de:	f7fe f917 	bl	8000b10 <test_println>
    test_print("--- CH_CFG_TIME_TYPES_SIZE:             ");
 80028e2:	48be      	ldr	r0, [pc, #760]	; (8002bdc <rt_test_001_003_execute+0x33c>)
 80028e4:	f7fe f934 	bl	8000b50 <test_print>
 80028e8:	2020      	movs	r0, #32
 80028ea:	f7fe f891 	bl	8000a10 <test_printn.part.0>
    test_printn(CH_CFG_TIME_TYPES_SIZE);
    test_println("");
 80028ee:	4620      	mov	r0, r4
 80028f0:	f7fe f90e 	bl	8000b10 <test_println>
    test_print("--- CH_CFG_ST_TIMEDELTA:                ");
 80028f4:	48ba      	ldr	r0, [pc, #744]	; (8002be0 <rt_test_001_003_execute+0x340>)
 80028f6:	f7fe f92b 	bl	8000b50 <test_print>
 80028fa:	2002      	movs	r0, #2
 80028fc:	f7fe f888 	bl	8000a10 <test_printn.part.0>
    test_printn(CH_CFG_ST_TIMEDELTA);
    test_println("");
 8002900:	4620      	mov	r0, r4
 8002902:	f7fe f905 	bl	8000b10 <test_println>
    test_print("--- CH_CFG_TIME_QUANTUM:                ");
 8002906:	48b7      	ldr	r0, [pc, #732]	; (8002be4 <rt_test_001_003_execute+0x344>)
 8002908:	f7fe f922 	bl	8000b50 <test_print>
    test_printn(CH_CFG_TIME_QUANTUM);
 800290c:	2000      	movs	r0, #0
 800290e:	f7fe f8af 	bl	8000a70 <test_printn>
    test_println("");
 8002912:	4620      	mov	r0, r4
 8002914:	f7fe f8fc 	bl	8000b10 <test_println>
    test_print("--- CH_CFG_MEMCORE_SIZE:                ");
 8002918:	48b3      	ldr	r0, [pc, #716]	; (8002be8 <rt_test_001_003_execute+0x348>)
 800291a:	f7fe f919 	bl	8000b50 <test_print>
    test_printn(CH_CFG_MEMCORE_SIZE);
 800291e:	2000      	movs	r0, #0
 8002920:	f7fe f8a6 	bl	8000a70 <test_printn>
    test_println("");
 8002924:	4620      	mov	r0, r4
 8002926:	f7fe f8f3 	bl	8000b10 <test_println>
    test_print("--- CH_CFG_NO_IDLE_THREAD:              ");
 800292a:	48b0      	ldr	r0, [pc, #704]	; (8002bec <rt_test_001_003_execute+0x34c>)
 800292c:	f7fe f910 	bl	8000b50 <test_print>
    test_printn(CH_CFG_NO_IDLE_THREAD);
 8002930:	2000      	movs	r0, #0
 8002932:	f7fe f89d 	bl	8000a70 <test_printn>
    test_println("");
 8002936:	4620      	mov	r0, r4
 8002938:	f7fe f8ea 	bl	8000b10 <test_println>
    test_print("--- CH_CFG_OPTIMIZE_SPEED:              ");
 800293c:	48ac      	ldr	r0, [pc, #688]	; (8002bf0 <rt_test_001_003_execute+0x350>)
 800293e:	f7fe f907 	bl	8000b50 <test_print>
 8002942:	4628      	mov	r0, r5
 8002944:	f7fe f864 	bl	8000a10 <test_printn.part.0>
    test_printn(CH_CFG_OPTIMIZE_SPEED);
    test_println("");
 8002948:	4620      	mov	r0, r4
 800294a:	f7fe f8e1 	bl	8000b10 <test_println>
    test_print("--- CH_CFG_USE_TM:                      ");
 800294e:	48a9      	ldr	r0, [pc, #676]	; (8002bf4 <rt_test_001_003_execute+0x354>)
 8002950:	f7fe f8fe 	bl	8000b50 <test_print>
    test_printn(CH_CFG_USE_TM);
 8002954:	2000      	movs	r0, #0
 8002956:	f7fe f88b 	bl	8000a70 <test_printn>
    test_println("");
 800295a:	4620      	mov	r0, r4
 800295c:	f7fe f8d8 	bl	8000b10 <test_println>
    test_print("--- CH_CFG_USE_REGISTRY:                ");
 8002960:	48a5      	ldr	r0, [pc, #660]	; (8002bf8 <rt_test_001_003_execute+0x358>)
 8002962:	f7fe f8f5 	bl	8000b50 <test_print>
 8002966:	4628      	mov	r0, r5
 8002968:	f7fe f852 	bl	8000a10 <test_printn.part.0>
    test_printn(CH_CFG_USE_REGISTRY);
    test_println("");
 800296c:	4620      	mov	r0, r4
 800296e:	f7fe f8cf 	bl	8000b10 <test_println>
    test_print("--- CH_CFG_USE_WAITEXIT:                ");
 8002972:	48a2      	ldr	r0, [pc, #648]	; (8002bfc <rt_test_001_003_execute+0x35c>)
 8002974:	f7fe f8ec 	bl	8000b50 <test_print>
 8002978:	4628      	mov	r0, r5
 800297a:	f7fe f849 	bl	8000a10 <test_printn.part.0>
    test_printn(CH_CFG_USE_WAITEXIT);
    test_println("");
 800297e:	4620      	mov	r0, r4
 8002980:	f7fe f8c6 	bl	8000b10 <test_println>
    test_print("--- CH_CFG_USE_SEMAPHORES:              ");
 8002984:	489e      	ldr	r0, [pc, #632]	; (8002c00 <rt_test_001_003_execute+0x360>)
 8002986:	f7fe f8e3 	bl	8000b50 <test_print>
 800298a:	4628      	mov	r0, r5
 800298c:	f7fe f840 	bl	8000a10 <test_printn.part.0>
    test_printn(CH_CFG_USE_SEMAPHORES);
    test_println("");
 8002990:	4620      	mov	r0, r4
 8002992:	f7fe f8bd 	bl	8000b10 <test_println>
    test_print("--- CH_CFG_USE_SEMAPHORES_PRI:          ");
 8002996:	489b      	ldr	r0, [pc, #620]	; (8002c04 <rt_test_001_003_execute+0x364>)
 8002998:	f7fe f8da 	bl	8000b50 <test_print>
    test_printn(CH_CFG_USE_SEMAPHORES_PRIORITY);
 800299c:	2000      	movs	r0, #0
 800299e:	f7fe f867 	bl	8000a70 <test_printn>
    test_println("");
 80029a2:	4620      	mov	r0, r4
 80029a4:	f7fe f8b4 	bl	8000b10 <test_println>
    test_print("--- CH_CFG_USE_MUTEXES:                 ");
 80029a8:	4897      	ldr	r0, [pc, #604]	; (8002c08 <rt_test_001_003_execute+0x368>)
 80029aa:	f7fe f8d1 	bl	8000b50 <test_print>
 80029ae:	4628      	mov	r0, r5
 80029b0:	f7fe f82e 	bl	8000a10 <test_printn.part.0>
    test_printn(CH_CFG_USE_MUTEXES);
    test_println("");
 80029b4:	4620      	mov	r0, r4
 80029b6:	f7fe f8ab 	bl	8000b10 <test_println>
    test_print("--- CH_CFG_USE_MUTEXES_RECURS:          ");
 80029ba:	4894      	ldr	r0, [pc, #592]	; (8002c0c <rt_test_001_003_execute+0x36c>)
 80029bc:	f7fe f8c8 	bl	8000b50 <test_print>
    test_printn(CH_CFG_USE_MUTEXES_RECURSIVE);
 80029c0:	2000      	movs	r0, #0
 80029c2:	f7fe f855 	bl	8000a70 <test_printn>
    test_println("");   
 80029c6:	4620      	mov	r0, r4
 80029c8:	f7fe f8a2 	bl	8000b10 <test_println>
    test_print("--- CH_CFG_USE_CONDVARS:                ");
 80029cc:	4890      	ldr	r0, [pc, #576]	; (8002c10 <rt_test_001_003_execute+0x370>)
 80029ce:	f7fe f8bf 	bl	8000b50 <test_print>
 80029d2:	4628      	mov	r0, r5
 80029d4:	f7fe f81c 	bl	8000a10 <test_printn.part.0>
    test_printn(CH_CFG_USE_CONDVARS);
    test_println("");
 80029d8:	4620      	mov	r0, r4
 80029da:	f7fe f899 	bl	8000b10 <test_println>
    test_print("--- CH_CFG_USE_CONDVARS_TIMEO:          ");
 80029de:	488d      	ldr	r0, [pc, #564]	; (8002c14 <rt_test_001_003_execute+0x374>)
 80029e0:	f7fe f8b6 	bl	8000b50 <test_print>
 80029e4:	4628      	mov	r0, r5
 80029e6:	f7fe f813 	bl	8000a10 <test_printn.part.0>
    test_printn(CH_CFG_USE_CONDVARS_TIMEOUT);
    test_println("");
 80029ea:	4620      	mov	r0, r4
 80029ec:	f7fe f890 	bl	8000b10 <test_println>
    test_print("--- CH_CFG_USE_EVENTS:                  ");
 80029f0:	4889      	ldr	r0, [pc, #548]	; (8002c18 <rt_test_001_003_execute+0x378>)
 80029f2:	f7fe f8ad 	bl	8000b50 <test_print>
 80029f6:	4628      	mov	r0, r5
 80029f8:	f7fe f80a 	bl	8000a10 <test_printn.part.0>
    test_printn(CH_CFG_USE_EVENTS);
    test_println("");
 80029fc:	4620      	mov	r0, r4
 80029fe:	f7fe f887 	bl	8000b10 <test_println>
    test_print("--- CH_CFG_USE_EVENTS_TIMEOUT:          ");
 8002a02:	4886      	ldr	r0, [pc, #536]	; (8002c1c <rt_test_001_003_execute+0x37c>)
 8002a04:	f7fe f8a4 	bl	8000b50 <test_print>
 8002a08:	4628      	mov	r0, r5
 8002a0a:	f7fe f801 	bl	8000a10 <test_printn.part.0>
    test_printn(CH_CFG_USE_EVENTS_TIMEOUT);
    test_println("");
 8002a0e:	4620      	mov	r0, r4
 8002a10:	f7fe f87e 	bl	8000b10 <test_println>
    test_print("--- CH_CFG_USE_MESSAGES:                ");
 8002a14:	4882      	ldr	r0, [pc, #520]	; (8002c20 <rt_test_001_003_execute+0x380>)
 8002a16:	f7fe f89b 	bl	8000b50 <test_print>
 8002a1a:	4628      	mov	r0, r5
 8002a1c:	f7fd fff8 	bl	8000a10 <test_printn.part.0>
    test_printn(CH_CFG_USE_MESSAGES);
    test_println("");
 8002a20:	4620      	mov	r0, r4
 8002a22:	f7fe f875 	bl	8000b10 <test_println>
    test_print("--- CH_CFG_USE_MESSAGES_PRI:            ");
 8002a26:	487f      	ldr	r0, [pc, #508]	; (8002c24 <rt_test_001_003_execute+0x384>)
 8002a28:	f7fe f892 	bl	8000b50 <test_print>
    test_printn(CH_CFG_USE_MESSAGES_PRIORITY);
 8002a2c:	2000      	movs	r0, #0
 8002a2e:	f7fe f81f 	bl	8000a70 <test_printn>
    test_println("");
 8002a32:	4620      	mov	r0, r4
 8002a34:	f7fe f86c 	bl	8000b10 <test_println>
    test_print("--- CH_CFG_USE_MAILBOXES:               ");
 8002a38:	487b      	ldr	r0, [pc, #492]	; (8002c28 <rt_test_001_003_execute+0x388>)
 8002a3a:	f7fe f889 	bl	8000b50 <test_print>
 8002a3e:	4628      	mov	r0, r5
 8002a40:	f7fd ffe6 	bl	8000a10 <test_printn.part.0>
    test_printn(CH_CFG_USE_MAILBOXES);
    test_println("");
 8002a44:	4620      	mov	r0, r4
 8002a46:	f7fe f863 	bl	8000b10 <test_println>
    test_print("--- CH_CFG_USE_MEMCORE:                 ");
 8002a4a:	4878      	ldr	r0, [pc, #480]	; (8002c2c <rt_test_001_003_execute+0x38c>)
 8002a4c:	f7fe f880 	bl	8000b50 <test_print>
 8002a50:	4628      	mov	r0, r5
 8002a52:	f7fd ffdd 	bl	8000a10 <test_printn.part.0>
    test_printn(CH_CFG_USE_MEMCORE);
    test_println("");
 8002a56:	4620      	mov	r0, r4
 8002a58:	f7fe f85a 	bl	8000b10 <test_println>
    test_print("--- CH_CFG_USE_HEAP:                    ");
 8002a5c:	4874      	ldr	r0, [pc, #464]	; (8002c30 <rt_test_001_003_execute+0x390>)
 8002a5e:	f7fe f877 	bl	8000b50 <test_print>
 8002a62:	4628      	mov	r0, r5
 8002a64:	f7fd ffd4 	bl	8000a10 <test_printn.part.0>
    test_printn(CH_CFG_USE_HEAP);
    test_println("");
 8002a68:	4620      	mov	r0, r4
 8002a6a:	f7fe f851 	bl	8000b10 <test_println>
    test_print("--- CH_CFG_USE_MEMPOOLS:                ");
 8002a6e:	4871      	ldr	r0, [pc, #452]	; (8002c34 <rt_test_001_003_execute+0x394>)
 8002a70:	f7fe f86e 	bl	8000b50 <test_print>
 8002a74:	4628      	mov	r0, r5
 8002a76:	f7fd ffcb 	bl	8000a10 <test_printn.part.0>
    test_printn(CH_CFG_USE_MEMPOOLS);
    test_println("");
 8002a7a:	4620      	mov	r0, r4
 8002a7c:	f7fe f848 	bl	8000b10 <test_println>
    test_print("--- CH_CFG_USE_OBJ_FIFOS:               ");
 8002a80:	486d      	ldr	r0, [pc, #436]	; (8002c38 <rt_test_001_003_execute+0x398>)
 8002a82:	f7fe f865 	bl	8000b50 <test_print>
 8002a86:	4628      	mov	r0, r5
 8002a88:	f7fd ffc2 	bl	8000a10 <test_printn.part.0>
    test_printn(CH_CFG_USE_OBJ_FIFOS);
    test_println("");
 8002a8c:	4620      	mov	r0, r4
 8002a8e:	f7fe f83f 	bl	8000b10 <test_println>
    test_print("--- CH_CFG_USE_DYNAMIC:                 ");
 8002a92:	486a      	ldr	r0, [pc, #424]	; (8002c3c <rt_test_001_003_execute+0x39c>)
 8002a94:	f7fe f85c 	bl	8000b50 <test_print>
 8002a98:	4628      	mov	r0, r5
 8002a9a:	f7fd ffb9 	bl	8000a10 <test_printn.part.0>
    test_printn(CH_CFG_USE_DYNAMIC);
    test_println("");
 8002a9e:	4620      	mov	r0, r4
 8002aa0:	f7fe f836 	bl	8000b10 <test_println>
    test_print("--- CH_CFG_USE_FACTORY:                 ");
 8002aa4:	4866      	ldr	r0, [pc, #408]	; (8002c40 <rt_test_001_003_execute+0x3a0>)
 8002aa6:	f7fe f853 	bl	8000b50 <test_print>
 8002aaa:	4628      	mov	r0, r5
 8002aac:	f7fd ffb0 	bl	8000a10 <test_printn.part.0>
    test_printn(CH_CFG_USE_FACTORY);
    test_println("");
 8002ab0:	4620      	mov	r0, r4
 8002ab2:	f7fe f82d 	bl	8000b10 <test_println>
    test_print("--- CH_CFG_FACTORY_MAX_NAMES_LENGTH:    ");
 8002ab6:	4863      	ldr	r0, [pc, #396]	; (8002c44 <rt_test_001_003_execute+0x3a4>)
 8002ab8:	f7fe f84a 	bl	8000b50 <test_print>
 8002abc:	2008      	movs	r0, #8
 8002abe:	f7fd ffa7 	bl	8000a10 <test_printn.part.0>
    test_printn(CH_CFG_FACTORY_MAX_NAMES_LENGTH);
    test_println("");
 8002ac2:	4620      	mov	r0, r4
 8002ac4:	f7fe f824 	bl	8000b10 <test_println>
    test_print("--- CH_CFG_FACTORY_OBJECTS_REGISTRY:    ");
 8002ac8:	485f      	ldr	r0, [pc, #380]	; (8002c48 <rt_test_001_003_execute+0x3a8>)
 8002aca:	f7fe f841 	bl	8000b50 <test_print>
 8002ace:	4628      	mov	r0, r5
 8002ad0:	f7fd ff9e 	bl	8000a10 <test_printn.part.0>
    test_printn(CH_CFG_FACTORY_OBJECTS_REGISTRY);
    test_println("");
 8002ad4:	4620      	mov	r0, r4
 8002ad6:	f7fe f81b 	bl	8000b10 <test_println>
    test_print("--- CH_CFG_FACTORY_GENERIC_BUFFERS:     ");
 8002ada:	485c      	ldr	r0, [pc, #368]	; (8002c4c <rt_test_001_003_execute+0x3ac>)
 8002adc:	f7fe f838 	bl	8000b50 <test_print>
 8002ae0:	4628      	mov	r0, r5
 8002ae2:	f7fd ff95 	bl	8000a10 <test_printn.part.0>
    test_printn(CH_CFG_FACTORY_GENERIC_BUFFERS);
    test_println("");
 8002ae6:	4620      	mov	r0, r4
 8002ae8:	f7fe f812 	bl	8000b10 <test_println>
    test_print("--- CH_CFG_FACTORY_SEMAPHORES:          ");
 8002aec:	4858      	ldr	r0, [pc, #352]	; (8002c50 <rt_test_001_003_execute+0x3b0>)
 8002aee:	f7fe f82f 	bl	8000b50 <test_print>
 8002af2:	4628      	mov	r0, r5
 8002af4:	f7fd ff8c 	bl	8000a10 <test_printn.part.0>
    test_printn(CH_CFG_FACTORY_SEMAPHORES);
    test_println("");
 8002af8:	4620      	mov	r0, r4
 8002afa:	f7fe f809 	bl	8000b10 <test_println>
    test_print("--- CH_CFG_FACTORY_MAILBOXES:           ");
 8002afe:	4855      	ldr	r0, [pc, #340]	; (8002c54 <rt_test_001_003_execute+0x3b4>)
 8002b00:	f7fe f826 	bl	8000b50 <test_print>
 8002b04:	4628      	mov	r0, r5
 8002b06:	f7fd ff83 	bl	8000a10 <test_printn.part.0>
    test_printn(CH_CFG_FACTORY_MAILBOXES);
    test_println("");
 8002b0a:	4620      	mov	r0, r4
 8002b0c:	f7fe f800 	bl	8000b10 <test_println>
    test_print("--- CH_CFG_FACTORY_OBJ_FIFOS:           ");
 8002b10:	4851      	ldr	r0, [pc, #324]	; (8002c58 <rt_test_001_003_execute+0x3b8>)
 8002b12:	f7fe f81d 	bl	8000b50 <test_print>
 8002b16:	4628      	mov	r0, r5
 8002b18:	f7fd ff7a 	bl	8000a10 <test_printn.part.0>
    test_printn(CH_CFG_FACTORY_OBJ_FIFOS);
    test_println("");
 8002b1c:	4620      	mov	r0, r4
 8002b1e:	f7fd fff7 	bl	8000b10 <test_println>
    test_print("--- CH_DBG_STATISTICS:                  ");
 8002b22:	484e      	ldr	r0, [pc, #312]	; (8002c5c <rt_test_001_003_execute+0x3bc>)
 8002b24:	f7fe f814 	bl	8000b50 <test_print>
    test_printn(CH_DBG_STATISTICS);
 8002b28:	2000      	movs	r0, #0
 8002b2a:	f7fd ffa1 	bl	8000a70 <test_printn>
    test_println("");
 8002b2e:	4620      	mov	r0, r4
 8002b30:	f7fd ffee 	bl	8000b10 <test_println>
    test_print("--- CH_DBG_SYSTEM_STATE_CHECK:          ");
 8002b34:	484a      	ldr	r0, [pc, #296]	; (8002c60 <rt_test_001_003_execute+0x3c0>)
 8002b36:	f7fe f80b 	bl	8000b50 <test_print>
    test_printn(CH_DBG_SYSTEM_STATE_CHECK);
 8002b3a:	2000      	movs	r0, #0
 8002b3c:	f7fd ff98 	bl	8000a70 <test_printn>
    test_println("");
 8002b40:	4620      	mov	r0, r4
 8002b42:	f7fd ffe5 	bl	8000b10 <test_println>
    test_print("--- CH_DBG_ENABLE_CHECKS:               ");
 8002b46:	4847      	ldr	r0, [pc, #284]	; (8002c64 <rt_test_001_003_execute+0x3c4>)
 8002b48:	f7fe f802 	bl	8000b50 <test_print>
    test_printn(CH_DBG_ENABLE_CHECKS);
 8002b4c:	2000      	movs	r0, #0
 8002b4e:	f7fd ff8f 	bl	8000a70 <test_printn>
    test_println("");
 8002b52:	4620      	mov	r0, r4
 8002b54:	f7fd ffdc 	bl	8000b10 <test_println>
    test_print("--- CH_DBG_ENABLE_ASSERTS:              ");
 8002b58:	4843      	ldr	r0, [pc, #268]	; (8002c68 <rt_test_001_003_execute+0x3c8>)
 8002b5a:	f7fd fff9 	bl	8000b50 <test_print>
    test_printn(CH_DBG_ENABLE_ASSERTS);
 8002b5e:	2000      	movs	r0, #0
 8002b60:	f7fd ff86 	bl	8000a70 <test_printn>
    test_println("");
 8002b64:	4620      	mov	r0, r4
 8002b66:	f7fd ffd3 	bl	8000b10 <test_println>
    test_print("--- CH_DBG_TRACE_MASK:                  ");
 8002b6a:	4840      	ldr	r0, [pc, #256]	; (8002c6c <rt_test_001_003_execute+0x3cc>)
 8002b6c:	f7fd fff0 	bl	8000b50 <test_print>
 8002b70:	20ff      	movs	r0, #255	; 0xff
 8002b72:	f7fd ff4d 	bl	8000a10 <test_printn.part.0>
    test_printn(CH_DBG_TRACE_MASK);
    test_println("");
 8002b76:	4620      	mov	r0, r4
 8002b78:	f7fd ffca 	bl	8000b10 <test_println>
    test_print("--- CH_DBG_TRACE_BUFFER_SIZE:           ");
 8002b7c:	483c      	ldr	r0, [pc, #240]	; (8002c70 <rt_test_001_003_execute+0x3d0>)
 8002b7e:	f7fd ffe7 	bl	8000b50 <test_print>
 8002b82:	2080      	movs	r0, #128	; 0x80
 8002b84:	f7fd ff44 	bl	8000a10 <test_printn.part.0>
    test_printn(CH_DBG_TRACE_BUFFER_SIZE);
    test_println("");
 8002b88:	4620      	mov	r0, r4
 8002b8a:	f7fd ffc1 	bl	8000b10 <test_println>
    test_print("--- CH_DBG_ENABLE_STACK_CHECK:          ");
 8002b8e:	4839      	ldr	r0, [pc, #228]	; (8002c74 <rt_test_001_003_execute+0x3d4>)
 8002b90:	f7fd ffde 	bl	8000b50 <test_print>
    test_printn(CH_DBG_ENABLE_STACK_CHECK);
 8002b94:	2000      	movs	r0, #0
 8002b96:	f7fd ff6b 	bl	8000a70 <test_printn>
    test_println("");
 8002b9a:	4620      	mov	r0, r4
 8002b9c:	f7fd ffb8 	bl	8000b10 <test_println>
    test_print("--- CH_DBG_FILL_THREADS:                ");
 8002ba0:	4835      	ldr	r0, [pc, #212]	; (8002c78 <rt_test_001_003_execute+0x3d8>)
 8002ba2:	f7fd ffd5 	bl	8000b50 <test_print>
    test_printn(CH_DBG_FILL_THREADS);
 8002ba6:	2000      	movs	r0, #0
 8002ba8:	f7fd ff62 	bl	8000a70 <test_printn>
    test_println("");
 8002bac:	4620      	mov	r0, r4
 8002bae:	f7fd ffaf 	bl	8000b10 <test_println>
    test_print("--- CH_DBG_THREADS_PROFILING:           ");
 8002bb2:	4832      	ldr	r0, [pc, #200]	; (8002c7c <rt_test_001_003_execute+0x3dc>)
 8002bb4:	f7fd ffcc 	bl	8000b50 <test_print>
    test_printn(CH_DBG_THREADS_PROFILING);
 8002bb8:	2000      	movs	r0, #0
 8002bba:	f7fd ff59 	bl	8000a70 <test_printn>
    test_println("");
 8002bbe:	4620      	mov	r0, r4
  }
}
 8002bc0:	e8bd 4038 	ldmia.w	sp!, {r3, r4, r5, lr}
    test_println("");
 8002bc4:	f7fd bfa4 	b.w	8000b10 <test_println>
 8002bc8:	20001c5c 	.word	0x20001c5c
 8002bcc:	0800ba9c 	.word	0x0800ba9c
 8002bd0:	0800a9f0 	.word	0x0800a9f0
 8002bd4:	0800aa1c 	.word	0x0800aa1c
 8002bd8:	0800aa48 	.word	0x0800aa48
 8002bdc:	0800aa74 	.word	0x0800aa74
 8002be0:	0800aaa0 	.word	0x0800aaa0
 8002be4:	0800aacc 	.word	0x0800aacc
 8002be8:	0800aaf8 	.word	0x0800aaf8
 8002bec:	0800ab24 	.word	0x0800ab24
 8002bf0:	0800ab50 	.word	0x0800ab50
 8002bf4:	0800ab7c 	.word	0x0800ab7c
 8002bf8:	0800aba8 	.word	0x0800aba8
 8002bfc:	0800abd4 	.word	0x0800abd4
 8002c00:	0800ac00 	.word	0x0800ac00
 8002c04:	0800ac2c 	.word	0x0800ac2c
 8002c08:	0800ac58 	.word	0x0800ac58
 8002c0c:	0800ac84 	.word	0x0800ac84
 8002c10:	0800acb0 	.word	0x0800acb0
 8002c14:	0800acdc 	.word	0x0800acdc
 8002c18:	0800ad08 	.word	0x0800ad08
 8002c1c:	0800ad34 	.word	0x0800ad34
 8002c20:	0800ad60 	.word	0x0800ad60
 8002c24:	0800ad8c 	.word	0x0800ad8c
 8002c28:	0800adb8 	.word	0x0800adb8
 8002c2c:	0800ade4 	.word	0x0800ade4
 8002c30:	0800ae10 	.word	0x0800ae10
 8002c34:	0800ae3c 	.word	0x0800ae3c
 8002c38:	0800ae68 	.word	0x0800ae68
 8002c3c:	0800ae94 	.word	0x0800ae94
 8002c40:	0800aec0 	.word	0x0800aec0
 8002c44:	0800aeec 	.word	0x0800aeec
 8002c48:	0800af18 	.word	0x0800af18
 8002c4c:	0800af44 	.word	0x0800af44
 8002c50:	0800af70 	.word	0x0800af70
 8002c54:	0800af9c 	.word	0x0800af9c
 8002c58:	0800afc8 	.word	0x0800afc8
 8002c5c:	0800aff4 	.word	0x0800aff4
 8002c60:	0800b020 	.word	0x0800b020
 8002c64:	0800b04c 	.word	0x0800b04c
 8002c68:	0800b078 	.word	0x0800b078
 8002c6c:	0800b0a4 	.word	0x0800b0a4
 8002c70:	0800b0d0 	.word	0x0800b0d0
 8002c74:	0800b0fc 	.word	0x0800b0fc
 8002c78:	0800b128 	.word	0x0800b128
 8002c7c:	0800b154 	.word	0x0800b154

08002c80 <rt_test_001_002_execute>:
static void rt_test_001_002_execute(void) {
 8002c80:	b538      	push	{r3, r4, r5, lr}
  test_set_step(1);
 8002c82:	2501      	movs	r5, #1
 8002c84:	4b18      	ldr	r3, [pc, #96]	; (8002ce8 <rt_test_001_002_execute+0x68>)
    test_println("--- Product:                            ChibiOS/RT");
 8002c86:	4819      	ldr	r0, [pc, #100]	; (8002cec <rt_test_001_002_execute+0x6c>)
  test_set_step(1);
 8002c88:	601d      	str	r5, [r3, #0]
    test_println("");
 8002c8a:	4c19      	ldr	r4, [pc, #100]	; (8002cf0 <rt_test_001_002_execute+0x70>)
    test_println("--- Product:                            ChibiOS/RT");
 8002c8c:	f7fd ff40 	bl	8000b10 <test_println>
    test_print("--- Stable Flag:                        ");
 8002c90:	4818      	ldr	r0, [pc, #96]	; (8002cf4 <rt_test_001_002_execute+0x74>)
 8002c92:	f7fd ff5d 	bl	8000b50 <test_print>
 8002c96:	4628      	mov	r0, r5
 8002c98:	f7fd feba 	bl	8000a10 <test_printn.part.0>
    test_println("");
 8002c9c:	4620      	mov	r0, r4
 8002c9e:	f7fd ff37 	bl	8000b10 <test_println>
    test_print("--- Version String:                     ");
 8002ca2:	4815      	ldr	r0, [pc, #84]	; (8002cf8 <rt_test_001_002_execute+0x78>)
 8002ca4:	f7fd ff54 	bl	8000b50 <test_print>
    test_println(CH_KERNEL_VERSION);
 8002ca8:	4814      	ldr	r0, [pc, #80]	; (8002cfc <rt_test_001_002_execute+0x7c>)
 8002caa:	f7fd ff31 	bl	8000b10 <test_println>
    test_print("--- Major Number:                       ");
 8002cae:	4814      	ldr	r0, [pc, #80]	; (8002d00 <rt_test_001_002_execute+0x80>)
 8002cb0:	f7fd ff4e 	bl	8000b50 <test_print>
 8002cb4:	2005      	movs	r0, #5
 8002cb6:	f7fd feab 	bl	8000a10 <test_printn.part.0>
    test_println("");
 8002cba:	4620      	mov	r0, r4
 8002cbc:	f7fd ff28 	bl	8000b10 <test_println>
    test_print("--- Minor Number:                       ");
 8002cc0:	4810      	ldr	r0, [pc, #64]	; (8002d04 <rt_test_001_002_execute+0x84>)
 8002cc2:	f7fd ff45 	bl	8000b50 <test_print>
    test_printn(CH_KERNEL_MINOR);
 8002cc6:	2000      	movs	r0, #0
 8002cc8:	f7fd fed2 	bl	8000a70 <test_printn>
    test_println("");
 8002ccc:	4620      	mov	r0, r4
 8002cce:	f7fd ff1f 	bl	8000b10 <test_println>
    test_print("--- Patch Number:                       ");
 8002cd2:	480d      	ldr	r0, [pc, #52]	; (8002d08 <rt_test_001_002_execute+0x88>)
 8002cd4:	f7fd ff3c 	bl	8000b50 <test_print>
    test_printn(CH_KERNEL_PATCH);
 8002cd8:	2000      	movs	r0, #0
 8002cda:	f7fd fec9 	bl	8000a70 <test_printn>
    test_println("");
 8002cde:	4620      	mov	r0, r4
}
 8002ce0:	e8bd 4038 	ldmia.w	sp!, {r3, r4, r5, lr}
    test_println("");
 8002ce4:	f7fd bf14 	b.w	8000b10 <test_println>
 8002ce8:	20001c5c 	.word	0x20001c5c
 8002cec:	0800a8d0 	.word	0x0800a8d0
 8002cf0:	0800ba9c 	.word	0x0800ba9c
 8002cf4:	0800a904 	.word	0x0800a904
 8002cf8:	0800a930 	.word	0x0800a930
 8002cfc:	0800a02c 	.word	0x0800a02c
 8002d00:	0800a95c 	.word	0x0800a95c
 8002d04:	0800a988 	.word	0x0800a988
 8002d08:	0800a9b4 	.word	0x0800a9b4
 8002d0c:	00000000 	.word	0x00000000

08002d10 <rt_test_001_001_execute>:
  test_set_step(1);
 8002d10:	2201      	movs	r2, #1
 8002d12:	4b1c      	ldr	r3, [pc, #112]	; (8002d84 <rt_test_001_001_execute+0x74>)
static void rt_test_001_001_execute(void) {
 8002d14:	b510      	push	{r4, lr}
    test_print("--- Architecture:                       ");
 8002d16:	481c      	ldr	r0, [pc, #112]	; (8002d88 <rt_test_001_001_execute+0x78>)
  test_set_step(1);
 8002d18:	601a      	str	r2, [r3, #0]
    test_print("--- Architecture:                       ");
 8002d1a:	f7fd ff19 	bl	8000b50 <test_print>
    test_println(PORT_ARCHITECTURE_NAME);
 8002d1e:	481b      	ldr	r0, [pc, #108]	; (8002d8c <rt_test_001_001_execute+0x7c>)
 8002d20:	f7fd fef6 	bl	8000b10 <test_println>
    test_print("--- Core Variant:                       ");
 8002d24:	481a      	ldr	r0, [pc, #104]	; (8002d90 <rt_test_001_001_execute+0x80>)
 8002d26:	f7fd ff13 	bl	8000b50 <test_print>
    test_println(PORT_CORE_VARIANT_NAME);
 8002d2a:	481a      	ldr	r0, [pc, #104]	; (8002d94 <rt_test_001_001_execute+0x84>)
 8002d2c:	f7fd fef0 	bl	8000b10 <test_println>
    test_print("--- Compiler:                           ");
 8002d30:	4819      	ldr	r0, [pc, #100]	; (8002d98 <rt_test_001_001_execute+0x88>)
 8002d32:	f7fd ff0d 	bl	8000b50 <test_print>
    test_println(PORT_COMPILER_NAME);
 8002d36:	4819      	ldr	r0, [pc, #100]	; (8002d9c <rt_test_001_001_execute+0x8c>)
 8002d38:	f7fd feea 	bl	8000b10 <test_println>
    test_print("--- Port Info:                          ");
 8002d3c:	4818      	ldr	r0, [pc, #96]	; (8002da0 <rt_test_001_001_execute+0x90>)
 8002d3e:	f7fd ff07 	bl	8000b50 <test_print>
    test_println(PORT_INFO);
 8002d42:	4818      	ldr	r0, [pc, #96]	; (8002da4 <rt_test_001_001_execute+0x94>)
    test_println("");
 8002d44:	4c18      	ldr	r4, [pc, #96]	; (8002da8 <rt_test_001_001_execute+0x98>)
    test_println(PORT_INFO);
 8002d46:	f7fd fee3 	bl	8000b10 <test_println>
    test_print("--- Natural alignment:                  ");
 8002d4a:	4818      	ldr	r0, [pc, #96]	; (8002dac <rt_test_001_001_execute+0x9c>)
 8002d4c:	f7fd ff00 	bl	8000b50 <test_print>
 8002d50:	2004      	movs	r0, #4
 8002d52:	f7fd fe5d 	bl	8000a10 <test_printn.part.0>
    test_println("");
 8002d56:	4620      	mov	r0, r4
 8002d58:	f7fd feda 	bl	8000b10 <test_println>
    test_print("--- Stack alignment:                    ");
 8002d5c:	4814      	ldr	r0, [pc, #80]	; (8002db0 <rt_test_001_001_execute+0xa0>)
 8002d5e:	f7fd fef7 	bl	8000b50 <test_print>
 8002d62:	2008      	movs	r0, #8
 8002d64:	f7fd fe54 	bl	8000a10 <test_printn.part.0>
    test_println("");
 8002d68:	4620      	mov	r0, r4
 8002d6a:	f7fd fed1 	bl	8000b10 <test_println>
    test_print("--- Working area alignment:             ");
 8002d6e:	4811      	ldr	r0, [pc, #68]	; (8002db4 <rt_test_001_001_execute+0xa4>)
 8002d70:	f7fd feee 	bl	8000b50 <test_print>
 8002d74:	2008      	movs	r0, #8
 8002d76:	f7fd fe4b 	bl	8000a10 <test_printn.part.0>
    test_println("");
 8002d7a:	4620      	mov	r0, r4
}
 8002d7c:	e8bd 4010 	ldmia.w	sp!, {r4, lr}
    test_println("");
 8002d80:	f7fd bec6 	b.w	8000b10 <test_println>
 8002d84:	20001c5c 	.word	0x20001c5c
 8002d88:	0800a78c 	.word	0x0800a78c
 8002d8c:	0800a0a4 	.word	0x0800a0a4
 8002d90:	0800a7b8 	.word	0x0800a7b8
 8002d94:	0800a0c0 	.word	0x0800a0c0
 8002d98:	0800a7e4 	.word	0x0800a7e4
 8002d9c:	0800a048 	.word	0x0800a048
 8002da0:	0800a810 	.word	0x0800a810
 8002da4:	0800a0e0 	.word	0x0800a0e0
 8002da8:	0800ba9c 	.word	0x0800ba9c
 8002dac:	0800a83c 	.word	0x0800a83c
 8002db0:	0800a868 	.word	0x0800a868
 8002db4:	0800a894 	.word	0x0800a894
	...

08002dc0 <dyn_find_object>:
    chPoolFree(mp, (void *)dep);
  }
}
#endif /* CH_FACTORY_REQUIRES_POOLS */

static dyn_element_t *dyn_find_object(const char *name, dyn_list_t *dlp) {
 8002dc0:	b570      	push	{r4, r5, r6, lr}
  dyn_element_t *p = dlp->next;
 8002dc2:	680c      	ldr	r4, [r1, #0]
  while (p != (dyn_element_t *)dlp) {
 8002dc4:	42a1      	cmp	r1, r4
 8002dc6:	d012      	beq.n	8002dee <dyn_find_object+0x2e>
 8002dc8:	460d      	mov	r5, r1
 8002dca:	4606      	mov	r6, r0
 8002dcc:	e002      	b.n	8002dd4 <dyn_find_object+0x14>
    p = p->next;
 8002dce:	6824      	ldr	r4, [r4, #0]
  while (p != (dyn_element_t *)dlp) {
 8002dd0:	42a5      	cmp	r5, r4
 8002dd2:	d00c      	beq.n	8002dee <dyn_find_object+0x2e>
    if (strncmp(p->name, name, CH_CFG_FACTORY_MAX_NAMES_LENGTH) == 0) {
 8002dd4:	2208      	movs	r2, #8
 8002dd6:	4631      	mov	r1, r6
 8002dd8:	18a0      	adds	r0, r4, r2
 8002dda:	f006 ffd9 	bl	8009d90 <strncmp>
 8002dde:	2800      	cmp	r0, #0
 8002de0:	d1f5      	bne.n	8002dce <dyn_find_object+0xe>

  chDbgCheck(name != NULL);

  /* Checking if an object with this name has already been created.*/
  dep = dyn_list_find(name, dlp);
  if (dep != NULL) {
 8002de2:	b12c      	cbz	r4, 8002df0 <dyn_find_object+0x30>
    /* Increasing references counter.*/
    dep->refs++;
 8002de4:	6863      	ldr	r3, [r4, #4]
  }

  return dep;
}
 8002de6:	4620      	mov	r0, r4
    dep->refs++;
 8002de8:	3301      	adds	r3, #1
 8002dea:	6063      	str	r3, [r4, #4]
}
 8002dec:	bd70      	pop	{r4, r5, r6, pc}
  return NULL;
 8002dee:	2400      	movs	r4, #0
}
 8002df0:	4620      	mov	r0, r4
 8002df2:	bd70      	pop	{r4, r5, r6, pc}
	...

08002e00 <dyn_create_object_pool>:
                                             memory_pool_t *mp) {
 8002e00:	b5f8      	push	{r3, r4, r5, r6, r7, lr}
  dyn_element_t *p = dlp->next;
 8002e02:	680c      	ldr	r4, [r1, #0]
                                             memory_pool_t *mp) {
 8002e04:	460d      	mov	r5, r1
  while (p != (dyn_element_t *)dlp) {
 8002e06:	42a1      	cmp	r1, r4
                                             memory_pool_t *mp) {
 8002e08:	4606      	mov	r6, r0
 8002e0a:	4617      	mov	r7, r2
  while (p != (dyn_element_t *)dlp) {
 8002e0c:	d103      	bne.n	8002e16 <dyn_create_object_pool+0x16>
 8002e0e:	e00d      	b.n	8002e2c <dyn_create_object_pool+0x2c>
    p = p->next;
 8002e10:	6824      	ldr	r4, [r4, #0]
  while (p != (dyn_element_t *)dlp) {
 8002e12:	42a5      	cmp	r5, r4
 8002e14:	d00a      	beq.n	8002e2c <dyn_create_object_pool+0x2c>
    if (strncmp(p->name, name, CH_CFG_FACTORY_MAX_NAMES_LENGTH) == 0) {
 8002e16:	2208      	movs	r2, #8
 8002e18:	4631      	mov	r1, r6
 8002e1a:	18a0      	adds	r0, r4, r2
 8002e1c:	f006 ffb8 	bl	8009d90 <strncmp>
 8002e20:	2800      	cmp	r0, #0
 8002e22:	d1f5      	bne.n	8002e10 <dyn_create_object_pool+0x10>
  if (dep != NULL) {
 8002e24:	b114      	cbz	r4, 8002e2c <dyn_create_object_pool+0x2c>
    return NULL;
 8002e26:	4604      	mov	r4, r0
}
 8002e28:	4620      	mov	r0, r4
 8002e2a:	bdf8      	pop	{r3, r4, r5, r6, r7, pc}
  dep = (dyn_element_t *)chPoolAlloc(mp);
 8002e2c:	4638      	mov	r0, r7
 8002e2e:	f7fe fc7f 	bl	8001730 <chPoolAlloc>
  if (dep == NULL) {
 8002e32:	4604      	mov	r4, r0
 8002e34:	b148      	cbz	r0, 8002e4a <dyn_create_object_pool+0x4a>
  strncpy(dep->name, name, CH_CFG_FACTORY_MAX_NAMES_LENGTH);
 8002e36:	2208      	movs	r2, #8
 8002e38:	4631      	mov	r1, r6
 8002e3a:	4410      	add	r0, r2
 8002e3c:	f006 fff2 	bl	8009e24 <strncpy>
  dep->refs = (ucnt_t)1;
 8002e40:	2201      	movs	r2, #1
  dep->next = dlp->next;
 8002e42:	682b      	ldr	r3, [r5, #0]
 8002e44:	e9c4 3200 	strd	r3, r2, [r4]
  dlp->next = (dyn_element_t *)dep;
 8002e48:	602c      	str	r4, [r5, #0]
}
 8002e4a:	4620      	mov	r0, r4
 8002e4c:	bdf8      	pop	{r3, r4, r5, r6, r7, pc}
 8002e4e:	bf00      	nop

08002e50 <chThdYield>:
void chThdYield(void) {
 8002e50:	b570      	push	{r4, r5, r6, lr}
 8002e52:	2320      	movs	r3, #32
 8002e54:	f383 8811 	msr	BASEPRI, r3
 */
static inline bool chSchCanYieldS(void) {

  chDbgCheckClassS();

  return firstprio(&ch.rlist.queue) >= currp->prio;
 8002e58:	4a12      	ldr	r2, [pc, #72]	; (8002ea4 <chThdYield+0x54>)
 8002e5a:	6810      	ldr	r0, [r2, #0]
 8002e5c:	6994      	ldr	r4, [r2, #24]
 */
static inline void chSchDoYieldS(void) {

  chDbgCheckClassS();

  if (chSchCanYieldS()) {
 8002e5e:	6883      	ldr	r3, [r0, #8]
  return firstprio(&ch.rlist.queue) >= currp->prio;
 8002e60:	68a1      	ldr	r1, [r4, #8]
  if (chSchCanYieldS()) {
 8002e62:	428b      	cmp	r3, r1
 8002e64:	d203      	bcs.n	8002e6e <chThdYield+0x1e>
 8002e66:	2300      	movs	r3, #0
 8002e68:	f383 8811 	msr	BASEPRI, r3
}
 8002e6c:	bd70      	pop	{r4, r5, r6, pc}
void chSchDoRescheduleBehind(void) {
  thread_t *otp = currp;

  /* Picks the first thread from the ready queue and makes it current.*/
  currp = queue_fifo_remove(&ch.rlist.queue);
  currp->state = CH_STATE_CURRENT;
 8002e6e:	2601      	movs	r6, #1
  tp->state = CH_STATE_READY;
 8002e70:	2500      	movs	r5, #0
  tqp->next             = tp->queue.next;
 8002e72:	6803      	ldr	r3, [r0, #0]
  tqp->next->queue.prev = (thread_t *)tqp;
 8002e74:	605a      	str	r2, [r3, #4]
  tqp->next             = tp->queue.next;
 8002e76:	6013      	str	r3, [r2, #0]
  currp->state = CH_STATE_CURRENT;
 8002e78:	f880 6020 	strb.w	r6, [r0, #32]
  currp = queue_fifo_remove(&ch.rlist.queue);
 8002e7c:	6190      	str	r0, [r2, #24]
  tp->state = CH_STATE_READY;
 8002e7e:	f884 5020 	strb.w	r5, [r4, #32]
 8002e82:	e000      	b.n	8002e86 <chThdYield+0x36>
 8002e84:	681b      	ldr	r3, [r3, #0]
  } while (cp->prio >= tp->prio);
 8002e86:	689a      	ldr	r2, [r3, #8]
 8002e88:	4291      	cmp	r1, r2
 8002e8a:	d9fb      	bls.n	8002e84 <chThdYield+0x34>
  tp->queue.prev             = cp->queue.prev;
 8002e8c:	685a      	ldr	r2, [r3, #4]

  /* Placing in ready list behind peers.*/
  otp = chSchReadyI(otp);

  /* Swap operation as tail call.*/
  chSysSwitch(currp, otp);
 8002e8e:	4621      	mov	r1, r4
  tp->queue.prev             = cp->queue.prev;
 8002e90:	e9c4 3200 	strd	r3, r2, [r4]
  tp->queue.prev->queue.next = tp;
 8002e94:	6014      	str	r4, [r2, #0]
  cp->queue.prev             = tp;
 8002e96:	605c      	str	r4, [r3, #4]
  chSysSwitch(currp, otp);
 8002e98:	f7fd f9d2 	bl	8000240 <_port_switch>
 8002e9c:	2300      	movs	r3, #0
 8002e9e:	f383 8811 	msr	BASEPRI, r3
 8002ea2:	bd70      	pop	{r4, r5, r6, pc}
 8002ea4:	200012d0 	.word	0x200012d0
	...

08002eb0 <bmk_thread8>:
static THD_FUNCTION(bmk_thread8, p) {
 8002eb0:	b538      	push	{r3, r4, r5, lr}
 8002eb2:	4604      	mov	r4, r0
 8002eb4:	4d08      	ldr	r5, [pc, #32]	; (8002ed8 <bmk_thread8+0x28>)
    chThdYield();
 8002eb6:	f7ff ffcb 	bl	8002e50 <chThdYield>
    chThdYield();
 8002eba:	f7ff ffc9 	bl	8002e50 <chThdYield>
    chThdYield();
 8002ebe:	f7ff ffc7 	bl	8002e50 <chThdYield>
    chThdYield();
 8002ec2:	f7ff ffc5 	bl	8002e50 <chThdYield>
    (*(uint32_t *)p) += 4;
 8002ec6:	6823      	ldr	r3, [r4, #0]
  return (bool)((chThdGetSelfX()->flags & CH_FLAG_TERMINATE) != (tmode_t)0);
 8002ec8:	69aa      	ldr	r2, [r5, #24]
 8002eca:	3304      	adds	r3, #4
 8002ecc:	6023      	str	r3, [r4, #0]
  } while(!chThdShouldTerminateX());
 8002ece:	f892 3021 	ldrb.w	r3, [r2, #33]	; 0x21
 8002ed2:	075b      	lsls	r3, r3, #29
 8002ed4:	d5ef      	bpl.n	8002eb6 <bmk_thread8+0x6>
}
 8002ed6:	bd38      	pop	{r3, r4, r5, pc}
 8002ed8:	200012d0 	.word	0x200012d0
 8002edc:	00000000 	.word	0x00000000

08002ee0 <chSchWakeupS>:
  thread_t *otp = currp;
 8002ee0:	4b16      	ldr	r3, [pc, #88]	; (8002f3c <chSchWakeupS+0x5c>)
void chSchWakeupS(thread_t *ntp, msg_t msg) {
 8002ee2:	b470      	push	{r4, r5, r6}
  thread_t *otp = currp;
 8002ee4:	699e      	ldr	r6, [r3, #24]
  if (ntp->prio <= otp->prio) {
 8002ee6:	6885      	ldr	r5, [r0, #8]
void chSchWakeupS(thread_t *ntp, msg_t msg) {
 8002ee8:	4604      	mov	r4, r0
  ntp->u.rdymsg = msg;
 8002eea:	6241      	str	r1, [r0, #36]	; 0x24
  if (ntp->prio <= otp->prio) {
 8002eec:	68b0      	ldr	r0, [r6, #8]
 8002eee:	4285      	cmp	r5, r0
 8002ef0:	d80d      	bhi.n	8002f0e <chSchWakeupS+0x2e>
  tp->state = CH_STATE_READY;
 8002ef2:	2200      	movs	r2, #0
 8002ef4:	f884 2020 	strb.w	r2, [r4, #32]
    cp = cp->queue.next;
 8002ef8:	681b      	ldr	r3, [r3, #0]
  } while (cp->prio >= tp->prio);
 8002efa:	689a      	ldr	r2, [r3, #8]
 8002efc:	4295      	cmp	r5, r2
 8002efe:	d9fb      	bls.n	8002ef8 <chSchWakeupS+0x18>
  tp->queue.prev             = cp->queue.prev;
 8002f00:	685a      	ldr	r2, [r3, #4]
 8002f02:	e9c4 3200 	strd	r3, r2, [r4]
  tp->queue.prev->queue.next = tp;
 8002f06:	6014      	str	r4, [r2, #0]
  cp->queue.prev             = tp;
 8002f08:	605c      	str	r4, [r3, #4]
}
 8002f0a:	bc70      	pop	{r4, r5, r6}
 8002f0c:	4770      	bx	lr
  tp->state = CH_STATE_READY;
 8002f0e:	2100      	movs	r1, #0
  cp = (thread_t *)&ch.rlist.queue;
 8002f10:	461a      	mov	r2, r3
  tp->state = CH_STATE_READY;
 8002f12:	f886 1020 	strb.w	r1, [r6, #32]
    cp = cp->queue.next;
 8002f16:	6812      	ldr	r2, [r2, #0]
  } while (cp->prio >= tp->prio);
 8002f18:	6891      	ldr	r1, [r2, #8]
 8002f1a:	4288      	cmp	r0, r1
 8002f1c:	d9fb      	bls.n	8002f16 <chSchWakeupS+0x36>
    ntp->state = CH_STATE_CURRENT;
 8002f1e:	2001      	movs	r0, #1
  tp->queue.prev             = cp->queue.prev;
 8002f20:	6851      	ldr	r1, [r2, #4]
 8002f22:	e9c6 2100 	strd	r2, r1, [r6]
  tp->queue.prev->queue.next = tp;
 8002f26:	600e      	str	r6, [r1, #0]
  cp->queue.prev             = tp;
 8002f28:	6056      	str	r6, [r2, #4]
    ntp->state = CH_STATE_CURRENT;
 8002f2a:	f884 0020 	strb.w	r0, [r4, #32]
    chSysSwitch(ntp, otp);
 8002f2e:	4631      	mov	r1, r6
 8002f30:	4620      	mov	r0, r4
    currp = ntp;
 8002f32:	619c      	str	r4, [r3, #24]
}
 8002f34:	bc70      	pop	{r4, r5, r6}
    chSysSwitch(ntp, otp);
 8002f36:	f7fd b983 	b.w	8000240 <_port_switch>
 8002f3a:	bf00      	nop
 8002f3c:	200012d0 	.word	0x200012d0

08002f40 <chThdCreateStatic.constprop.103>:
thread_t *chThdCreateStatic(void *wsp, size_t size,
 8002f40:	b5f8      	push	{r3, r4, r5, r6, r7, lr}
 8002f42:	2420      	movs	r4, #32
 8002f44:	f384 8811 	msr	BASEPRI, r4
  tp->flags     = CH_FLAG_MODE_STATIC;
 8002f48:	2401      	movs	r4, #1
  tp->mtxlist   = NULL;
 8002f4a:	2500      	movs	r5, #0
  tp->state     = CH_STATE_WTSTART;
 8002f4c:	2702      	movs	r7, #2
  PORT_SETUP_CONTEXT(tp, wsp, tp, pf, arg);
 8002f4e:	e9c0 2337 	strd	r2, r3, [r0, #220]	; 0xdc
 8002f52:	f100 03dc 	add.w	r3, r0, #220	; 0xdc
  REG_INSERT(tp);
 8002f56:	4e19      	ldr	r6, [pc, #100]	; (8002fbc <chThdCreateStatic.constprop.103+0x7c>)
  PORT_SETUP_CONTEXT(tp, wsp, tp, pf, arg);
 8002f58:	f8c0 310c 	str.w	r3, [r0, #268]	; 0x10c
 8002f5c:	4b18      	ldr	r3, [pc, #96]	; (8002fc0 <chThdCreateStatic.constprop.103+0x80>)
  tp->name      = name;
 8002f5e:	4a19      	ldr	r2, [pc, #100]	; (8002fc4 <chThdCreateStatic.constprop.103+0x84>)
  PORT_SETUP_CONTEXT(tp, wsp, tp, pf, arg);
 8002f60:	f8c0 30fc 	str.w	r3, [r0, #252]	; 0xfc
  REG_INSERT(tp);
 8002f64:	6973      	ldr	r3, [r6, #20]
  tp->flags     = CH_FLAG_MODE_STATIC;
 8002f66:	f880 4122 	strb.w	r4, [r0, #290]	; 0x122
  tp = (thread_t *)((uint8_t *)wsp + size -
 8002f6a:	f500 7480 	add.w	r4, r0, #256	; 0x100
  tp->prio      = prio;
 8002f6e:	f8c0 1108 	str.w	r1, [r0, #264]	; 0x108
  tp->realprio  = prio;
 8002f72:	f8c0 113c 	str.w	r1, [r0, #316]	; 0x13c
  tp->state     = CH_STATE_WTSTART;
 8002f76:	f8a0 7120 	strh.w	r7, [r0, #288]	; 0x120
  tp->name      = name;
 8002f7a:	f8c0 2118 	str.w	r2, [r0, #280]	; 0x118
  tp->mtxlist   = NULL;
 8002f7e:	f8c0 5138 	str.w	r5, [r0, #312]	; 0x138
  list_init(&tp->waiting);
 8002f82:	f500 7294 	add.w	r2, r0, #296	; 0x128
  tp->epending  = (eventmask_t)0;
 8002f86:	f8c0 5134 	str.w	r5, [r0, #308]	; 0x134
  REG_INSERT(tp);
 8002f8a:	f8c0 6110 	str.w	r6, [r0, #272]	; 0x110
 8002f8e:	f8c0 3114 	str.w	r3, [r0, #276]	; 0x114
  tp->wabase = (stkalign_t *)wsp;
 8002f92:	f8c0 011c 	str.w	r0, [r0, #284]	; 0x11c
  REG_INSERT(tp);
 8002f96:	611c      	str	r4, [r3, #16]
  queue_init(&tp->msgqueue);
 8002f98:	f500 7396 	add.w	r3, r0, #300	; 0x12c
  tlp->next = (thread_t *)tlp;
 8002f9c:	f8c0 2128 	str.w	r2, [r0, #296]	; 0x128
  tqp->next = (thread_t *)tqp;
 8002fa0:	f8c0 312c 	str.w	r3, [r0, #300]	; 0x12c
  tqp->prev = (thread_t *)tqp;
 8002fa4:	f8c0 3130 	str.w	r3, [r0, #304]	; 0x130
  chSchWakeupS(tp, MSG_OK);
 8002fa8:	4629      	mov	r1, r5
 8002faa:	4620      	mov	r0, r4
  REG_INSERT(tp);
 8002fac:	6174      	str	r4, [r6, #20]
  chSchWakeupS(tp, MSG_OK);
 8002fae:	f7ff ff97 	bl	8002ee0 <chSchWakeupS>
 8002fb2:	f385 8811 	msr	BASEPRI, r5
}
 8002fb6:	4620      	mov	r0, r4
 8002fb8:	bdf8      	pop	{r3, r4, r5, r6, r7, pc}
 8002fba:	bf00      	nop
 8002fbc:	200012d0 	.word	0x200012d0
 8002fc0:	08000251 	.word	0x08000251
 8002fc4:	08009fe4 	.word	0x08009fe4
	...

08002fd0 <chCondSignal.constprop.93>:
void chCondSignal(condition_variable_t *cp) {
 8002fd0:	b508      	push	{r3, lr}
 8002fd2:	2320      	movs	r3, #32
 8002fd4:	f383 8811 	msr	BASEPRI, r3
  return (bool)(tqp->next != (const thread_t *)tqp);
 8002fd8:	4b06      	ldr	r3, [pc, #24]	; (8002ff4 <chCondSignal.constprop.93+0x24>)
 8002fda:	6818      	ldr	r0, [r3, #0]
  if (queue_notempty(&cp->queue)) {
 8002fdc:	4298      	cmp	r0, r3
 8002fde:	d005      	beq.n	8002fec <chCondSignal.constprop.93+0x1c>
  tqp->next             = tp->queue.next;
 8002fe0:	6802      	ldr	r2, [r0, #0]
    chSchWakeupS(queue_fifo_remove(&cp->queue), MSG_OK);
 8002fe2:	2100      	movs	r1, #0
  tqp->next->queue.prev = (thread_t *)tqp;
 8002fe4:	6053      	str	r3, [r2, #4]
  tqp->next             = tp->queue.next;
 8002fe6:	601a      	str	r2, [r3, #0]
 8002fe8:	f7ff ff7a 	bl	8002ee0 <chSchWakeupS>
 8002fec:	2300      	movs	r3, #0
 8002fee:	f383 8811 	msr	BASEPRI, r3
}
 8002ff2:	bd08      	pop	{r3, pc}
 8002ff4:	2000080c 	.word	0x2000080c
	...

08003000 <chThdCreateFromMemoryPool.constprop.74>:
 *                      the thread into the working space area.
 * @retval  NULL        if the memory pool is empty.
 *
 * @api
 */
thread_t *chThdCreateFromMemoryPool(memory_pool_t *mp, const char *name,
 8003000:	b5f0      	push	{r4, r5, r6, r7, lr}
  thread_t *tp;
  void *wsp;

  chDbgCheck(mp != NULL);

  wsp = chPoolAlloc(mp);
 8003002:	4d14      	ldr	r5, [pc, #80]	; (8003054 <chThdCreateFromMemoryPool.constprop.74+0x54>)
thread_t *chThdCreateFromMemoryPool(memory_pool_t *mp, const char *name,
 8003004:	b087      	sub	sp, #28
 8003006:	4607      	mov	r7, r0
  wsp = chPoolAlloc(mp);
 8003008:	4628      	mov	r0, r5
thread_t *chThdCreateFromMemoryPool(memory_pool_t *mp, const char *name,
 800300a:	460e      	mov	r6, r1
 800300c:	4614      	mov	r4, r2
  wsp = chPoolAlloc(mp);
 800300e:	f7fe fb8f 	bl	8001730 <chPoolAlloc>
  if (wsp == NULL) {
 8003012:	b1e0      	cbz	r0, 800304e <chThdCreateFromMemoryPool.constprop.74+0x4e>
  }

  thread_descriptor_t td = {
    name,
    wsp,
    (stkalign_t *)((uint8_t *)wsp + mp->object_size),
 8003014:	686b      	ldr	r3, [r5, #4]
  thread_descriptor_t td = {
 8003016:	4a10      	ldr	r2, [pc, #64]	; (8003058 <chThdCreateFromMemoryPool.constprop.74+0x58>)
    (stkalign_t *)((uint8_t *)wsp + mp->object_size),
 8003018:	4403      	add	r3, r0
  thread_descriptor_t td = {
 800301a:	9302      	str	r3, [sp, #8]
 800301c:	9700      	str	r7, [sp, #0]
 800301e:	9001      	str	r0, [sp, #4]
 8003020:	9603      	str	r6, [sp, #12]
 8003022:	9405      	str	r4, [sp, #20]
 8003024:	9204      	str	r2, [sp, #16]
 8003026:	2320      	movs	r3, #32
 8003028:	f383 8811 	msr	BASEPRI, r3
                  (uint8_t *)wsp + mp->object_size,
                  CH_DBG_STACK_FILL_VALUE);
#endif

  chSysLock();
  tp = chThdCreateSuspendedI(&td);
 800302c:	4668      	mov	r0, sp
 800302e:	f7fe fcc7 	bl	80019c0 <chThdCreateSuspendedI>
  tp->flags = CH_FLAG_MODE_MPOOL;
 8003032:	2302      	movs	r3, #2
  tp->mpool = mp;
 8003034:	6405      	str	r5, [r0, #64]	; 0x40
  tp->flags = CH_FLAG_MODE_MPOOL;
 8003036:	f880 3021 	strb.w	r3, [r0, #33]	; 0x21
  chSchWakeupS(tp, MSG_OK);
 800303a:	2100      	movs	r1, #0
  tp = chThdCreateSuspendedI(&td);
 800303c:	4604      	mov	r4, r0
  chSchWakeupS(tp, MSG_OK);
 800303e:	f7ff ff4f 	bl	8002ee0 <chSchWakeupS>
 8003042:	2300      	movs	r3, #0
 8003044:	f383 8811 	msr	BASEPRI, r3
  chSysUnlock();

  return tp;
}
 8003048:	4620      	mov	r0, r4
 800304a:	b007      	add	sp, #28
 800304c:	bdf0      	pop	{r4, r5, r6, r7, pc}
    return NULL;
 800304e:	4604      	mov	r4, r0
 8003050:	e7fa      	b.n	8003048 <chThdCreateFromMemoryPool.constprop.74+0x48>
 8003052:	bf00      	nop
 8003054:	200014f8 	.word	0x200014f8
 8003058:	08000b01 	.word	0x08000b01
 800305c:	00000000 	.word	0x00000000

08003060 <chSemSignal>:
void chSemSignal(semaphore_t *sp) {
 8003060:	b508      	push	{r3, lr}
 8003062:	2320      	movs	r3, #32
 8003064:	f383 8811 	msr	BASEPRI, r3
  if (++sp->cnt <= (cnt_t)0) {
 8003068:	6883      	ldr	r3, [r0, #8]
 800306a:	3301      	adds	r3, #1
 800306c:	2b00      	cmp	r3, #0
 800306e:	6083      	str	r3, [r0, #8]
 8003070:	dd03      	ble.n	800307a <chSemSignal+0x1a>
 8003072:	2300      	movs	r3, #0
 8003074:	f383 8811 	msr	BASEPRI, r3
}
 8003078:	bd08      	pop	{r3, pc}
 800307a:	4603      	mov	r3, r0
  thread_t *tp = tqp->next;
 800307c:	6800      	ldr	r0, [r0, #0]
    chSchWakeupS(queue_fifo_remove(&sp->queue), MSG_OK);
 800307e:	2100      	movs	r1, #0
  tqp->next             = tp->queue.next;
 8003080:	6802      	ldr	r2, [r0, #0]
 8003082:	601a      	str	r2, [r3, #0]
  tqp->next->queue.prev = (thread_t *)tqp;
 8003084:	6053      	str	r3, [r2, #4]
 8003086:	f7ff ff2b 	bl	8002ee0 <chSchWakeupS>
 800308a:	2300      	movs	r3, #0
 800308c:	f383 8811 	msr	BASEPRI, r3
}
 8003090:	bd08      	pop	{r3, pc}
 8003092:	bf00      	nop
	...

080030a0 <chSchGoSleepS>:
void chSchGoSleepS(tstate_t newstate) {
 80030a0:	b430      	push	{r4, r5}
  currp->state = CH_STATE_CURRENT;
 80030a2:	2501      	movs	r5, #1
  thread_t *otp = currp;
 80030a4:	4b07      	ldr	r3, [pc, #28]	; (80030c4 <chSchGoSleepS+0x24>)
 80030a6:	6999      	ldr	r1, [r3, #24]
  thread_t *tp = tqp->next;
 80030a8:	681a      	ldr	r2, [r3, #0]
  otp->state = newstate;
 80030aa:	f881 0020 	strb.w	r0, [r1, #32]
  tqp->next             = tp->queue.next;
 80030ae:	6814      	ldr	r4, [r2, #0]
  chSysSwitch(currp, otp);
 80030b0:	4610      	mov	r0, r2
  tqp->next->queue.prev = (thread_t *)tqp;
 80030b2:	6063      	str	r3, [r4, #4]
  currp->state = CH_STATE_CURRENT;
 80030b4:	f882 5020 	strb.w	r5, [r2, #32]
  tqp->next             = tp->queue.next;
 80030b8:	601c      	str	r4, [r3, #0]
}
 80030ba:	bc30      	pop	{r4, r5}
  currp = queue_fifo_remove(&ch.rlist.queue);
 80030bc:	619a      	str	r2, [r3, #24]
  chSysSwitch(currp, otp);
 80030be:	f7fd b8bf 	b.w	8000240 <_port_switch>
 80030c2:	bf00      	nop
 80030c4:	200012d0 	.word	0x200012d0
	...

080030d0 <chEvtWaitOne.constprop.81>:
 * @return              The mask of the lowest event id served and cleared.
 *
 * @api
 */
eventmask_t chEvtWaitOne(eventmask_t events) {
  thread_t *ctp = currp;
 80030d0:	4a0b      	ldr	r2, [pc, #44]	; (8003100 <chEvtWaitOne.constprop.81+0x30>)
eventmask_t chEvtWaitOne(eventmask_t events) {
 80030d2:	b510      	push	{r4, lr}
 80030d4:	2320      	movs	r3, #32
  thread_t *ctp = currp;
 80030d6:	6994      	ldr	r4, [r2, #24]
 80030d8:	f383 8811 	msr	BASEPRI, r3
  eventmask_t m;

  chSysLock();
  m = ctp->epending & events;
 80030dc:	6b63      	ldr	r3, [r4, #52]	; 0x34
  if (m == (eventmask_t)0) {
 80030de:	b933      	cbnz	r3, 80030ee <chEvtWaitOne.constprop.81+0x1e>
    ctp->u.ewmask = events;
 80030e0:	f04f 33ff 	mov.w	r3, #4294967295	; 0xffffffff
    chSchGoSleepS(CH_STATE_WTOREVT);
 80030e4:	200a      	movs	r0, #10
    ctp->u.ewmask = events;
 80030e6:	6263      	str	r3, [r4, #36]	; 0x24
    chSchGoSleepS(CH_STATE_WTOREVT);
 80030e8:	f7ff ffda 	bl	80030a0 <chSchGoSleepS>
    m = ctp->epending & events;
 80030ec:	6b63      	ldr	r3, [r4, #52]	; 0x34
  }
  m ^= m & (m - (eventmask_t)1);
 80030ee:	4258      	negs	r0, r3
 80030f0:	4018      	ands	r0, r3
  ctp->epending &= ~m;
 80030f2:	ea23 0300 	bic.w	r3, r3, r0
 80030f6:	6363      	str	r3, [r4, #52]	; 0x34
 80030f8:	2300      	movs	r3, #0
 80030fa:	f383 8811 	msr	BASEPRI, r3
  chSysUnlock();

  return m;
}
 80030fe:	bd10      	pop	{r4, pc}
 8003100:	200012d0 	.word	0x200012d0
	...

08003110 <chEvtWaitAny.constprop.80>:
 * @return              The mask of the served and cleared events.
 *
 * @api
 */
eventmask_t chEvtWaitAny(eventmask_t events) {
  thread_t *ctp = currp;
 8003110:	4a09      	ldr	r2, [pc, #36]	; (8003138 <chEvtWaitAny.constprop.80+0x28>)
eventmask_t chEvtWaitAny(eventmask_t events) {
 8003112:	b510      	push	{r4, lr}
 8003114:	2320      	movs	r3, #32
  thread_t *ctp = currp;
 8003116:	6994      	ldr	r4, [r2, #24]
 8003118:	f383 8811 	msr	BASEPRI, r3
  eventmask_t m;

  chSysLock();
  m = ctp->epending & events;
 800311c:	6b60      	ldr	r0, [r4, #52]	; 0x34
  if (m == (eventmask_t)0) {
 800311e:	b930      	cbnz	r0, 800312e <chEvtWaitAny.constprop.80+0x1e>
    ctp->u.ewmask = events;
 8003120:	f04f 33ff 	mov.w	r3, #4294967295	; 0xffffffff
    chSchGoSleepS(CH_STATE_WTOREVT);
 8003124:	200a      	movs	r0, #10
    ctp->u.ewmask = events;
 8003126:	6263      	str	r3, [r4, #36]	; 0x24
    chSchGoSleepS(CH_STATE_WTOREVT);
 8003128:	f7ff ffba 	bl	80030a0 <chSchGoSleepS>
    m = ctp->epending & events;
 800312c:	6b60      	ldr	r0, [r4, #52]	; 0x34
  }
  ctp->epending &= ~m;
 800312e:	2300      	movs	r3, #0
 8003130:	6363      	str	r3, [r4, #52]	; 0x34
 8003132:	f383 8811 	msr	BASEPRI, r3
  chSysUnlock();

  return m;
}
 8003136:	bd10      	pop	{r4, pc}
 8003138:	200012d0 	.word	0x200012d0
 800313c:	00000000 	.word	0x00000000

08003140 <chEvtWaitAll.constprop.79>:
 * @return              The mask of the served and cleared events.
 *
 * @api
 */
eventmask_t chEvtWaitAll(eventmask_t events) {
  thread_t *ctp = currp;
 8003140:	4a0c      	ldr	r2, [pc, #48]	; (8003174 <chEvtWaitAll.constprop.79+0x34>)
eventmask_t chEvtWaitAll(eventmask_t events) {
 8003142:	b510      	push	{r4, lr}
 8003144:	2320      	movs	r3, #32
  thread_t *ctp = currp;
 8003146:	6994      	ldr	r4, [r2, #24]
 8003148:	f383 8811 	msr	BASEPRI, r3

  chSysLock();
  if ((ctp->epending & events) != events) {
 800314c:	6b63      	ldr	r3, [r4, #52]	; 0x34
 800314e:	f003 0205 	and.w	r2, r3, #5
 8003152:	2a05      	cmp	r2, #5
 8003154:	d005      	beq.n	8003162 <chEvtWaitAll.constprop.79+0x22>
    ctp->u.ewmask = events;
 8003156:	2305      	movs	r3, #5
    chSchGoSleepS(CH_STATE_WTANDEVT);
 8003158:	200b      	movs	r0, #11
    ctp->u.ewmask = events;
 800315a:	6263      	str	r3, [r4, #36]	; 0x24
    chSchGoSleepS(CH_STATE_WTANDEVT);
 800315c:	f7ff ffa0 	bl	80030a0 <chSchGoSleepS>
 8003160:	6b63      	ldr	r3, [r4, #52]	; 0x34
  }
  ctp->epending &= ~events;
 8003162:	f023 0305 	bic.w	r3, r3, #5
 8003166:	6363      	str	r3, [r4, #52]	; 0x34
 8003168:	2300      	movs	r3, #0
 800316a:	f383 8811 	msr	BASEPRI, r3
  chSysUnlock();

  return events;
}
 800316e:	2005      	movs	r0, #5
 8003170:	bd10      	pop	{r4, pc}
 8003172:	bf00      	nop
 8003174:	200012d0 	.word	0x200012d0
	...

08003180 <bmk_thread4>:
  return ch.rlist.current;
 8003180:	4a07      	ldr	r2, [pc, #28]	; (80031a0 <bmk_thread4+0x20>)
static THD_FUNCTION(bmk_thread4, p) {
 8003182:	b510      	push	{r4, lr}
 8003184:	2320      	movs	r3, #32
 8003186:	6994      	ldr	r4, [r2, #24]
 8003188:	f383 8811 	msr	BASEPRI, r3
    chSchGoSleepS(CH_STATE_SUSPENDED);
 800318c:	2003      	movs	r0, #3
 800318e:	f7ff ff87 	bl	80030a0 <chSchGoSleepS>
  } while (msg == MSG_OK);
 8003192:	6a63      	ldr	r3, [r4, #36]	; 0x24
 8003194:	2b00      	cmp	r3, #0
 8003196:	d0f9      	beq.n	800318c <bmk_thread4+0xc>
 8003198:	2300      	movs	r3, #0
 800319a:	f383 8811 	msr	BASEPRI, r3
}
 800319e:	bd10      	pop	{r4, pc}
 80031a0:	200012d0 	.word	0x200012d0
	...

080031b0 <chSchGoSleepTimeoutS>:
msg_t chSchGoSleepTimeoutS(tstate_t newstate, sysinterval_t timeout) {
 80031b0:	b530      	push	{r4, r5, lr}
  if (TIME_INFINITE != timeout) {
 80031b2:	1c4b      	adds	r3, r1, #1
msg_t chSchGoSleepTimeoutS(tstate_t newstate, sysinterval_t timeout) {
 80031b4:	b087      	sub	sp, #28
  if (TIME_INFINITE != timeout) {
 80031b6:	d012      	beq.n	80031de <chSchGoSleepTimeoutS+0x2e>
 80031b8:	4605      	mov	r5, r0
    chVTDoSetI(&vt, timeout, wakeup, currp);
 80031ba:	4c0c      	ldr	r4, [pc, #48]	; (80031ec <chSchGoSleepTimeoutS+0x3c>)
 80031bc:	a801      	add	r0, sp, #4
 80031be:	69a3      	ldr	r3, [r4, #24]
 80031c0:	4a0b      	ldr	r2, [pc, #44]	; (80031f0 <chSchGoSleepTimeoutS+0x40>)
 80031c2:	f7fe fe85 	bl	8001ed0 <chVTDoSetI>
    chSchGoSleepS(newstate);
 80031c6:	4628      	mov	r0, r5
 80031c8:	f7ff ff6a 	bl	80030a0 <chSchGoSleepS>
    if (chVTIsArmedI(&vt)) {
 80031cc:	9b04      	ldr	r3, [sp, #16]
 80031ce:	b113      	cbz	r3, 80031d6 <chSchGoSleepTimeoutS+0x26>
      chVTDoResetI(&vt);
 80031d0:	a801      	add	r0, sp, #4
 80031d2:	f7fe fe35 	bl	8001e40 <chVTDoResetI>
  return currp->u.rdymsg;
 80031d6:	69a3      	ldr	r3, [r4, #24]
}
 80031d8:	6a58      	ldr	r0, [r3, #36]	; 0x24
 80031da:	b007      	add	sp, #28
 80031dc:	bd30      	pop	{r4, r5, pc}
    chSchGoSleepS(newstate);
 80031de:	f7ff ff5f 	bl	80030a0 <chSchGoSleepS>
 80031e2:	4c02      	ldr	r4, [pc, #8]	; (80031ec <chSchGoSleepTimeoutS+0x3c>)
  return currp->u.rdymsg;
 80031e4:	69a3      	ldr	r3, [r4, #24]
}
 80031e6:	6a58      	ldr	r0, [r3, #36]	; 0x24
 80031e8:	b007      	add	sp, #28
 80031ea:	bd30      	pop	{r4, r5, pc}
 80031ec:	200012d0 	.word	0x200012d0
 80031f0:	08001a41 	.word	0x08001a41
	...

08003200 <chSemWaitTimeout.constprop.100>:
 8003200:	2320      	movs	r3, #32
 8003202:	f383 8811 	msr	BASEPRI, r3
  if (--sp->cnt < (cnt_t)0) {
 8003206:	4b10      	ldr	r3, [pc, #64]	; (8003248 <chSemWaitTimeout.constprop.100+0x48>)
 8003208:	6899      	ldr	r1, [r3, #8]
 800320a:	1e4a      	subs	r2, r1, #1
 800320c:	2a00      	cmp	r2, #0
 800320e:	609a      	str	r2, [r3, #8]
 8003210:	db04      	blt.n	800321c <chSemWaitTimeout.constprop.100+0x1c>
  return MSG_OK;
 8003212:	2000      	movs	r0, #0
 8003214:	2300      	movs	r3, #0
 8003216:	f383 8811 	msr	BASEPRI, r3
}
 800321a:	4770      	bx	lr
    if (TIME_IMMEDIATE == timeout) {
 800321c:	b180      	cbz	r0, 8003240 <chSemWaitTimeout.constprop.100+0x40>
    currp->u.wtsemp = sp;
 800321e:	4a0b      	ldr	r2, [pc, #44]	; (800324c <chSemWaitTimeout.constprop.100+0x4c>)
msg_t chSemWaitTimeout(semaphore_t *sp, sysinterval_t timeout) {
 8003220:	b510      	push	{r4, lr}
    currp->u.wtsemp = sp;
 8003222:	6992      	ldr	r2, [r2, #24]
  tp->queue.prev             = tqp->prev;
 8003224:	685c      	ldr	r4, [r3, #4]
 8003226:	6253      	str	r3, [r2, #36]	; 0x24
 8003228:	e9c2 3400 	strd	r3, r4, [r2]
 800322c:	4601      	mov	r1, r0
  tp->queue.prev->queue.next = tp;
 800322e:	6022      	str	r2, [r4, #0]
    return chSchGoSleepTimeoutS(CH_STATE_WTSEM, timeout);
 8003230:	2005      	movs	r0, #5
  tqp->prev                  = tp;
 8003232:	605a      	str	r2, [r3, #4]
 8003234:	f7ff ffbc 	bl	80031b0 <chSchGoSleepTimeoutS>
 8003238:	2300      	movs	r3, #0
 800323a:	f383 8811 	msr	BASEPRI, r3
}
 800323e:	bd10      	pop	{r4, pc}
      sp->cnt++;
 8003240:	6099      	str	r1, [r3, #8]
      return MSG_TIMEOUT;
 8003242:	f04f 30ff 	mov.w	r0, #4294967295	; 0xffffffff
 8003246:	e7e5      	b.n	8003214 <chSemWaitTimeout.constprop.100+0x14>
 8003248:	20001528 	.word	0x20001528
 800324c:	200012d0 	.word	0x200012d0

08003250 <chGuardedPoolAllocTimeout.constprop.58>:
 * @return              The pointer to the allocated object.
 * @retval NULL         if the operation timed out.
 *
 * @api
 */
void *chGuardedPoolAllocTimeout(guarded_memory_pool_t *gmp,
 8003250:	b510      	push	{r4, lr}
 8003252:	2320      	movs	r3, #32
 8003254:	f383 8811 	msr	BASEPRI, r3
  if (--sp->cnt < (cnt_t)0) {
 8003258:	4c15      	ldr	r4, [pc, #84]	; (80032b0 <chGuardedPoolAllocTimeout.constprop.58+0x60>)
 800325a:	68a2      	ldr	r2, [r4, #8]
 800325c:	1e53      	subs	r3, r2, #1
 800325e:	2b00      	cmp	r3, #0
 8003260:	60a3      	str	r3, [r4, #8]
 8003262:	db07      	blt.n	8003274 <chGuardedPoolAllocTimeout.constprop.58+0x24>
  objp = mp->next;
 8003264:	68e0      	ldr	r0, [r4, #12]
  if (objp != NULL) {
 8003266:	b1b0      	cbz	r0, 8003296 <chGuardedPoolAllocTimeout.constprop.58+0x46>
    mp->next = mp->next->next;
 8003268:	6803      	ldr	r3, [r0, #0]
 800326a:	60e3      	str	r3, [r4, #12]
 800326c:	2300      	movs	r3, #0
 800326e:	f383 8811 	msr	BASEPRI, r3
  chSysLock();
  p = chGuardedPoolAllocTimeoutS(gmp, timeout);
  chSysUnlock();

  return p;
}
 8003272:	bd10      	pop	{r4, pc}
    if (TIME_IMMEDIATE == timeout) {
 8003274:	b1c8      	cbz	r0, 80032aa <chGuardedPoolAllocTimeout.constprop.58+0x5a>
    currp->u.wtsemp = sp;
 8003276:	4b0f      	ldr	r3, [pc, #60]	; (80032b4 <chGuardedPoolAllocTimeout.constprop.58+0x64>)
  tp->queue.prev             = tqp->prev;
 8003278:	6862      	ldr	r2, [r4, #4]
 800327a:	699b      	ldr	r3, [r3, #24]
    return chSchGoSleepTimeoutS(CH_STATE_WTSEM, timeout);
 800327c:	4601      	mov	r1, r0
 800327e:	e9c3 4200 	strd	r4, r2, [r3]
    currp->u.wtsemp = sp;
 8003282:	625c      	str	r4, [r3, #36]	; 0x24
    return chSchGoSleepTimeoutS(CH_STATE_WTSEM, timeout);
 8003284:	2005      	movs	r0, #5
  tp->queue.prev->queue.next = tp;
 8003286:	6013      	str	r3, [r2, #0]
  tqp->prev                  = tp;
 8003288:	6063      	str	r3, [r4, #4]
 800328a:	f7ff ff91 	bl	80031b0 <chSchGoSleepTimeoutS>
  if (msg != MSG_OK) {
 800328e:	2800      	cmp	r0, #0
 8003290:	d0e8      	beq.n	8003264 <chGuardedPoolAllocTimeout.constprop.58+0x14>
    return NULL;
 8003292:	2000      	movs	r0, #0
 8003294:	e7ea      	b.n	800326c <chGuardedPoolAllocTimeout.constprop.58+0x1c>
  else if (mp->provider != NULL) {
 8003296:	69a3      	ldr	r3, [r4, #24]
 8003298:	2b00      	cmp	r3, #0
 800329a:	d0fa      	beq.n	8003292 <chGuardedPoolAllocTimeout.constprop.58+0x42>
    objp = mp->provider(mp->object_size, mp->align);
 800329c:	e9d4 0104 	ldrd	r0, r1, [r4, #16]
 80032a0:	4798      	blx	r3
 80032a2:	2300      	movs	r3, #0
 80032a4:	f383 8811 	msr	BASEPRI, r3
}
 80032a8:	bd10      	pop	{r4, pc}
      sp->cnt++;
 80032aa:	60a2      	str	r2, [r4, #8]
 80032ac:	e7de      	b.n	800326c <chGuardedPoolAllocTimeout.constprop.58+0x1c>
 80032ae:	bf00      	nop
 80032b0:	2000081c 	.word	0x2000081c
 80032b4:	200012d0 	.word	0x200012d0
	...

080032c0 <oslib_test_002_003_execute>:

static void oslib_test_002_003_execute(void) {

  /* [2.3.1] Trying to allocate with 100mS timeout, must fail because
     the pool is empty.*/
  test_set_step(1);
 80032c0:	2201      	movs	r2, #1
static void oslib_test_002_003_execute(void) {
 80032c2:	b508      	push	{r3, lr}
  test_set_step(1);
 80032c4:	4b06      	ldr	r3, [pc, #24]	; (80032e0 <oslib_test_002_003_execute+0x20>)
  {
    test_assert(chGuardedPoolAllocTimeout(&gmp1, TIME_MS2I(100)) == NULL, "list not empty");
 80032c6:	20c8      	movs	r0, #200	; 0xc8
  test_set_step(1);
 80032c8:	601a      	str	r2, [r3, #0]
    test_assert(chGuardedPoolAllocTimeout(&gmp1, TIME_MS2I(100)) == NULL, "list not empty");
 80032ca:	f7ff ffc1 	bl	8003250 <chGuardedPoolAllocTimeout.constprop.58>
  }
}
 80032ce:	e8bd 4008 	ldmia.w	sp!, {r3, lr}
    test_assert(chGuardedPoolAllocTimeout(&gmp1, TIME_MS2I(100)) == NULL, "list not empty");
 80032d2:	fab0 f080 	clz	r0, r0
 80032d6:	4903      	ldr	r1, [pc, #12]	; (80032e4 <oslib_test_002_003_execute+0x24>)
 80032d8:	0940      	lsrs	r0, r0, #5
 80032da:	f7fd bb39 	b.w	8000950 <_test_assert>
 80032de:	bf00      	nop
 80032e0:	20001c5c 	.word	0x20001c5c
 80032e4:	0800a4ac 	.word	0x0800a4ac
	...

080032f0 <rt_test_008_006_execute>:
  test_set_step(1);
 80032f0:	2001      	movs	r0, #1
static void rt_test_008_006_execute(void) {
 80032f2:	b570      	push	{r4, r5, r6, lr}
  test_set_step(1);
 80032f4:	4d55      	ldr	r5, [pc, #340]	; (800344c <rt_test_008_006_execute+0x15c>)
 * @retval 0            if the operation has timed out.
 *
 * @api
 */
eventmask_t chEvtWaitOneTimeout(eventmask_t events, sysinterval_t timeout) {
  thread_t *ctp = currp;
 80032f6:	4c56      	ldr	r4, [pc, #344]	; (8003450 <rt_test_008_006_execute+0x160>)
 80032f8:	6028      	str	r0, [r5, #0]
 80032fa:	69a2      	ldr	r2, [r4, #24]
 80032fc:	2320      	movs	r3, #32
 80032fe:	f383 8811 	msr	BASEPRI, r3
  eventmask_t m;

  chSysLock();
  m = ctp->epending & events;
 8003302:	6b53      	ldr	r3, [r2, #52]	; 0x34
  if (m == (eventmask_t)0) {
 8003304:	b933      	cbnz	r3, 8003314 <rt_test_008_006_execute+0x24>
 8003306:	f383 8811 	msr	BASEPRI, r3
    test_assert(m == 0, "spurious event");
 800330a:	4952      	ldr	r1, [pc, #328]	; (8003454 <rt_test_008_006_execute+0x164>)
 800330c:	f7fd fb20 	bl	8000950 <_test_assert>
 8003310:	b180      	cbz	r0, 8003334 <rt_test_008_006_execute+0x44>
}
 8003312:	bd70      	pop	{r4, r5, r6, pc}
      chSysUnlock();
      return (eventmask_t)0;
    }
    m = ctp->epending & events;
  }
  m ^= m & (m - (eventmask_t)1);
 8003314:	4258      	negs	r0, r3
 8003316:	4018      	ands	r0, r3
  ctp->epending &= ~m;
 8003318:	ea23 0300 	bic.w	r3, r3, r0
 800331c:	6353      	str	r3, [r2, #52]	; 0x34
 800331e:	2300      	movs	r3, #0
 8003320:	f383 8811 	msr	BASEPRI, r3
 8003324:	fab0 f080 	clz	r0, r0
    test_assert(m == 0, "spurious event");
 8003328:	494a      	ldr	r1, [pc, #296]	; (8003454 <rt_test_008_006_execute+0x164>)
 800332a:	0940      	lsrs	r0, r0, #5
 800332c:	f7fd fb10 	bl	8000950 <_test_assert>
 8003330:	2800      	cmp	r0, #0
 8003332:	d1ee      	bne.n	8003312 <rt_test_008_006_execute+0x22>
 * @retval 0            if the operation has timed out.
 *
 * @api
 */
eventmask_t chEvtWaitAnyTimeout(eventmask_t events, sysinterval_t timeout) {
  thread_t *ctp = currp;
 8003334:	69a3      	ldr	r3, [r4, #24]
 8003336:	2220      	movs	r2, #32
 8003338:	f382 8811 	msr	BASEPRI, r2
  eventmask_t m;

  chSysLock();
  m = ctp->epending & events;
  if (m == (eventmask_t)0) {
 800333c:	6b5a      	ldr	r2, [r3, #52]	; 0x34
 800333e:	2a00      	cmp	r2, #0
 8003340:	d06f      	beq.n	8003422 <rt_test_008_006_execute+0x132>
      chSysUnlock();
      return (eventmask_t)0;
    }
    m = ctp->epending & events;
  }
  ctp->epending &= ~m;
 8003342:	6358      	str	r0, [r3, #52]	; 0x34
 8003344:	f380 8811 	msr	BASEPRI, r0
    test_assert(m == 0, "spurious event");
 8003348:	4942      	ldr	r1, [pc, #264]	; (8003454 <rt_test_008_006_execute+0x164>)
 800334a:	f7fd fb01 	bl	8000950 <_test_assert>
 800334e:	2800      	cmp	r0, #0
 8003350:	d1df      	bne.n	8003312 <rt_test_008_006_execute+0x22>
 * @retval 0            if the operation has timed out.
 *
 * @api
 */
eventmask_t chEvtWaitAllTimeout(eventmask_t events, sysinterval_t timeout) {
  thread_t *ctp = currp;
 8003352:	69a3      	ldr	r3, [r4, #24]
 8003354:	2220      	movs	r2, #32
 8003356:	f382 8811 	msr	BASEPRI, r2

  chSysLock();
  if ((ctp->epending & events) != events) {
 800335a:	6b5a      	ldr	r2, [r3, #52]	; 0x34
 800335c:	3201      	adds	r2, #1
 800335e:	d064      	beq.n	800342a <rt_test_008_006_execute+0x13a>
 8003360:	f380 8811 	msr	BASEPRI, r0
 8003364:	2001      	movs	r0, #1
    test_assert(m == 0, "spurious event");
 8003366:	493b      	ldr	r1, [pc, #236]	; (8003454 <rt_test_008_006_execute+0x164>)
 8003368:	f7fd faf2 	bl	8000950 <_test_assert>
 800336c:	2800      	cmp	r0, #0
 800336e:	d1d0      	bne.n	8003312 <rt_test_008_006_execute+0x22>
  test_set_step(2);
 8003370:	2302      	movs	r3, #2
  thread_t *ctp = currp;
 8003372:	69a6      	ldr	r6, [r4, #24]
 8003374:	602b      	str	r3, [r5, #0]
 8003376:	2320      	movs	r3, #32
 8003378:	f383 8811 	msr	BASEPRI, r3
  m = ctp->epending & events;
 800337c:	6b75      	ldr	r5, [r6, #52]	; 0x34
  if (m == (eventmask_t)0) {
 800337e:	b94d      	cbnz	r5, 8003394 <rt_test_008_006_execute+0xa4>
    ctp->u.ewmask = events;
 8003380:	f04f 33ff 	mov.w	r3, #4294967295	; 0xffffffff
    if (chSchGoSleepTimeoutS(CH_STATE_WTOREVT, timeout) < MSG_OK) {
 8003384:	2164      	movs	r1, #100	; 0x64
    ctp->u.ewmask = events;
 8003386:	6273      	str	r3, [r6, #36]	; 0x24
    if (chSchGoSleepTimeoutS(CH_STATE_WTOREVT, timeout) < MSG_OK) {
 8003388:	200a      	movs	r0, #10
 800338a:	f7ff ff11 	bl	80031b0 <chSchGoSleepTimeoutS>
 800338e:	2800      	cmp	r0, #0
 8003390:	db4f      	blt.n	8003432 <rt_test_008_006_execute+0x142>
    m = ctp->epending & events;
 8003392:	6b75      	ldr	r5, [r6, #52]	; 0x34
  m ^= m & (m - (eventmask_t)1);
 8003394:	4268      	negs	r0, r5
 8003396:	4028      	ands	r0, r5
  ctp->epending &= ~m;
 8003398:	ea25 0500 	bic.w	r5, r5, r0
 800339c:	6375      	str	r5, [r6, #52]	; 0x34
 800339e:	2300      	movs	r3, #0
 80033a0:	f383 8811 	msr	BASEPRI, r3
 80033a4:	fab0 f080 	clz	r0, r0
 80033a8:	0940      	lsrs	r0, r0, #5
    test_assert(m == 0, "spurious event");
 80033aa:	492a      	ldr	r1, [pc, #168]	; (8003454 <rt_test_008_006_execute+0x164>)
 80033ac:	f7fd fad0 	bl	8000950 <_test_assert>
 80033b0:	2800      	cmp	r0, #0
 80033b2:	d1ae      	bne.n	8003312 <rt_test_008_006_execute+0x22>
  thread_t *ctp = currp;
 80033b4:	69a6      	ldr	r6, [r4, #24]
 80033b6:	2320      	movs	r3, #32
 80033b8:	f383 8811 	msr	BASEPRI, r3
  m = ctp->epending & events;
 80033bc:	6b75      	ldr	r5, [r6, #52]	; 0x34
  if (m == (eventmask_t)0) {
 80033be:	b94d      	cbnz	r5, 80033d4 <rt_test_008_006_execute+0xe4>
    ctp->u.ewmask = events;
 80033c0:	f04f 33ff 	mov.w	r3, #4294967295	; 0xffffffff
    if (chSchGoSleepTimeoutS(CH_STATE_WTOREVT, timeout) < MSG_OK) {
 80033c4:	2164      	movs	r1, #100	; 0x64
    ctp->u.ewmask = events;
 80033c6:	6273      	str	r3, [r6, #36]	; 0x24
    if (chSchGoSleepTimeoutS(CH_STATE_WTOREVT, timeout) < MSG_OK) {
 80033c8:	200a      	movs	r0, #10
 80033ca:	f7ff fef1 	bl	80031b0 <chSchGoSleepTimeoutS>
 80033ce:	2800      	cmp	r0, #0
 80033d0:	db33      	blt.n	800343a <rt_test_008_006_execute+0x14a>
    m = ctp->epending & events;
 80033d2:	6b75      	ldr	r5, [r6, #52]	; 0x34
  ctp->epending &= ~m;
 80033d4:	2300      	movs	r3, #0
 80033d6:	6373      	str	r3, [r6, #52]	; 0x34
 80033d8:	f383 8811 	msr	BASEPRI, r3
 80033dc:	fab5 f085 	clz	r0, r5
 80033e0:	0940      	lsrs	r0, r0, #5
    test_assert(m == 0, "spurious event");
 80033e2:	491c      	ldr	r1, [pc, #112]	; (8003454 <rt_test_008_006_execute+0x164>)
 80033e4:	f7fd fab4 	bl	8000950 <_test_assert>
 80033e8:	4605      	mov	r5, r0
 80033ea:	2800      	cmp	r0, #0
 80033ec:	d191      	bne.n	8003312 <rt_test_008_006_execute+0x22>
  thread_t *ctp = currp;
 80033ee:	69a4      	ldr	r4, [r4, #24]
 80033f0:	2320      	movs	r3, #32
 80033f2:	f383 8811 	msr	BASEPRI, r3
  if ((ctp->epending & events) != events) {
 80033f6:	6b63      	ldr	r3, [r4, #52]	; 0x34
 80033f8:	3301      	adds	r3, #1
 80033fa:	d008      	beq.n	800340e <rt_test_008_006_execute+0x11e>
    if (TIME_IMMEDIATE == timeout) {
      chSysUnlock();
      return (eventmask_t)0;
    }
    ctp->u.ewmask = events;
 80033fc:	f04f 33ff 	mov.w	r3, #4294967295	; 0xffffffff
    if (chSchGoSleepTimeoutS(CH_STATE_WTANDEVT, timeout) < MSG_OK) {
 8003400:	2164      	movs	r1, #100	; 0x64
    ctp->u.ewmask = events;
 8003402:	6263      	str	r3, [r4, #36]	; 0x24
    if (chSchGoSleepTimeoutS(CH_STATE_WTANDEVT, timeout) < MSG_OK) {
 8003404:	200b      	movs	r0, #11
 8003406:	f7ff fed3 	bl	80031b0 <chSchGoSleepTimeoutS>
 800340a:	2800      	cmp	r0, #0
 800340c:	db19      	blt.n	8003442 <rt_test_008_006_execute+0x152>
      chSysUnlock();
      return (eventmask_t)0;
    }
  }
  ctp->epending &= ~events;
 800340e:	2300      	movs	r3, #0
 8003410:	6363      	str	r3, [r4, #52]	; 0x34
 8003412:	f383 8811 	msr	BASEPRI, r3
    test_assert(m == 0, "spurious event");
 8003416:	4628      	mov	r0, r5
}
 8003418:	e8bd 4070 	ldmia.w	sp!, {r4, r5, r6, lr}
    test_assert(m == 0, "spurious event");
 800341c:	490d      	ldr	r1, [pc, #52]	; (8003454 <rt_test_008_006_execute+0x164>)
 800341e:	f7fd ba97 	b.w	8000950 <_test_assert>
 8003422:	f382 8811 	msr	BASEPRI, r2
 8003426:	2001      	movs	r0, #1
 8003428:	e78e      	b.n	8003348 <rt_test_008_006_execute+0x58>
 800342a:	6358      	str	r0, [r3, #52]	; 0x34
 800342c:	f380 8811 	msr	BASEPRI, r0
 8003430:	e799      	b.n	8003366 <rt_test_008_006_execute+0x76>
 8003432:	f385 8811 	msr	BASEPRI, r5
 8003436:	2001      	movs	r0, #1
 8003438:	e7b7      	b.n	80033aa <rt_test_008_006_execute+0xba>
 800343a:	f385 8811 	msr	BASEPRI, r5
 800343e:	2001      	movs	r0, #1
 8003440:	e7cf      	b.n	80033e2 <rt_test_008_006_execute+0xf2>
 8003442:	f385 8811 	msr	BASEPRI, r5
 8003446:	2501      	movs	r5, #1
 8003448:	e7e5      	b.n	8003416 <rt_test_008_006_execute+0x126>
 800344a:	bf00      	nop
 800344c:	20001c5c 	.word	0x20001c5c
 8003450:	200012d0 	.word	0x200012d0
 8003454:	0800b5d0 	.word	0x0800b5d0
	...

08003460 <chThdEnqueueTimeoutS>:
  if (TIME_IMMEDIATE == timeout) {
 8003460:	b161      	cbz	r1, 800347c <chThdEnqueueTimeoutS+0x1c>
 8003462:	4602      	mov	r2, r0
  queue_insert(currp, tqp);
 8003464:	4b07      	ldr	r3, [pc, #28]	; (8003484 <chThdEnqueueTimeoutS+0x24>)
msg_t chThdEnqueueTimeoutS(threads_queue_t *tqp, sysinterval_t timeout) {
 8003466:	b410      	push	{r4}
  queue_insert(currp, tqp);
 8003468:	699b      	ldr	r3, [r3, #24]
  tp->queue.prev             = tqp->prev;
 800346a:	6844      	ldr	r4, [r0, #4]
  return chSchGoSleepTimeoutS(CH_STATE_QUEUED, timeout);
 800346c:	2004      	movs	r0, #4
 800346e:	e9c3 2400 	strd	r2, r4, [r3]
  tp->queue.prev->queue.next = tp;
 8003472:	6023      	str	r3, [r4, #0]
  tqp->prev                  = tp;
 8003474:	6053      	str	r3, [r2, #4]
}
 8003476:	bc10      	pop	{r4}
  return chSchGoSleepTimeoutS(CH_STATE_QUEUED, timeout);
 8003478:	f7ff be9a 	b.w	80031b0 <chSchGoSleepTimeoutS>
}
 800347c:	f04f 30ff 	mov.w	r0, #4294967295	; 0xffffffff
 8003480:	4770      	bx	lr
 8003482:	bf00      	nop
 8003484:	200012d0 	.word	0x200012d0
	...

08003490 <oqWriteTimeout>:
 * @return              The number of bytes effectively transferred.
 *
 * @api
 */
size_t oqWriteTimeout(output_queue_t *oqp, const uint8_t *bp,
                      size_t n, sysinterval_t timeout) {
 8003490:	e92d 4ff0 	stmdb	sp!, {r4, r5, r6, r7, r8, r9, sl, fp, lr}
 8003494:	b083      	sub	sp, #12
 8003496:	4617      	mov	r7, r2
 8003498:	9301      	str	r3, [sp, #4]
  qnotify_t nfy = oqp->q_notify;
 800349a:	f8d0 a01c 	ldr.w	sl, [r0, #28]
 800349e:	f04f 0b20 	mov.w	fp, #32
 80034a2:	f38b 8811 	msr	BASEPRI, fp

  osalDbgCheck(n > 0U);

  osalSysLock();

  while (wr < n) {
 80034a6:	2a00      	cmp	r2, #0
 80034a8:	d04f      	beq.n	800354a <oqWriteTimeout+0xba>
 80034aa:	4604      	mov	r4, r0
 80034ac:	460e      	mov	r6, r1
  size_t wr = 0;
 80034ae:	f04f 0800 	mov.w	r8, #0
 80034b2:	e00d      	b.n	80034d0 <oqWriteTimeout+0x40>
      }
    }
    else {
      /* Inform the low side that the queue has at least one character
         available.*/
      if (nfy != NULL) {
 80034b4:	f1ba 0f00 	cmp.w	sl, #0
 80034b8:	d001      	beq.n	80034be <oqWriteTimeout+0x2e>
        nfy(oqp);
 80034ba:	4620      	mov	r0, r4
 80034bc:	47d0      	blx	sl
 80034be:	2300      	movs	r3, #0
 80034c0:	f383 8811 	msr	BASEPRI, r3
      }

      /* Giving a preemption chance in a controlled point.*/
      osalSysUnlock();

      wr += done;
 80034c4:	44a8      	add	r8, r5
      bp += done;
 80034c6:	442e      	add	r6, r5
 80034c8:	f38b 8811 	msr	BASEPRI, fp
  while (wr < n) {
 80034cc:	4547      	cmp	r7, r8
 80034ce:	d91c      	bls.n	800350a <oqWriteTimeout+0x7a>
  if (n > oqGetEmptyI(oqp)) {
 80034d0:	68a3      	ldr	r3, [r4, #8]
 80034d2:	429f      	cmp	r7, r3
 80034d4:	bf98      	it	ls
 80034d6:	463d      	movls	r5, r7
  s1 = (size_t)(oqp->q_top - oqp->q_wrptr);
 80034d8:	e9d4 3004 	ldrd	r3, r0, [r4, #16]
    n = oqGetEmptyI(oqp);
 80034dc:	bf88      	it	hi
 80034de:	68a5      	ldrhi	r5, [r4, #8]
  s1 = (size_t)(oqp->q_top - oqp->q_wrptr);
 80034e0:	1a1b      	subs	r3, r3, r0
  if (n < s1) {
 80034e2:	42ab      	cmp	r3, r5
 80034e4:	d829      	bhi.n	800353a <oqWriteTimeout+0xaa>
  else if (n > s1) {
 80034e6:	d317      	bcc.n	8003518 <oqWriteTimeout+0x88>
    memcpy((void *)oqp->q_wrptr, (const void *)bp, n);
 80034e8:	462a      	mov	r2, r5
 80034ea:	4631      	mov	r1, r6
 80034ec:	f7fc febc 	bl	8000268 <memcpy>
    oqp->q_wrptr = oqp->q_buffer;
 80034f0:	68e3      	ldr	r3, [r4, #12]
 80034f2:	6163      	str	r3, [r4, #20]
  oqp->q_counter -= n;
 80034f4:	68a3      	ldr	r3, [r4, #8]
 80034f6:	1b5b      	subs	r3, r3, r5
 80034f8:	60a3      	str	r3, [r4, #8]
    if (done == (size_t)0) {
 80034fa:	2d00      	cmp	r5, #0
 80034fc:	d1da      	bne.n	80034b4 <oqWriteTimeout+0x24>
  return chThdEnqueueTimeoutS(tqp, timeout);
 80034fe:	9901      	ldr	r1, [sp, #4]
 8003500:	4620      	mov	r0, r4
 8003502:	f7ff ffad 	bl	8003460 <chThdEnqueueTimeoutS>
      if (msg != MSG_OK) {
 8003506:	2800      	cmp	r0, #0
 8003508:	d0e0      	beq.n	80034cc <oqWriteTimeout+0x3c>
 800350a:	2300      	movs	r3, #0
 800350c:	f383 8811 	msr	BASEPRI, r3
    }
  }

  osalSysUnlock();
  return wr;
}
 8003510:	4640      	mov	r0, r8
 8003512:	b003      	add	sp, #12
 8003514:	e8bd 8ff0 	ldmia.w	sp!, {r4, r5, r6, r7, r8, r9, sl, fp, pc}
    memcpy((void *)oqp->q_wrptr, (const void *)bp, s1);
 8003518:	461a      	mov	r2, r3
 800351a:	4631      	mov	r1, r6
    s2 = n - s1;
 800351c:	eba5 0903 	sub.w	r9, r5, r3
 8003520:	9300      	str	r3, [sp, #0]
    memcpy((void *)oqp->q_wrptr, (const void *)bp, s1);
 8003522:	f7fc fea1 	bl	8000268 <memcpy>
    memcpy((void *)oqp->q_buffer, (const void *)bp, s2);
 8003526:	9b00      	ldr	r3, [sp, #0]
 8003528:	464a      	mov	r2, r9
 800352a:	18f1      	adds	r1, r6, r3
 800352c:	68e0      	ldr	r0, [r4, #12]
 800352e:	f7fc fe9b 	bl	8000268 <memcpy>
    oqp->q_wrptr = oqp->q_buffer + s2;
 8003532:	68e3      	ldr	r3, [r4, #12]
 8003534:	444b      	add	r3, r9
 8003536:	6163      	str	r3, [r4, #20]
 8003538:	e7dc      	b.n	80034f4 <oqWriteTimeout+0x64>
    memcpy((void *)oqp->q_wrptr, (const void *)bp, n);
 800353a:	462a      	mov	r2, r5
 800353c:	4631      	mov	r1, r6
 800353e:	f7fc fe93 	bl	8000268 <memcpy>
    oqp->q_wrptr += n;
 8003542:	6963      	ldr	r3, [r4, #20]
 8003544:	442b      	add	r3, r5
 8003546:	6163      	str	r3, [r4, #20]
 8003548:	e7d4      	b.n	80034f4 <oqWriteTimeout+0x64>
  size_t wr = 0;
 800354a:	4690      	mov	r8, r2
 800354c:	e7dd      	b.n	800350a <oqWriteTimeout+0x7a>
 800354e:	bf00      	nop

08003550 <_writet.lto_priv.120>:
  return oqWriteTimeout(&((SerialDriver *)ip)->oqueue, bp, n, timeout);
 8003550:	3030      	adds	r0, #48	; 0x30
 8003552:	f7ff bf9d 	b.w	8003490 <oqWriteTimeout>
 8003556:	bf00      	nop
	...

08003560 <_write.lto_priv.132>:
  return oqWriteTimeout(&((SerialDriver *)ip)->oqueue, bp,
 8003560:	3030      	adds	r0, #48	; 0x30
 8003562:	f04f 33ff 	mov.w	r3, #4294967295	; 0xffffffff
 8003566:	f7ff bf93 	b.w	8003490 <oqWriteTimeout>
 800356a:	bf00      	nop
 800356c:	0000      	movs	r0, r0
	...

08003570 <oqPutTimeout>:
msg_t oqPutTimeout(output_queue_t *oqp, uint8_t b, sysinterval_t timeout) {
 8003570:	b5f8      	push	{r3, r4, r5, r6, r7, lr}
 8003572:	4604      	mov	r4, r0
 8003574:	460f      	mov	r7, r1
 8003576:	4616      	mov	r6, r2
 8003578:	2320      	movs	r3, #32
 800357a:	f383 8811 	msr	BASEPRI, r3
 800357e:	e005      	b.n	800358c <oqPutTimeout+0x1c>
 8003580:	4631      	mov	r1, r6
 8003582:	4620      	mov	r0, r4
 8003584:	f7ff ff6c 	bl	8003460 <chThdEnqueueTimeoutS>
    if (msg < MSG_OK) {
 8003588:	2800      	cmp	r0, #0
 800358a:	db17      	blt.n	80035bc <oqPutTimeout+0x4c>
  while (oqIsFullI(oqp)) {
 800358c:	68a5      	ldr	r5, [r4, #8]
 800358e:	2d00      	cmp	r5, #0
 8003590:	d0f6      	beq.n	8003580 <oqPutTimeout+0x10>
  *oqp->q_wrptr++ = b;
 8003592:	6962      	ldr	r2, [r4, #20]
  oqp->q_counter--;
 8003594:	68a3      	ldr	r3, [r4, #8]
  *oqp->q_wrptr++ = b;
 8003596:	1c51      	adds	r1, r2, #1
  oqp->q_counter--;
 8003598:	3b01      	subs	r3, #1
  *oqp->q_wrptr++ = b;
 800359a:	6161      	str	r1, [r4, #20]
  oqp->q_counter--;
 800359c:	60a3      	str	r3, [r4, #8]
  *oqp->q_wrptr++ = b;
 800359e:	7017      	strb	r7, [r2, #0]
  if (oqp->q_wrptr >= oqp->q_top) {
 80035a0:	e9d4 3204 	ldrd	r3, r2, [r4, #16]
 80035a4:	429a      	cmp	r2, r3
    oqp->q_wrptr = oqp->q_buffer;
 80035a6:	bf24      	itt	cs
 80035a8:	68e3      	ldrcs	r3, [r4, #12]
 80035aa:	6163      	strcs	r3, [r4, #20]
  if (oqp->q_notify != NULL) {
 80035ac:	69e3      	ldr	r3, [r4, #28]
 80035ae:	b10b      	cbz	r3, 80035b4 <oqPutTimeout+0x44>
    oqp->q_notify(oqp);
 80035b0:	4620      	mov	r0, r4
 80035b2:	4798      	blx	r3
 80035b4:	2000      	movs	r0, #0
 80035b6:	f380 8811 	msr	BASEPRI, r0
}
 80035ba:	bdf8      	pop	{r3, r4, r5, r6, r7, pc}
 80035bc:	f385 8811 	msr	BASEPRI, r5
 80035c0:	bdf8      	pop	{r3, r4, r5, r6, r7, pc}
 80035c2:	bf00      	nop
	...

080035d0 <_putt.lto_priv.124>:
  return oqPutTimeout(&((SerialDriver *)ip)->oqueue, b, timeout);
 80035d0:	3030      	adds	r0, #48	; 0x30
 80035d2:	f7ff bfcd 	b.w	8003570 <oqPutTimeout>
 80035d6:	bf00      	nop
	...

080035e0 <_put.lto_priv.128>:
  return oqPutTimeout(&((SerialDriver *)ip)->oqueue, b, TIME_INFINITE);
 80035e0:	3030      	adds	r0, #48	; 0x30
 80035e2:	f04f 32ff 	mov.w	r2, #4294967295	; 0xffffffff
 80035e6:	f7ff bfc3 	b.w	8003570 <oqPutTimeout>
 80035ea:	bf00      	nop
 80035ec:	0000      	movs	r0, r0
	...

080035f0 <iqReadTimeout>:
                     size_t n, sysinterval_t timeout) {
 80035f0:	e92d 4ff0 	stmdb	sp!, {r4, r5, r6, r7, r8, r9, sl, fp, lr}
 80035f4:	b083      	sub	sp, #12
 80035f6:	4617      	mov	r7, r2
 80035f8:	9301      	str	r3, [sp, #4]
  qnotify_t nfy = iqp->q_notify;
 80035fa:	f8d0 a01c 	ldr.w	sl, [r0, #28]
 80035fe:	f04f 0b20 	mov.w	fp, #32
 8003602:	f38b 8811 	msr	BASEPRI, fp
  while (rd < n) {
 8003606:	2a00      	cmp	r2, #0
 8003608:	d04f      	beq.n	80036aa <iqReadTimeout+0xba>
 800360a:	4604      	mov	r4, r0
 800360c:	460e      	mov	r6, r1
  size_t rd = 0;
 800360e:	f04f 0800 	mov.w	r8, #0
 8003612:	e00d      	b.n	8003630 <iqReadTimeout+0x40>
      if (nfy != NULL) {
 8003614:	f1ba 0f00 	cmp.w	sl, #0
 8003618:	d001      	beq.n	800361e <iqReadTimeout+0x2e>
        nfy(iqp);
 800361a:	4620      	mov	r0, r4
 800361c:	47d0      	blx	sl
 800361e:	2300      	movs	r3, #0
 8003620:	f383 8811 	msr	BASEPRI, r3
      rd += done;
 8003624:	44a8      	add	r8, r5
      bp += done;
 8003626:	442e      	add	r6, r5
 8003628:	f38b 8811 	msr	BASEPRI, fp
  while (rd < n) {
 800362c:	4547      	cmp	r7, r8
 800362e:	d91c      	bls.n	800366a <iqReadTimeout+0x7a>
  if (n > iqGetFullI(iqp)) {
 8003630:	68a3      	ldr	r3, [r4, #8]
  s1 = (size_t)(iqp->q_top - iqp->q_rdptr);
 8003632:	69a1      	ldr	r1, [r4, #24]
  if (n > iqGetFullI(iqp)) {
 8003634:	429f      	cmp	r7, r3
 8003636:	bf98      	it	ls
 8003638:	463d      	movls	r5, r7
  s1 = (size_t)(iqp->q_top - iqp->q_rdptr);
 800363a:	6923      	ldr	r3, [r4, #16]
    n = iqGetFullI(iqp);
 800363c:	bf88      	it	hi
 800363e:	68a5      	ldrhi	r5, [r4, #8]
  s1 = (size_t)(iqp->q_top - iqp->q_rdptr);
 8003640:	1a5b      	subs	r3, r3, r1
  if (n < s1) {
 8003642:	42ab      	cmp	r3, r5
 8003644:	d829      	bhi.n	800369a <iqReadTimeout+0xaa>
  else if (n > s1) {
 8003646:	d317      	bcc.n	8003678 <iqReadTimeout+0x88>
    memcpy((void *)bp, (void *)iqp->q_rdptr, n);
 8003648:	462a      	mov	r2, r5
 800364a:	4630      	mov	r0, r6
 800364c:	f7fc fe0c 	bl	8000268 <memcpy>
    iqp->q_rdptr = iqp->q_buffer;
 8003650:	68e3      	ldr	r3, [r4, #12]
 8003652:	61a3      	str	r3, [r4, #24]
  iqp->q_counter -= n;
 8003654:	68a3      	ldr	r3, [r4, #8]
 8003656:	1b5b      	subs	r3, r3, r5
 8003658:	60a3      	str	r3, [r4, #8]
    if (done == (size_t)0) {
 800365a:	2d00      	cmp	r5, #0
 800365c:	d1da      	bne.n	8003614 <iqReadTimeout+0x24>
 800365e:	9901      	ldr	r1, [sp, #4]
 8003660:	4620      	mov	r0, r4
 8003662:	f7ff fefd 	bl	8003460 <chThdEnqueueTimeoutS>
      if (msg != MSG_OK) {
 8003666:	2800      	cmp	r0, #0
 8003668:	d0e0      	beq.n	800362c <iqReadTimeout+0x3c>
 800366a:	2300      	movs	r3, #0
 800366c:	f383 8811 	msr	BASEPRI, r3
}
 8003670:	4640      	mov	r0, r8
 8003672:	b003      	add	sp, #12
 8003674:	e8bd 8ff0 	ldmia.w	sp!, {r4, r5, r6, r7, r8, r9, sl, fp, pc}
    memcpy((void *)bp, (void *)iqp->q_rdptr, s1);
 8003678:	461a      	mov	r2, r3
 800367a:	4630      	mov	r0, r6
    s2 = n - s1;
 800367c:	eba5 0903 	sub.w	r9, r5, r3
 8003680:	9300      	str	r3, [sp, #0]
    memcpy((void *)bp, (void *)iqp->q_rdptr, s1);
 8003682:	f7fc fdf1 	bl	8000268 <memcpy>
    memcpy((void *)bp, (void *)iqp->q_buffer, s2);
 8003686:	9b00      	ldr	r3, [sp, #0]
 8003688:	464a      	mov	r2, r9
 800368a:	18f0      	adds	r0, r6, r3
 800368c:	68e1      	ldr	r1, [r4, #12]
 800368e:	f7fc fdeb 	bl	8000268 <memcpy>
    iqp->q_rdptr = iqp->q_buffer + s2;
 8003692:	68e3      	ldr	r3, [r4, #12]
 8003694:	444b      	add	r3, r9
 8003696:	61a3      	str	r3, [r4, #24]
 8003698:	e7dc      	b.n	8003654 <iqReadTimeout+0x64>
    memcpy((void *)bp, (void *)iqp->q_rdptr, n);
 800369a:	462a      	mov	r2, r5
 800369c:	4630      	mov	r0, r6
 800369e:	f7fc fde3 	bl	8000268 <memcpy>
    iqp->q_rdptr += n;
 80036a2:	69a3      	ldr	r3, [r4, #24]
 80036a4:	442b      	add	r3, r5
 80036a6:	61a3      	str	r3, [r4, #24]
 80036a8:	e7d4      	b.n	8003654 <iqReadTimeout+0x64>
  size_t rd = 0;
 80036aa:	4690      	mov	r8, r2
 80036ac:	e7dd      	b.n	800366a <iqReadTimeout+0x7a>
 80036ae:	bf00      	nop

080036b0 <_readt.lto_priv.118>:
  return iqReadTimeout(&((SerialDriver *)ip)->iqueue, bp, n, timeout);
 80036b0:	300c      	adds	r0, #12
 80036b2:	f7ff bf9d 	b.w	80035f0 <iqReadTimeout>
 80036b6:	bf00      	nop
	...

080036c0 <_read.lto_priv.130>:
  return iqReadTimeout(&((SerialDriver *)ip)->iqueue, bp,
 80036c0:	300c      	adds	r0, #12
 80036c2:	f04f 33ff 	mov.w	r3, #4294967295	; 0xffffffff
 80036c6:	f7ff bf93 	b.w	80035f0 <iqReadTimeout>
 80036ca:	bf00      	nop
 80036cc:	0000      	movs	r0, r0
	...

080036d0 <iqGetTimeout>:
msg_t iqGetTimeout(input_queue_t *iqp, sysinterval_t timeout) {
 80036d0:	b570      	push	{r4, r5, r6, lr}
 80036d2:	2320      	movs	r3, #32
 80036d4:	4604      	mov	r4, r0
 80036d6:	460e      	mov	r6, r1
 80036d8:	f383 8811 	msr	BASEPRI, r3
 80036dc:	e005      	b.n	80036ea <iqGetTimeout+0x1a>
 80036de:	4631      	mov	r1, r6
 80036e0:	4620      	mov	r0, r4
 80036e2:	f7ff febd 	bl	8003460 <chThdEnqueueTimeoutS>
    if (msg < MSG_OK) {
 80036e6:	2800      	cmp	r0, #0
 80036e8:	db18      	blt.n	800371c <iqGetTimeout+0x4c>
  while (iqIsEmptyI(iqp)) {
 80036ea:	68a5      	ldr	r5, [r4, #8]
 80036ec:	2d00      	cmp	r5, #0
 80036ee:	d0f6      	beq.n	80036de <iqGetTimeout+0xe>
  b = *iqp->q_rdptr++;
 80036f0:	69a1      	ldr	r1, [r4, #24]
  iqp->q_counter--;
 80036f2:	68a3      	ldr	r3, [r4, #8]
  if (iqp->q_rdptr >= iqp->q_top) {
 80036f4:	6920      	ldr	r0, [r4, #16]
  b = *iqp->q_rdptr++;
 80036f6:	1c4a      	adds	r2, r1, #1
  iqp->q_counter--;
 80036f8:	3b01      	subs	r3, #1
  if (iqp->q_rdptr >= iqp->q_top) {
 80036fa:	4282      	cmp	r2, r0
  iqp->q_counter--;
 80036fc:	60a3      	str	r3, [r4, #8]
    iqp->q_rdptr = iqp->q_buffer;
 80036fe:	bf28      	it	cs
 8003700:	68e3      	ldrcs	r3, [r4, #12]
  b = *iqp->q_rdptr++;
 8003702:	61a2      	str	r2, [r4, #24]
 8003704:	780d      	ldrb	r5, [r1, #0]
    iqp->q_rdptr = iqp->q_buffer;
 8003706:	bf28      	it	cs
 8003708:	61a3      	strcs	r3, [r4, #24]
  if (iqp->q_notify != NULL) {
 800370a:	69e3      	ldr	r3, [r4, #28]
 800370c:	b10b      	cbz	r3, 8003712 <iqGetTimeout+0x42>
    iqp->q_notify(iqp);
 800370e:	4620      	mov	r0, r4
 8003710:	4798      	blx	r3
 8003712:	2300      	movs	r3, #0
 8003714:	f383 8811 	msr	BASEPRI, r3
  return (msg_t)b;
 8003718:	4628      	mov	r0, r5
}
 800371a:	bd70      	pop	{r4, r5, r6, pc}
 800371c:	f385 8811 	msr	BASEPRI, r5
 8003720:	bd70      	pop	{r4, r5, r6, pc}
 8003722:	bf00      	nop
	...

08003730 <_gett.lto_priv.122>:
  return iqGetTimeout(&((SerialDriver *)ip)->iqueue, timeout);
 8003730:	300c      	adds	r0, #12
 8003732:	f7ff bfcd 	b.w	80036d0 <iqGetTimeout>
 8003736:	bf00      	nop
	...

08003740 <_get.lto_priv.126>:
  return iqGetTimeout(&((SerialDriver *)ip)->iqueue, TIME_INFINITE);
 8003740:	300c      	adds	r0, #12
 8003742:	f04f 31ff 	mov.w	r1, #4294967295	; 0xffffffff
 8003746:	f7ff bfc3 	b.w	80036d0 <iqGetTimeout>
 800374a:	bf00      	nop
 800374c:	0000      	movs	r0, r0
	...

08003750 <obqGetEmptyBufferTimeoutS>:
                                sysinterval_t timeout) {
 8003750:	b538      	push	{r3, r4, r5, lr}
 8003752:	4604      	mov	r4, r0
 8003754:	460d      	mov	r5, r1
 8003756:	e007      	b.n	8003768 <obqGetEmptyBufferTimeoutS+0x18>
    if (obqp->suspended) {
 8003758:	7a23      	ldrb	r3, [r4, #8]
 800375a:	b983      	cbnz	r3, 800377e <obqGetEmptyBufferTimeoutS+0x2e>
 800375c:	4629      	mov	r1, r5
 800375e:	4620      	mov	r0, r4
 8003760:	f7ff fe7e 	bl	8003460 <chThdEnqueueTimeoutS>
    if (msg < MSG_OK) {
 8003764:	2800      	cmp	r0, #0
 8003766:	db09      	blt.n	800377c <obqGetEmptyBufferTimeoutS+0x2c>
  while (obqIsFullI(obqp)) {
 8003768:	68e3      	ldr	r3, [r4, #12]
 800376a:	2b00      	cmp	r3, #0
 800376c:	d0f4      	beq.n	8003758 <obqGetEmptyBufferTimeoutS+0x8>
  obqp->top = obqp->bwrptr + obqp->bsize;
 800376e:	2000      	movs	r0, #0
  obqp->ptr = obqp->bwrptr + sizeof (size_t);
 8003770:	6923      	ldr	r3, [r4, #16]
  obqp->top = obqp->bwrptr + obqp->bsize;
 8003772:	69e1      	ldr	r1, [r4, #28]
  obqp->ptr = obqp->bwrptr + sizeof (size_t);
 8003774:	1d1a      	adds	r2, r3, #4
  obqp->top = obqp->bwrptr + obqp->bsize;
 8003776:	440b      	add	r3, r1
 8003778:	e9c4 230a 	strd	r2, r3, [r4, #40]	; 0x28
}
 800377c:	bd38      	pop	{r3, r4, r5, pc}
      return MSG_RESET;
 800377e:	f06f 0001 	mvn.w	r0, #1
}
 8003782:	bd38      	pop	{r3, r4, r5, pc}
	...

08003790 <obqWriteTimeout>:
                       size_t n, sysinterval_t timeout) {
 8003790:	e92d 4ff0 	stmdb	sp!, {r4, r5, r6, r7, r8, r9, sl, fp, lr}
 8003794:	4699      	mov	r9, r3
 8003796:	b083      	sub	sp, #12
 8003798:	4605      	mov	r5, r0
 800379a:	460e      	mov	r6, r1
 800379c:	4617      	mov	r7, r2
 800379e:	2320      	movs	r3, #32
 80037a0:	f383 8811 	msr	BASEPRI, r3
 80037a4:	f04f 4280 	mov.w	r2, #1073741824	; 0x40000000
  size_t w = 0;
 80037a8:	f04f 0b00 	mov.w	fp, #0
 80037ac:	6a52      	ldr	r2, [r2, #36]	; 0x24
    if (obqp->ptr == NULL) {
 80037ae:	6aa8      	ldr	r0, [r5, #40]	; 0x28
 80037b0:	444a      	add	r2, r9
 80037b2:	b293      	uxth	r3, r2
  obqp->ptr = NULL;
 80037b4:	46d8      	mov	r8, fp
      if ((timeout == TIME_INFINITE) || (timeout == TIME_IMMEDIATE)) {
 80037b6:	f109 3aff 	add.w	sl, r9, #4294967295	; 0xffffffff
 80037ba:	9301      	str	r3, [sp, #4]
    if (obqp->ptr == NULL) {
 80037bc:	2800      	cmp	r0, #0
 80037be:	d041      	beq.n	8003844 <obqWriteTimeout+0xb4>
    size = (size_t)obqp->top - (size_t)obqp->ptr;
 80037c0:	6aea      	ldr	r2, [r5, #44]	; 0x2c
    if (size > (n - w)) {
 80037c2:	eba7 040b 	sub.w	r4, r7, fp
    size = (size_t)obqp->top - (size_t)obqp->ptr;
 80037c6:	1a12      	subs	r2, r2, r0
 80037c8:	4294      	cmp	r4, r2
 80037ca:	bf28      	it	cs
 80037cc:	4614      	movcs	r4, r2
    if (size > 64U) {
 80037ce:	2c40      	cmp	r4, #64	; 0x40
 80037d0:	d949      	bls.n	8003866 <obqWriteTimeout+0xd6>
      memcpy(obqp->ptr, bp, 64U);
 80037d2:	f106 0240 	add.w	r2, r6, #64	; 0x40
 80037d6:	f8d6 c000 	ldr.w	ip, [r6]
 80037da:	6874      	ldr	r4, [r6, #4]
 80037dc:	68b1      	ldr	r1, [r6, #8]
 80037de:	68f3      	ldr	r3, [r6, #12]
 80037e0:	3610      	adds	r6, #16
 80037e2:	4296      	cmp	r6, r2
 80037e4:	f8c0 c000 	str.w	ip, [r0]
 80037e8:	6044      	str	r4, [r0, #4]
 80037ea:	6081      	str	r1, [r0, #8]
 80037ec:	60c3      	str	r3, [r0, #12]
 80037ee:	f100 0010 	add.w	r0, r0, #16
 80037f2:	d1f0      	bne.n	80037d6 <obqWriteTimeout+0x46>
      obqp->ptr += 64U;
 80037f4:	6aaa      	ldr	r2, [r5, #40]	; 0x28
      w         += 64U;
 80037f6:	f10b 0b40 	add.w	fp, fp, #64	; 0x40
      obqp->ptr += 64U;
 80037fa:	3240      	adds	r2, #64	; 0x40
 80037fc:	62aa      	str	r2, [r5, #40]	; 0x28
    if (obqp->ptr >= obqp->top) {
 80037fe:	6ae9      	ldr	r1, [r5, #44]	; 0x2c
 8003800:	4291      	cmp	r1, r2
 8003802:	d815      	bhi.n	8003830 <obqWriteTimeout+0xa0>
      obqPostFullBufferS(obqp, obqp->bsize - sizeof (size_t));
 8003804:	69e9      	ldr	r1, [r5, #28]
  *((size_t *)obqp->bwrptr) = size;
 8003806:	692a      	ldr	r2, [r5, #16]
      obqPostFullBufferS(obqp, obqp->bsize - sizeof (size_t));
 8003808:	3904      	subs	r1, #4
  *((size_t *)obqp->bwrptr) = size;
 800380a:	6011      	str	r1, [r2, #0]
  obqp->bwrptr += obqp->bsize;
 800380c:	69ec      	ldr	r4, [r5, #28]
  if (obqp->bwrptr >= obqp->btop) {
 800380e:	69a9      	ldr	r1, [r5, #24]
  obqp->bwrptr += obqp->bsize;
 8003810:	4422      	add	r2, r4
  if (obqp->bwrptr >= obqp->btop) {
 8003812:	428a      	cmp	r2, r1
  obqp->bwrptr += obqp->bsize;
 8003814:	612a      	str	r2, [r5, #16]
    obqp->bwrptr = obqp->buffers;
 8003816:	bf28      	it	cs
 8003818:	6a6a      	ldrcs	r2, [r5, #36]	; 0x24
  obqp->bcounter--;
 800381a:	68e8      	ldr	r0, [r5, #12]
    obqp->bwrptr = obqp->buffers;
 800381c:	bf28      	it	cs
 800381e:	612a      	strcs	r2, [r5, #16]
  if (obqp->notify != NULL) {
 8003820:	6b2a      	ldr	r2, [r5, #48]	; 0x30
  obqp->bcounter--;
 8003822:	3801      	subs	r0, #1
 8003824:	60e8      	str	r0, [r5, #12]
  obqp->ptr = NULL;
 8003826:	f8c5 8028 	str.w	r8, [r5, #40]	; 0x28
  if (obqp->notify != NULL) {
 800382a:	b10a      	cbz	r2, 8003830 <obqWriteTimeout+0xa0>
    obqp->notify(obqp);
 800382c:	4628      	mov	r0, r5
 800382e:	4790      	blx	r2
 8003830:	f388 8811 	msr	BASEPRI, r8
    if (w >= n) {
 8003834:	45bb      	cmp	fp, r7
 8003836:	d229      	bcs.n	800388c <obqWriteTimeout+0xfc>
 8003838:	2220      	movs	r2, #32
 800383a:	f382 8811 	msr	BASEPRI, r2
    if (obqp->ptr == NULL) {
 800383e:	6aa8      	ldr	r0, [r5, #40]	; 0x28
 8003840:	2800      	cmp	r0, #0
 8003842:	d1bd      	bne.n	80037c0 <obqWriteTimeout+0x30>
      if ((timeout == TIME_INFINITE) || (timeout == TIME_IMMEDIATE)) {
 8003844:	f11a 0f03 	cmn.w	sl, #3
 8003848:	d817      	bhi.n	800387a <obqWriteTimeout+0xea>
 800384a:	f04f 4380 	mov.w	r3, #1073741824	; 0x40000000
 800384e:	6a59      	ldr	r1, [r3, #36]	; 0x24
  return (sysinterval_t)((systime_t)(end - start));
 8003850:	9b01      	ldr	r3, [sp, #4]
 8003852:	1a59      	subs	r1, r3, r1
 8003854:	b289      	uxth	r1, r1
        if (next_timeout > timeout) {
 8003856:	4589      	cmp	r9, r1
 8003858:	d31c      	bcc.n	8003894 <obqWriteTimeout+0x104>
        msg = obqGetEmptyBufferTimeoutS(obqp, next_timeout);
 800385a:	4628      	mov	r0, r5
 800385c:	f7ff ff78 	bl	8003750 <obqGetEmptyBufferTimeoutS>
      if (msg != MSG_OK) {
 8003860:	b988      	cbnz	r0, 8003886 <obqWriteTimeout+0xf6>
 8003862:	6aa8      	ldr	r0, [r5, #40]	; 0x28
 8003864:	e7ac      	b.n	80037c0 <obqWriteTimeout+0x30>
      memcpy(obqp->ptr, bp, size);
 8003866:	4622      	mov	r2, r4
 8003868:	4631      	mov	r1, r6
 800386a:	f7fc fcfd 	bl	8000268 <memcpy>
      obqp->ptr += size;
 800386e:	6aaa      	ldr	r2, [r5, #40]	; 0x28
      w         += size;
 8003870:	44a3      	add	fp, r4
      obqp->ptr += size;
 8003872:	4422      	add	r2, r4
      bp        += size;
 8003874:	4426      	add	r6, r4
      obqp->ptr += size;
 8003876:	62aa      	str	r2, [r5, #40]	; 0x28
 8003878:	e7c1      	b.n	80037fe <obqWriteTimeout+0x6e>
        msg = obqGetEmptyBufferTimeoutS(obqp, timeout);
 800387a:	4649      	mov	r1, r9
 800387c:	4628      	mov	r0, r5
 800387e:	f7ff ff67 	bl	8003750 <obqGetEmptyBufferTimeoutS>
      if (msg != MSG_OK) {
 8003882:	2800      	cmp	r0, #0
 8003884:	d0ed      	beq.n	8003862 <obqWriteTimeout+0xd2>
 8003886:	2200      	movs	r2, #0
 8003888:	f382 8811 	msr	BASEPRI, r2
}
 800388c:	4658      	mov	r0, fp
 800388e:	b003      	add	sp, #12
 8003890:	e8bd 8ff0 	ldmia.w	sp!, {r4, r5, r6, r7, r8, r9, sl, fp, pc}
 8003894:	f380 8811 	msr	BASEPRI, r0
 8003898:	4658      	mov	r0, fp
 800389a:	b003      	add	sp, #12
 800389c:	e8bd 8ff0 	ldmia.w	sp!, {r4, r5, r6, r7, r8, r9, sl, fp, pc}

080038a0 <_writet.lto_priv.121>:
  return obqWriteTimeout(&((SerialUSBDriver *)ip)->obqueue, bp, n, timeout);
 80038a0:	3044      	adds	r0, #68	; 0x44
 80038a2:	f7ff bf75 	b.w	8003790 <obqWriteTimeout>
 80038a6:	bf00      	nop
	...

080038b0 <_write.lto_priv.133>:
  return obqWriteTimeout(&((SerialUSBDriver *)ip)->obqueue, bp,
 80038b0:	3044      	adds	r0, #68	; 0x44
 80038b2:	f04f 33ff 	mov.w	r3, #4294967295	; 0xffffffff
 80038b6:	f7ff bf6b 	b.w	8003790 <obqWriteTimeout>
 80038ba:	bf00      	nop
 80038bc:	0000      	movs	r0, r0
	...

080038c0 <obqPutTimeout>:
                    sysinterval_t timeout) {
 80038c0:	b570      	push	{r4, r5, r6, lr}
 80038c2:	2320      	movs	r3, #32
 80038c4:	460e      	mov	r6, r1
 80038c6:	4604      	mov	r4, r0
 80038c8:	f383 8811 	msr	BASEPRI, r3
  if (obqp->ptr == NULL) {
 80038cc:	6a85      	ldr	r5, [r0, #40]	; 0x28
 80038ce:	b305      	cbz	r5, 8003912 <obqPutTimeout+0x52>
  *obqp->ptr = b;
 80038d0:	702e      	strb	r6, [r5, #0]
  if (obqp->ptr >= obqp->top) {
 80038d2:	e9d4 320a 	ldrd	r3, r2, [r4, #40]	; 0x28
  obqp->ptr++;
 80038d6:	3301      	adds	r3, #1
  if (obqp->ptr >= obqp->top) {
 80038d8:	4293      	cmp	r3, r2
  obqp->ptr++;
 80038da:	62a3      	str	r3, [r4, #40]	; 0x28
  if (obqp->ptr >= obqp->top) {
 80038dc:	d315      	bcc.n	800390a <obqPutTimeout+0x4a>
    obqPostFullBufferS(obqp, obqp->bsize - sizeof (size_t));
 80038de:	69e2      	ldr	r2, [r4, #28]
  *((size_t *)obqp->bwrptr) = size;
 80038e0:	6923      	ldr	r3, [r4, #16]
    obqPostFullBufferS(obqp, obqp->bsize - sizeof (size_t));
 80038e2:	3a04      	subs	r2, #4
  *((size_t *)obqp->bwrptr) = size;
 80038e4:	601a      	str	r2, [r3, #0]
  obqp->bcounter--;
 80038e6:	68e2      	ldr	r2, [r4, #12]
  obqp->bwrptr += obqp->bsize;
 80038e8:	69e0      	ldr	r0, [r4, #28]
  obqp->bcounter--;
 80038ea:	3a01      	subs	r2, #1
 80038ec:	60e2      	str	r2, [r4, #12]
  obqp->ptr = NULL;
 80038ee:	2200      	movs	r2, #0
  if (obqp->bwrptr >= obqp->btop) {
 80038f0:	69a1      	ldr	r1, [r4, #24]
  obqp->bwrptr += obqp->bsize;
 80038f2:	4403      	add	r3, r0
  if (obqp->bwrptr >= obqp->btop) {
 80038f4:	428b      	cmp	r3, r1
  obqp->bwrptr += obqp->bsize;
 80038f6:	6123      	str	r3, [r4, #16]
    obqp->bwrptr = obqp->buffers;
 80038f8:	bf28      	it	cs
 80038fa:	6a63      	ldrcs	r3, [r4, #36]	; 0x24
  obqp->ptr = NULL;
 80038fc:	62a2      	str	r2, [r4, #40]	; 0x28
    obqp->bwrptr = obqp->buffers;
 80038fe:	bf28      	it	cs
 8003900:	6123      	strcs	r3, [r4, #16]
  if (obqp->notify != NULL) {
 8003902:	6b23      	ldr	r3, [r4, #48]	; 0x30
 8003904:	b10b      	cbz	r3, 800390a <obqPutTimeout+0x4a>
    obqp->notify(obqp);
 8003906:	4620      	mov	r0, r4
 8003908:	4798      	blx	r3
 800390a:	2000      	movs	r0, #0
 800390c:	f380 8811 	msr	BASEPRI, r0
}
 8003910:	bd70      	pop	{r4, r5, r6, pc}
    msg = obqGetEmptyBufferTimeoutS(obqp, timeout);
 8003912:	4611      	mov	r1, r2
 8003914:	f7ff ff1c 	bl	8003750 <obqGetEmptyBufferTimeoutS>
    if (msg != MSG_OK) {
 8003918:	b908      	cbnz	r0, 800391e <obqPutTimeout+0x5e>
 800391a:	6aa5      	ldr	r5, [r4, #40]	; 0x28
 800391c:	e7d8      	b.n	80038d0 <obqPutTimeout+0x10>
 800391e:	f385 8811 	msr	BASEPRI, r5
}
 8003922:	bd70      	pop	{r4, r5, r6, pc}
	...

08003930 <_putt.lto_priv.125>:
  return obqPutTimeout(&((SerialUSBDriver *)ip)->obqueue, b, timeout);
 8003930:	3044      	adds	r0, #68	; 0x44
 8003932:	f7ff bfc5 	b.w	80038c0 <obqPutTimeout>
 8003936:	bf00      	nop
	...

08003940 <_put.lto_priv.129>:
  return obqPutTimeout(&((SerialUSBDriver *)ip)->obqueue, b, TIME_INFINITE);
 8003940:	3044      	adds	r0, #68	; 0x44
 8003942:	f04f 32ff 	mov.w	r2, #4294967295	; 0xffffffff
 8003946:	f7ff bfbb 	b.w	80038c0 <obqPutTimeout>
 800394a:	bf00      	nop
 800394c:	0000      	movs	r0, r0
	...

08003950 <ibqGetFullBufferTimeoutS>:
                                 sysinterval_t timeout) {
 8003950:	b538      	push	{r3, r4, r5, lr}
 8003952:	4604      	mov	r4, r0
 8003954:	460d      	mov	r5, r1
 8003956:	e007      	b.n	8003968 <ibqGetFullBufferTimeoutS+0x18>
    if (ibqp->suspended) {
 8003958:	7a23      	ldrb	r3, [r4, #8]
 800395a:	b983      	cbnz	r3, 800397e <ibqGetFullBufferTimeoutS+0x2e>
 800395c:	4629      	mov	r1, r5
 800395e:	4620      	mov	r0, r4
 8003960:	f7ff fd7e 	bl	8003460 <chThdEnqueueTimeoutS>
    if (msg < MSG_OK) {
 8003964:	2800      	cmp	r0, #0
 8003966:	db09      	blt.n	800397c <ibqGetFullBufferTimeoutS+0x2c>
  while (ibqIsEmptyI(ibqp)) {
 8003968:	68e3      	ldr	r3, [r4, #12]
 800396a:	2b00      	cmp	r3, #0
 800396c:	d0f4      	beq.n	8003958 <ibqGetFullBufferTimeoutS+0x8>
  ibqp->top = ibqp->ptr + *((size_t *)ibqp->brdptr);
 800396e:	2000      	movs	r0, #0
  ibqp->ptr = ibqp->brdptr + sizeof (size_t);
 8003970:	6963      	ldr	r3, [r4, #20]
  ibqp->top = ibqp->ptr + *((size_t *)ibqp->brdptr);
 8003972:	681a      	ldr	r2, [r3, #0]
  ibqp->ptr = ibqp->brdptr + sizeof (size_t);
 8003974:	3304      	adds	r3, #4
  ibqp->top = ibqp->ptr + *((size_t *)ibqp->brdptr);
 8003976:	441a      	add	r2, r3
  ibqp->ptr = ibqp->brdptr + sizeof (size_t);
 8003978:	e9c4 320a 	strd	r3, r2, [r4, #40]	; 0x28
}
 800397c:	bd38      	pop	{r3, r4, r5, pc}
      return MSG_RESET;
 800397e:	f06f 0001 	mvn.w	r0, #1
}
 8003982:	bd38      	pop	{r3, r4, r5, pc}
	...

08003990 <ibqReadTimeout>:
                      size_t n, sysinterval_t timeout) {
 8003990:	e92d 4ff0 	stmdb	sp!, {r4, r5, r6, r7, r8, r9, sl, fp, lr}
 8003994:	4699      	mov	r9, r3
 8003996:	b083      	sub	sp, #12
 8003998:	4604      	mov	r4, r0
 800399a:	460e      	mov	r6, r1
 800399c:	4617      	mov	r7, r2
 800399e:	2320      	movs	r3, #32
 80039a0:	f383 8811 	msr	BASEPRI, r3
 80039a4:	f04f 4380 	mov.w	r3, #1073741824	; 0x40000000
  size_t r = 0;
 80039a8:	2500      	movs	r5, #0
 80039aa:	6a5b      	ldr	r3, [r3, #36]	; 0x24
    if (ibqp->ptr == NULL) {
 80039ac:	6aa1      	ldr	r1, [r4, #40]	; 0x28
  return systime + (systime_t)interval;
 80039ae:	444b      	add	r3, r9
 80039b0:	b29b      	uxth	r3, r3
  ibqp->ptr = NULL;
 80039b2:	46a8      	mov	r8, r5
      if ((timeout == TIME_INFINITE) || (timeout == TIME_IMMEDIATE)) {
 80039b4:	f109 3aff 	add.w	sl, r9, #4294967295	; 0xffffffff
 80039b8:	9301      	str	r3, [sp, #4]
    if (ibqp->ptr == NULL) {
 80039ba:	2900      	cmp	r1, #0
 80039bc:	d045      	beq.n	8003a4a <ibqReadTimeout+0xba>
    size = (size_t)ibqp->top - (size_t)ibqp->ptr;
 80039be:	6ae3      	ldr	r3, [r4, #44]	; 0x2c
    if (size > (n - r)) {
 80039c0:	eba7 0b05 	sub.w	fp, r7, r5
    size = (size_t)ibqp->top - (size_t)ibqp->ptr;
 80039c4:	1a5b      	subs	r3, r3, r1
 80039c6:	459b      	cmp	fp, r3
 80039c8:	bf28      	it	cs
 80039ca:	469b      	movcs	fp, r3
    if (size > 64U) {
 80039cc:	f1bb 0f40 	cmp.w	fp, #64	; 0x40
 80039d0:	d94d      	bls.n	8003a6e <ibqReadTimeout+0xde>
      memcpy(bp, ibqp->ptr, 64U);
 80039d2:	4633      	mov	r3, r6
 80039d4:	f101 0240 	add.w	r2, r1, #64	; 0x40
 80039d8:	f8d1 b000 	ldr.w	fp, [r1]
 80039dc:	f8d1 e004 	ldr.w	lr, [r1, #4]
 80039e0:	f8d1 c008 	ldr.w	ip, [r1, #8]
 80039e4:	68c8      	ldr	r0, [r1, #12]
 80039e6:	3110      	adds	r1, #16
 80039e8:	4291      	cmp	r1, r2
 80039ea:	f8c3 b000 	str.w	fp, [r3]
 80039ee:	f8c3 e004 	str.w	lr, [r3, #4]
 80039f2:	f8c3 c008 	str.w	ip, [r3, #8]
 80039f6:	60d8      	str	r0, [r3, #12]
 80039f8:	f103 0310 	add.w	r3, r3, #16
 80039fc:	d1ec      	bne.n	80039d8 <ibqReadTimeout+0x48>
      ibqp->ptr += 64U;
 80039fe:	6aa3      	ldr	r3, [r4, #40]	; 0x28
      bp        += 64U;
 8003a00:	3640      	adds	r6, #64	; 0x40
      ibqp->ptr += 64U;
 8003a02:	3340      	adds	r3, #64	; 0x40
      r         += 64U;
 8003a04:	3540      	adds	r5, #64	; 0x40
      ibqp->ptr += 64U;
 8003a06:	62a3      	str	r3, [r4, #40]	; 0x28
    if (ibqp->ptr >= ibqp->top) {
 8003a08:	6ae2      	ldr	r2, [r4, #44]	; 0x2c
 8003a0a:	429a      	cmp	r2, r3
 8003a0c:	d813      	bhi.n	8003a36 <ibqReadTimeout+0xa6>
  if (ibqp->brdptr >= ibqp->btop) {
 8003a0e:	e9d4 2106 	ldrd	r2, r1, [r4, #24]
  ibqp->brdptr += ibqp->bsize;
 8003a12:	6963      	ldr	r3, [r4, #20]
  ibqp->bcounter--;
 8003a14:	68e0      	ldr	r0, [r4, #12]
  ibqp->brdptr += ibqp->bsize;
 8003a16:	440b      	add	r3, r1
  if (ibqp->brdptr >= ibqp->btop) {
 8003a18:	4293      	cmp	r3, r2
  ibqp->brdptr += ibqp->bsize;
 8003a1a:	6163      	str	r3, [r4, #20]
    ibqp->brdptr = ibqp->buffers;
 8003a1c:	bf28      	it	cs
 8003a1e:	6a63      	ldrcs	r3, [r4, #36]	; 0x24
  ibqp->bcounter--;
 8003a20:	f100 30ff 	add.w	r0, r0, #4294967295	; 0xffffffff
    ibqp->brdptr = ibqp->buffers;
 8003a24:	bf28      	it	cs
 8003a26:	6163      	strcs	r3, [r4, #20]
  if (ibqp->notify != NULL) {
 8003a28:	6b23      	ldr	r3, [r4, #48]	; 0x30
  ibqp->bcounter--;
 8003a2a:	60e0      	str	r0, [r4, #12]
  ibqp->ptr = NULL;
 8003a2c:	f8c4 8028 	str.w	r8, [r4, #40]	; 0x28
  if (ibqp->notify != NULL) {
 8003a30:	b10b      	cbz	r3, 8003a36 <ibqReadTimeout+0xa6>
    ibqp->notify(ibqp);
 8003a32:	4620      	mov	r0, r4
 8003a34:	4798      	blx	r3
 8003a36:	f388 8811 	msr	BASEPRI, r8
    if (r >= n) {
 8003a3a:	42bd      	cmp	r5, r7
 8003a3c:	d22a      	bcs.n	8003a94 <ibqReadTimeout+0x104>
 8003a3e:	2320      	movs	r3, #32
 8003a40:	f383 8811 	msr	BASEPRI, r3
    if (ibqp->ptr == NULL) {
 8003a44:	6aa1      	ldr	r1, [r4, #40]	; 0x28
 8003a46:	2900      	cmp	r1, #0
 8003a48:	d1b9      	bne.n	80039be <ibqReadTimeout+0x2e>
      if ((timeout == TIME_INFINITE) || (timeout == TIME_IMMEDIATE)) {
 8003a4a:	f11a 0f03 	cmn.w	sl, #3
 8003a4e:	d818      	bhi.n	8003a82 <ibqReadTimeout+0xf2>
 8003a50:	f04f 4380 	mov.w	r3, #1073741824	; 0x40000000
  return (sysinterval_t)((systime_t)(end - start));
 8003a54:	9a01      	ldr	r2, [sp, #4]
 8003a56:	6a5b      	ldr	r3, [r3, #36]	; 0x24
 8003a58:	1ad3      	subs	r3, r2, r3
 8003a5a:	b29b      	uxth	r3, r3
        if (next_timeout > timeout) {
 8003a5c:	4599      	cmp	r9, r3
 8003a5e:	d31d      	bcc.n	8003a9c <ibqReadTimeout+0x10c>
        msg = ibqGetFullBufferTimeoutS(ibqp, next_timeout);
 8003a60:	4619      	mov	r1, r3
 8003a62:	4620      	mov	r0, r4
 8003a64:	f7ff ff74 	bl	8003950 <ibqGetFullBufferTimeoutS>
      if (msg != MSG_OK) {
 8003a68:	b988      	cbnz	r0, 8003a8e <ibqReadTimeout+0xfe>
 8003a6a:	6aa1      	ldr	r1, [r4, #40]	; 0x28
 8003a6c:	e7a7      	b.n	80039be <ibqReadTimeout+0x2e>
      memcpy(bp, ibqp->ptr, size);
 8003a6e:	4630      	mov	r0, r6
 8003a70:	465a      	mov	r2, fp
 8003a72:	f7fc fbf9 	bl	8000268 <memcpy>
      ibqp->ptr += size;
 8003a76:	6aa3      	ldr	r3, [r4, #40]	; 0x28
      r         += size;
 8003a78:	445d      	add	r5, fp
      ibqp->ptr += size;
 8003a7a:	445b      	add	r3, fp
      bp        += size;
 8003a7c:	445e      	add	r6, fp
      ibqp->ptr += size;
 8003a7e:	62a3      	str	r3, [r4, #40]	; 0x28
 8003a80:	e7c2      	b.n	8003a08 <ibqReadTimeout+0x78>
        msg = ibqGetFullBufferTimeoutS(ibqp, timeout);
 8003a82:	4649      	mov	r1, r9
 8003a84:	4620      	mov	r0, r4
 8003a86:	f7ff ff63 	bl	8003950 <ibqGetFullBufferTimeoutS>
      if (msg != MSG_OK) {
 8003a8a:	2800      	cmp	r0, #0
 8003a8c:	d0ed      	beq.n	8003a6a <ibqReadTimeout+0xda>
 8003a8e:	2300      	movs	r3, #0
 8003a90:	f383 8811 	msr	BASEPRI, r3
}
 8003a94:	4628      	mov	r0, r5
 8003a96:	b003      	add	sp, #12
 8003a98:	e8bd 8ff0 	ldmia.w	sp!, {r4, r5, r6, r7, r8, r9, sl, fp, pc}
 8003a9c:	f381 8811 	msr	BASEPRI, r1
 8003aa0:	4628      	mov	r0, r5
 8003aa2:	b003      	add	sp, #12
 8003aa4:	e8bd 8ff0 	ldmia.w	sp!, {r4, r5, r6, r7, r8, r9, sl, fp, pc}
	...

08003ab0 <_readt.lto_priv.119>:
  return ibqReadTimeout(&((SerialUSBDriver *)ip)->ibqueue, bp, n, timeout);
 8003ab0:	300c      	adds	r0, #12
 8003ab2:	f7ff bf6d 	b.w	8003990 <ibqReadTimeout>
 8003ab6:	bf00      	nop
	...

08003ac0 <_read.lto_priv.131>:
  return ibqReadTimeout(&((SerialUSBDriver *)ip)->ibqueue, bp,
 8003ac0:	300c      	adds	r0, #12
 8003ac2:	f04f 33ff 	mov.w	r3, #4294967295	; 0xffffffff
 8003ac6:	f7ff bf63 	b.w	8003990 <ibqReadTimeout>
 8003aca:	bf00      	nop
 8003acc:	0000      	movs	r0, r0
	...

08003ad0 <ibqGetTimeout>:
msg_t ibqGetTimeout(input_buffers_queue_t *ibqp, sysinterval_t timeout) {
 8003ad0:	b570      	push	{r4, r5, r6, lr}
 8003ad2:	2320      	movs	r3, #32
 8003ad4:	4604      	mov	r4, r0
 8003ad6:	f383 8811 	msr	BASEPRI, r3
  if (ibqp->ptr == NULL) {
 8003ada:	6a85      	ldr	r5, [r0, #40]	; 0x28
 8003adc:	b1ed      	cbz	r5, 8003b1a <ibqGetTimeout+0x4a>
  msg = (msg_t)*ibqp->ptr;
 8003ade:	f815 6b01 	ldrb.w	r6, [r5], #1
  if (ibqp->ptr >= ibqp->top) {
 8003ae2:	6ae2      	ldr	r2, [r4, #44]	; 0x2c
  ibqp->ptr++;
 8003ae4:	62a5      	str	r5, [r4, #40]	; 0x28
  if (ibqp->ptr >= ibqp->top) {
 8003ae6:	4295      	cmp	r5, r2
 8003ae8:	d312      	bcc.n	8003b10 <ibqGetTimeout+0x40>
  if (ibqp->brdptr >= ibqp->btop) {
 8003aea:	e9d4 1006 	ldrd	r1, r0, [r4, #24]
  ibqp->bcounter--;
 8003aee:	68e2      	ldr	r2, [r4, #12]
  ibqp->brdptr += ibqp->bsize;
 8003af0:	6963      	ldr	r3, [r4, #20]
  ibqp->bcounter--;
 8003af2:	3a01      	subs	r2, #1
 8003af4:	60e2      	str	r2, [r4, #12]
  ibqp->ptr = NULL;
 8003af6:	2200      	movs	r2, #0
  ibqp->brdptr += ibqp->bsize;
 8003af8:	4403      	add	r3, r0
  if (ibqp->brdptr >= ibqp->btop) {
 8003afa:	428b      	cmp	r3, r1
  ibqp->brdptr += ibqp->bsize;
 8003afc:	6163      	str	r3, [r4, #20]
    ibqp->brdptr = ibqp->buffers;
 8003afe:	bf28      	it	cs
 8003b00:	6a63      	ldrcs	r3, [r4, #36]	; 0x24
  ibqp->ptr = NULL;
 8003b02:	62a2      	str	r2, [r4, #40]	; 0x28
    ibqp->brdptr = ibqp->buffers;
 8003b04:	bf28      	it	cs
 8003b06:	6163      	strcs	r3, [r4, #20]
  if (ibqp->notify != NULL) {
 8003b08:	6b23      	ldr	r3, [r4, #48]	; 0x30
 8003b0a:	b10b      	cbz	r3, 8003b10 <ibqGetTimeout+0x40>
    ibqp->notify(ibqp);
 8003b0c:	4620      	mov	r0, r4
 8003b0e:	4798      	blx	r3
 8003b10:	2300      	movs	r3, #0
 8003b12:	f383 8811 	msr	BASEPRI, r3
}
 8003b16:	4630      	mov	r0, r6
 8003b18:	bd70      	pop	{r4, r5, r6, pc}
    msg = ibqGetFullBufferTimeoutS(ibqp, timeout);
 8003b1a:	f7ff ff19 	bl	8003950 <ibqGetFullBufferTimeoutS>
    if (msg != MSG_OK) {
 8003b1e:	4606      	mov	r6, r0
 8003b20:	b908      	cbnz	r0, 8003b26 <ibqGetTimeout+0x56>
 8003b22:	6aa5      	ldr	r5, [r4, #40]	; 0x28
 8003b24:	e7db      	b.n	8003ade <ibqGetTimeout+0xe>
 8003b26:	f385 8811 	msr	BASEPRI, r5
 8003b2a:	e7f4      	b.n	8003b16 <ibqGetTimeout+0x46>
 8003b2c:	0000      	movs	r0, r0
	...

08003b30 <_gett.lto_priv.123>:
  return ibqGetTimeout(&((SerialUSBDriver *)ip)->ibqueue, timeout);
 8003b30:	300c      	adds	r0, #12
 8003b32:	f7ff bfcd 	b.w	8003ad0 <ibqGetTimeout>
 8003b36:	bf00      	nop
	...

08003b40 <_get.lto_priv.127>:
  return ibqGetTimeout(&((SerialUSBDriver *)ip)->ibqueue, TIME_INFINITE);
 8003b40:	300c      	adds	r0, #12
 8003b42:	f04f 31ff 	mov.w	r1, #4294967295	; 0xffffffff
 8003b46:	f7ff bfc3 	b.w	8003ad0 <ibqGetTimeout>
 8003b4a:	bf00      	nop
 8003b4c:	0000      	movs	r0, r0
	...

08003b50 <chThdSleep>:
void chThdSleep(sysinterval_t time) {
 8003b50:	b508      	push	{r3, lr}
 8003b52:	4601      	mov	r1, r0
 8003b54:	2320      	movs	r3, #32
 8003b56:	f383 8811 	msr	BASEPRI, r3
  (void) chSchGoSleepTimeoutS(CH_STATE_SLEEPING, ticks);
 8003b5a:	2008      	movs	r0, #8
 8003b5c:	f7ff fb28 	bl	80031b0 <chSchGoSleepTimeoutS>
 8003b60:	2300      	movs	r3, #0
 8003b62:	f383 8811 	msr	BASEPRI, r3
}
 8003b66:	bd08      	pop	{r3, pc}
	...

08003b70 <_ZL7Thread1Pv>:

	(void) arg;
	chRegSetThreadName("blinker");
	while (true) {
		systime_t time = serusbcfg.usbp->state == USB_ACTIVE ? 100 : 300;
		palClearPad(GPIOC, GPIOC_LED);
 8003b70:	f44f 5600 	mov.w	r6, #8192	; 0x2000
 8003b74:	46b0      	mov	r8, r6
 * @api
 */
static inline void chRegSetThreadName(const char *name) {

#if CH_CFG_USE_REGISTRY == TRUE
  ch.rlist.current->name = name;
 8003b76:	4b0b      	ldr	r3, [pc, #44]	; (8003ba4 <_ZL7Thread1Pv+0x34>)
 8003b78:	4a0b      	ldr	r2, [pc, #44]	; (8003ba8 <_ZL7Thread1Pv+0x38>)
 8003b7a:	699b      	ldr	r3, [r3, #24]
static __attribute__((noreturn)) THD_FUNCTION(Thread1, arg) {
 8003b7c:	b580      	push	{r7, lr}
		palClearPad(GPIOC, GPIOC_LED);
 8003b7e:	4d0b      	ldr	r5, [pc, #44]	; (8003bac <_ZL7Thread1Pv+0x3c>)
 8003b80:	4f0b      	ldr	r7, [pc, #44]	; (8003bb0 <_ZL7Thread1Pv+0x40>)
 8003b82:	619a      	str	r2, [r3, #24]
		systime_t time = serusbcfg.usbp->state == USB_ACTIVE ? 100 : 300;
 8003b84:	783b      	ldrb	r3, [r7, #0]
		palClearPad(GPIOC, GPIOC_LED);
 8003b86:	f8c5 8014 	str.w	r8, [r5, #20]
		systime_t time = serusbcfg.usbp->state == USB_ACTIVE ? 100 : 300;
 8003b8a:	2b04      	cmp	r3, #4
 8003b8c:	bf14      	ite	ne
 8003b8e:	f44f 7416 	movne.w	r4, #600	; 0x258
 8003b92:	24c8      	moveq	r4, #200	; 0xc8
		chThdSleepMilliseconds(time);
 8003b94:	4620      	mov	r0, r4
 8003b96:	f7ff ffdb 	bl	8003b50 <chThdSleep>
		palSetPad(GPIOC, GPIOC_LED);
		chThdSleepMilliseconds(time);
 8003b9a:	4620      	mov	r0, r4
		palSetPad(GPIOC, GPIOC_LED);
 8003b9c:	612e      	str	r6, [r5, #16]
		chThdSleepMilliseconds(time);
 8003b9e:	f7ff ffd7 	bl	8003b50 <chThdSleep>
 8003ba2:	e7ef      	b.n	8003b84 <_ZL7Thread1Pv+0x14>
 8003ba4:	200012d0 	.word	0x200012d0
 8003ba8:	08009f08 	.word	0x08009f08
 8003bac:	40011000 	.word	0x40011000
 8003bb0:	20000fc4 	.word	0x20000fc4
	...

08003bc0 <rt_test_003_001_execute>:
  systime_t time;

  /* [3.1.1] The current system time is read then a sleep is performed
     for 100 system ticks and on exit the system time is verified
     again.*/
  test_set_step(1);
 8003bc0:	2301      	movs	r3, #1
static void rt_test_003_001_execute(void) {
 8003bc2:	b570      	push	{r4, r5, r6, lr}
 8003bc4:	f04f 4580 	mov.w	r5, #1073741824	; 0x40000000
  test_set_step(1);
 8003bc8:	4e30      	ldr	r6, [pc, #192]	; (8003c8c <rt_test_003_001_execute+0xcc>)
  {
    time = chVTGetSystemTimeX();
    chThdSleep(100);
 8003bca:	2064      	movs	r0, #100	; 0x64
  test_set_step(1);
 8003bcc:	6033      	str	r3, [r6, #0]
 8003bce:	6a6c      	ldr	r4, [r5, #36]	; 0x24
    chThdSleep(100);
 8003bd0:	f7ff ffbe 	bl	8003b50 <chThdSleep>
 8003bd4:	b2a4      	uxth	r4, r4
  return systime + (systime_t)interval;
 8003bd6:	f104 0167 	add.w	r1, r4, #103	; 0x67
 8003bda:	f104 0064 	add.w	r0, r4, #100	; 0x64
    test_assert_time_window(chTimeAddX(time, 100),
 8003bde:	b289      	uxth	r1, r1
 8003be0:	b280      	uxth	r0, r0
 8003be2:	f7fc fcc5 	bl	8000570 <_test_assert_time_window.constprop.3>
 8003be6:	b100      	cbz	r0, 8003bea <rt_test_003_001_execute+0x2a>
    chThdSleepUntil(chTimeAddX(time, 100));
    test_assert_time_window(chTimeAddX(time, 100),
                            chTimeAddX(time, 100 + CH_CFG_ST_TIMEDELTA + 1),
                            "out of time window");
  }
}
 8003be8:	bd70      	pop	{r4, r5, r6, pc}
  test_set_step(2);
 8003bea:	2302      	movs	r3, #2
 8003bec:	6033      	str	r3, [r6, #0]
 8003bee:	6a6c      	ldr	r4, [r5, #36]	; 0x24
    chThdSleepMicroseconds(100000);
 8003bf0:	20c8      	movs	r0, #200	; 0xc8
 8003bf2:	b2a4      	uxth	r4, r4
 8003bf4:	f7ff ffac 	bl	8003b50 <chThdSleep>
 8003bf8:	f104 01cb 	add.w	r1, r4, #203	; 0xcb
 8003bfc:	f104 00c8 	add.w	r0, r4, #200	; 0xc8
    test_assert_time_window(chTimeAddX(time, TIME_US2I(100000)),
 8003c00:	b289      	uxth	r1, r1
 8003c02:	b280      	uxth	r0, r0
 8003c04:	f7fc fcb4 	bl	8000570 <_test_assert_time_window.constprop.3>
 8003c08:	2800      	cmp	r0, #0
 8003c0a:	d1ed      	bne.n	8003be8 <rt_test_003_001_execute+0x28>
  test_set_step(3);
 8003c0c:	2303      	movs	r3, #3
 8003c0e:	6033      	str	r3, [r6, #0]
 8003c10:	6a6c      	ldr	r4, [r5, #36]	; 0x24
    chThdSleepMilliseconds(100);
 8003c12:	20c8      	movs	r0, #200	; 0xc8
 8003c14:	b2a4      	uxth	r4, r4
 8003c16:	f7ff ff9b 	bl	8003b50 <chThdSleep>
 8003c1a:	f104 01cb 	add.w	r1, r4, #203	; 0xcb
 8003c1e:	f104 00c8 	add.w	r0, r4, #200	; 0xc8
    test_assert_time_window(chTimeAddX(time, TIME_MS2I(100)),
 8003c22:	b289      	uxth	r1, r1
 8003c24:	b280      	uxth	r0, r0
 8003c26:	f7fc fca3 	bl	8000570 <_test_assert_time_window.constprop.3>
 8003c2a:	2800      	cmp	r0, #0
 8003c2c:	d1dc      	bne.n	8003be8 <rt_test_003_001_execute+0x28>
  test_set_step(4);
 8003c2e:	2304      	movs	r3, #4
 8003c30:	6033      	str	r3, [r6, #0]
 8003c32:	6a6c      	ldr	r4, [r5, #36]	; 0x24
    chThdSleepSeconds(1);
 8003c34:	f44f 60fa 	mov.w	r0, #2000	; 0x7d0
 8003c38:	b2a4      	uxth	r4, r4
 8003c3a:	f7ff ff89 	bl	8003b50 <chThdSleep>
 8003c3e:	f204 71d3 	addw	r1, r4, #2003	; 0x7d3
 8003c42:	f504 60fa 	add.w	r0, r4, #2000	; 0x7d0
    test_assert_time_window(chTimeAddX(time, TIME_S2I(1)),
 8003c46:	b289      	uxth	r1, r1
 8003c48:	b280      	uxth	r0, r0
 8003c4a:	f7fc fc91 	bl	8000570 <_test_assert_time_window.constprop.3>
 8003c4e:	2800      	cmp	r0, #0
 8003c50:	d1ca      	bne.n	8003be8 <rt_test_003_001_execute+0x28>
  test_set_step(5);
 8003c52:	2305      	movs	r3, #5
 8003c54:	6033      	str	r3, [r6, #0]
 8003c56:	6a6c      	ldr	r4, [r5, #36]	; 0x24
 8003c58:	2320      	movs	r3, #32
 8003c5a:	b2a4      	uxth	r4, r4
 8003c5c:	f104 0664 	add.w	r6, r4, #100	; 0x64
 8003c60:	b2b6      	uxth	r6, r6
 8003c62:	f383 8811 	msr	BASEPRI, r3
 8003c66:	6a69      	ldr	r1, [r5, #36]	; 0x24
  return (sysinterval_t)((systime_t)(end - start));
 8003c68:	1a71      	subs	r1, r6, r1
 8003c6a:	b289      	uxth	r1, r1
  if (interval > (sysinterval_t)0) {
 8003c6c:	b111      	cbz	r1, 8003c74 <rt_test_003_001_execute+0xb4>
 8003c6e:	2008      	movs	r0, #8
 8003c70:	f7ff fa9e 	bl	80031b0 <chSchGoSleepTimeoutS>
 8003c74:	2300      	movs	r3, #0
 8003c76:	f383 8811 	msr	BASEPRI, r3
  return systime + (systime_t)interval;
 8003c7a:	f104 0167 	add.w	r1, r4, #103	; 0x67
    test_assert_time_window(chTimeAddX(time, 100),
 8003c7e:	4630      	mov	r0, r6
}
 8003c80:	e8bd 4070 	ldmia.w	sp!, {r4, r5, r6, lr}
    test_assert_time_window(chTimeAddX(time, 100),
 8003c84:	b289      	uxth	r1, r1
 8003c86:	f7fc bc73 	b.w	8000570 <_test_assert_time_window.constprop.3>
 8003c8a:	bf00      	nop
 8003c8c:	20001c5c 	.word	0x20001c5c

08003c90 <test_wait_tick>:
}

/*
 * Delays execution until next system time tick.
 */
systime_t test_wait_tick(void) {
 8003c90:	b508      	push	{r3, lr}

  chThdSleep(1);
 8003c92:	2001      	movs	r0, #1
 8003c94:	f7ff ff5c 	bl	8003b50 <chThdSleep>
 8003c98:	2320      	movs	r3, #32
 8003c9a:	f383 8811 	msr	BASEPRI, r3
 8003c9e:	f04f 4280 	mov.w	r2, #1073741824	; 0x40000000
 8003ca2:	2300      	movs	r3, #0
 8003ca4:	6a50      	ldr	r0, [r2, #36]	; 0x24
 8003ca6:	f383 8811 	msr	BASEPRI, r3
  return chVTGetSystemTime();
}
 8003caa:	b280      	uxth	r0, r0
 8003cac:	bd08      	pop	{r3, pc}
 8003cae:	bf00      	nop

08003cb0 <rt_test_010_009_execute>:
static void rt_test_010_009_execute(void) {
 8003cb0:	e92d 4ff8 	stmdb	sp!, {r3, r4, r5, r6, r7, r8, r9, sl, fp, lr}
  test_set_step(1);
 8003cb4:	2301      	movs	r3, #1
 8003cb6:	4a20      	ldr	r2, [pc, #128]	; (8003d38 <rt_test_010_009_execute+0x88>)
    n = 0;
 8003cb8:	2400      	movs	r4, #0
  test_set_step(1);
 8003cba:	6013      	str	r3, [r2, #0]
    start = test_wait_tick();
 8003cbc:	f7ff ffe8 	bl	8003c90 <test_wait_tick>
      chVTDoSetI(&vt1, 1, tmo, NULL);
 8003cc0:	46a3      	mov	fp, r4
    start = test_wait_tick();
 8003cc2:	4681      	mov	r9, r0
 8003cc4:	f04f 0a20 	mov.w	sl, #32
 8003cc8:	f500 68fa 	add.w	r8, r0, #2000	; 0x7d0
 8003ccc:	fa1f f888 	uxth.w	r8, r8
      chVTDoSetI(&vt1, 1, tmo, NULL);
 8003cd0:	4f1a      	ldr	r7, [pc, #104]	; (8003d3c <rt_test_010_009_execute+0x8c>)
 8003cd2:	4e1b      	ldr	r6, [pc, #108]	; (8003d40 <rt_test_010_009_execute+0x90>)
      chVTDoSetI(&vt2, 10000, tmo, NULL);
 8003cd4:	4d1b      	ldr	r5, [pc, #108]	; (8003d44 <rt_test_010_009_execute+0x94>)
 8003cd6:	eba8 0800 	sub.w	r8, r8, r0
 8003cda:	f38a 8811 	msr	BASEPRI, sl
      chVTDoSetI(&vt1, 1, tmo, NULL);
 8003cde:	2300      	movs	r3, #0
 8003ce0:	463a      	mov	r2, r7
 8003ce2:	4630      	mov	r0, r6
 8003ce4:	2101      	movs	r1, #1
 8003ce6:	f7fe f8f3 	bl	8001ed0 <chVTDoSetI>
      chVTDoSetI(&vt2, 10000, tmo, NULL);
 8003cea:	463a      	mov	r2, r7
 8003cec:	2300      	movs	r3, #0
 8003cee:	f242 7110 	movw	r1, #10000	; 0x2710
 8003cf2:	4628      	mov	r0, r5
 8003cf4:	f7fe f8ec 	bl	8001ed0 <chVTDoSetI>
      chVTDoResetI(&vt1);
 8003cf8:	4630      	mov	r0, r6
 8003cfa:	f7fe f8a1 	bl	8001e40 <chVTDoResetI>
      chVTDoResetI(&vt2);
 8003cfe:	4628      	mov	r0, r5
 8003d00:	f7fe f89e 	bl	8001e40 <chVTDoResetI>
 8003d04:	f38b 8811 	msr	BASEPRI, fp
 8003d08:	f04f 4380 	mov.w	r3, #1073741824	; 0x40000000
 8003d0c:	6a5b      	ldr	r3, [r3, #36]	; 0x24
      n++;
 8003d0e:	3401      	adds	r4, #1
  return (bool)((time - start) < (end - start));
 8003d10:	b29b      	uxth	r3, r3
 8003d12:	eba3 0309 	sub.w	r3, r3, r9
    } while (chVTIsSystemTimeWithinX(start, end));
 8003d16:	4543      	cmp	r3, r8
 8003d18:	dbdf      	blt.n	8003cda <rt_test_010_009_execute+0x2a>
  test_set_step(2);
 8003d1a:	2302      	movs	r3, #2
 8003d1c:	4a06      	ldr	r2, [pc, #24]	; (8003d38 <rt_test_010_009_execute+0x88>)
    test_print("--- Score : ");
 8003d1e:	480a      	ldr	r0, [pc, #40]	; (8003d48 <rt_test_010_009_execute+0x98>)
  test_set_step(2);
 8003d20:	6013      	str	r3, [r2, #0]
    test_print("--- Score : ");
 8003d22:	f7fc ff15 	bl	8000b50 <test_print>
    test_printn(n * 2);
 8003d26:	0060      	lsls	r0, r4, #1
 8003d28:	f7fc fea2 	bl	8000a70 <test_printn>
}
 8003d2c:	e8bd 4ff8 	ldmia.w	sp!, {r3, r4, r5, r6, r7, r8, r9, sl, fp, lr}
    test_println(" timers/S");
 8003d30:	4806      	ldr	r0, [pc, #24]	; (8003d4c <rt_test_010_009_execute+0x9c>)
 8003d32:	f7fc beed 	b.w	8000b10 <test_println>
 8003d36:	bf00      	nop
 8003d38:	20001c5c 	.word	0x20001c5c
 8003d3c:	08000761 	.word	0x08000761
 8003d40:	20001c8c 	.word	0x20001c8c
 8003d44:	20001ca0 	.word	0x20001ca0
 8003d48:	0800b7c0 	.word	0x0800b7c0
 8003d4c:	0800b7d0 	.word	0x0800b7d0

08003d50 <test_execute>:
 * @retval false        if no errors occurred.
 * @retval true         if one or more tests failed.
 *
 * @api
 */
msg_t test_execute(BaseSequentialStream *stream, const testsuite_t *tsp) {
 8003d50:	e92d 4ff0 	stmdb	sp!, {r4, r5, r6, r7, r8, r9, sl, fp, lr}
 8003d54:	4688      	mov	r8, r1
  int tseq, tcase;

  test_chp = stream;
 8003d56:	4c9d      	ldr	r4, [pc, #628]	; (8003fcc <test_execute+0x27c>)
msg_t test_execute(BaseSequentialStream *stream, const testsuite_t *tsp) {
 8003d58:	b083      	sub	sp, #12
  test_chp = stream;
 8003d5a:	6020      	str	r0, [r4, #0]
  test_println("");
 8003d5c:	489c      	ldr	r0, [pc, #624]	; (8003fd0 <test_execute+0x280>)
 8003d5e:	f7fc fed7 	bl	8000b10 <test_println>
  if (tsp->name != NULL) {
 8003d62:	f8d8 3000 	ldr.w	r3, [r8]
 8003d66:	2b00      	cmp	r3, #0
 8003d68:	f000 8186 	beq.w	8004078 <test_execute+0x328>
  while (*msgp)
 8003d6c:	212a      	movs	r1, #42	; 0x2a
  if (tsp->name != NULL) {
 8003d6e:	4d99      	ldr	r5, [pc, #612]	; (8003fd4 <test_execute+0x284>)
    streamPut(test_chp, *msgp++);
 8003d70:	6820      	ldr	r0, [r4, #0]
 8003d72:	6803      	ldr	r3, [r0, #0]
 8003d74:	689b      	ldr	r3, [r3, #8]
 8003d76:	4798      	blx	r3
  while (*msgp)
 8003d78:	f815 1f01 	ldrb.w	r1, [r5, #1]!
 8003d7c:	2900      	cmp	r1, #0
 8003d7e:	d1f7      	bne.n	8003d70 <test_execute+0x20>
    test_print("*** ");
    test_println(tsp->name);
 8003d80:	f8d8 0000 	ldr.w	r0, [r8]
 8003d84:	f7fc fec4 	bl	8000b10 <test_println>
  }
  else {
    test_println("*** Test Suite");
  }
  test_println("***");
 8003d88:	4893      	ldr	r0, [pc, #588]	; (8003fd8 <test_execute+0x288>)
 8003d8a:	f7fc fec1 	bl	8000b10 <test_println>
  while (*msgp)
 8003d8e:	212a      	movs	r1, #42	; 0x2a
  test_println("***");
 8003d90:	4d92      	ldr	r5, [pc, #584]	; (8003fdc <test_execute+0x28c>)
    streamPut(test_chp, *msgp++);
 8003d92:	6820      	ldr	r0, [r4, #0]
 8003d94:	6803      	ldr	r3, [r0, #0]
 8003d96:	689b      	ldr	r3, [r3, #8]
 8003d98:	4798      	blx	r3
  while (*msgp)
 8003d9a:	f815 1f01 	ldrb.w	r1, [r5, #1]!
 8003d9e:	2900      	cmp	r1, #0
 8003da0:	d1f7      	bne.n	8003d92 <test_execute+0x42>
  test_print("*** Compiled:     ");
  test_println(__DATE__ " - " __TIME__);
 8003da2:	488f      	ldr	r0, [pc, #572]	; (8003fe0 <test_execute+0x290>)
 8003da4:	f7fc feb4 	bl	8000b10 <test_println>
  while (*msgp)
 8003da8:	212a      	movs	r1, #42	; 0x2a
  test_println(__DATE__ " - " __TIME__);
 8003daa:	4d8e      	ldr	r5, [pc, #568]	; (8003fe4 <test_execute+0x294>)
    streamPut(test_chp, *msgp++);
 8003dac:	6820      	ldr	r0, [r4, #0]
 8003dae:	6803      	ldr	r3, [r0, #0]
 8003db0:	689b      	ldr	r3, [r3, #8]
 8003db2:	4798      	blx	r3
  while (*msgp)
 8003db4:	f815 1f01 	ldrb.w	r1, [r5, #1]!
 8003db8:	2900      	cmp	r1, #0
 8003dba:	d1f7      	bne.n	8003dac <test_execute+0x5c>
#if defined(PLATFORM_NAME)
  test_print("*** Platform:     ");
  test_println(PLATFORM_NAME);
 8003dbc:	488a      	ldr	r0, [pc, #552]	; (8003fe8 <test_execute+0x298>)
 8003dbe:	f7fc fea7 	bl	8000b10 <test_println>
  while (*msgp)
 8003dc2:	212a      	movs	r1, #42	; 0x2a
  test_println(PLATFORM_NAME);
 8003dc4:	4d89      	ldr	r5, [pc, #548]	; (8003fec <test_execute+0x29c>)
    streamPut(test_chp, *msgp++);
 8003dc6:	6820      	ldr	r0, [r4, #0]
 8003dc8:	6803      	ldr	r3, [r0, #0]
 8003dca:	689b      	ldr	r3, [r3, #8]
 8003dcc:	4798      	blx	r3
  while (*msgp)
 8003dce:	f815 1f01 	ldrb.w	r1, [r5, #1]!
 8003dd2:	2900      	cmp	r1, #0
 8003dd4:	d1f7      	bne.n	8003dc6 <test_execute+0x76>
#endif
#if defined(BOARD_NAME)
  test_print("*** Test Board:   ");
  test_println(BOARD_NAME);
 8003dd6:	4886      	ldr	r0, [pc, #536]	; (8003ff0 <test_execute+0x2a0>)
 8003dd8:	9101      	str	r1, [sp, #4]
 8003dda:	f7fc fe99 	bl	8000b10 <test_println>
#endif
#if defined(TEST_REPORT_HOOK_HEADER)
  TEST_REPORT_HOOK_HEADER
#endif
  test_println("");
 8003dde:	487c      	ldr	r0, [pc, #496]	; (8003fd0 <test_execute+0x280>)
 8003de0:	f7fc fe96 	bl	8000b10 <test_println>

  test_global_fail = false;
  tseq = 0;
 8003de4:	9901      	ldr	r1, [sp, #4]
  test_global_fail = false;
 8003de6:	4b83      	ldr	r3, [pc, #524]	; (8003ff4 <test_execute+0x2a4>)
  tseq = 0;
 8003de8:	468b      	mov	fp, r1
  test_global_fail = false;
 8003dea:	7019      	strb	r1, [r3, #0]
  test_tokp = test_tokens_buffer;
 8003dec:	4e82      	ldr	r6, [pc, #520]	; (8003ff8 <test_execute+0x2a8>)
 8003dee:	f8d8 3004 	ldr.w	r3, [r8, #4]
  while (tsp->sequences[tseq] != NULL) {
 8003df2:	f853 302b 	ldr.w	r3, [r3, fp, lsl #2]
 8003df6:	ea4f 078b 	mov.w	r7, fp, lsl #2
 8003dfa:	2b00      	cmp	r3, #0
 8003dfc:	f000 811a 	beq.w	8004034 <test_execute+0x2e4>
 8003e00:	254c      	movs	r5, #76	; 0x4c
    streamPut(test_chp, '=');
 8003e02:	6820      	ldr	r0, [r4, #0]
 8003e04:	213d      	movs	r1, #61	; 0x3d
 8003e06:	6803      	ldr	r3, [r0, #0]
 8003e08:	689b      	ldr	r3, [r3, #8]
 8003e0a:	4798      	blx	r3
  for (i = 0; i < 76; i++)
 8003e0c:	3d01      	subs	r5, #1
 8003e0e:	d1f8      	bne.n	8003e02 <test_execute+0xb2>
  streamWrite(test_chp, (const uint8_t *)"\r\n", 2);
 8003e10:	6820      	ldr	r0, [r4, #0]
 8003e12:	497a      	ldr	r1, [pc, #488]	; (8003ffc <test_execute+0x2ac>)
 8003e14:	6803      	ldr	r3, [r0, #0]
 8003e16:	2202      	movs	r2, #2
 8003e18:	681b      	ldr	r3, [r3, #0]
 8003e1a:	4798      	blx	r3
  while (*msgp)
 8003e1c:	213d      	movs	r1, #61	; 0x3d
  streamWrite(test_chp, (const uint8_t *)"\r\n", 2);
 8003e1e:	4d78      	ldr	r5, [pc, #480]	; (8004000 <test_execute+0x2b0>)
    streamPut(test_chp, *msgp++);
 8003e20:	6820      	ldr	r0, [r4, #0]
 8003e22:	6803      	ldr	r3, [r0, #0]
 8003e24:	689b      	ldr	r3, [r3, #8]
 8003e26:	4798      	blx	r3
  while (*msgp)
 8003e28:	f815 1f01 	ldrb.w	r1, [r5, #1]!
 8003e2c:	2900      	cmp	r1, #0
 8003e2e:	d1f7      	bne.n	8003e20 <test_execute+0xd0>
#if TEST_SHOW_SEQUENCES == TRUE
    print_fat_line();
    test_print("=== Test Sequence ");
    test_printn(tseq + 1);
 8003e30:	f10b 0b01 	add.w	fp, fp, #1
 8003e34:	4658      	mov	r0, fp
 8003e36:	f7fc fe1b 	bl	8000a70 <test_printn>
  while (*msgp)
 8003e3a:	2120      	movs	r1, #32
    test_printn(tseq + 1);
 8003e3c:	4d71      	ldr	r5, [pc, #452]	; (8004004 <test_execute+0x2b4>)
    streamPut(test_chp, *msgp++);
 8003e3e:	6820      	ldr	r0, [r4, #0]
 8003e40:	6803      	ldr	r3, [r0, #0]
 8003e42:	689b      	ldr	r3, [r3, #8]
 8003e44:	4798      	blx	r3
  while (*msgp)
 8003e46:	f815 1f01 	ldrb.w	r1, [r5, #1]!
 8003e4a:	2900      	cmp	r1, #0
 8003e4c:	d1f7      	bne.n	8003e3e <test_execute+0xee>
    test_print(" (");
    test_print(tsp->sequences[tseq]->name);
 8003e4e:	f8d8 3004 	ldr.w	r3, [r8, #4]
 8003e52:	59db      	ldr	r3, [r3, r7]
 8003e54:	681d      	ldr	r5, [r3, #0]
  while (*msgp)
 8003e56:	7829      	ldrb	r1, [r5, #0]
 8003e58:	b139      	cbz	r1, 8003e6a <test_execute+0x11a>
    streamPut(test_chp, *msgp++);
 8003e5a:	6820      	ldr	r0, [r4, #0]
 8003e5c:	6803      	ldr	r3, [r0, #0]
 8003e5e:	689b      	ldr	r3, [r3, #8]
 8003e60:	4798      	blx	r3
  while (*msgp)
 8003e62:	f815 1f01 	ldrb.w	r1, [r5, #1]!
 8003e66:	2900      	cmp	r1, #0
 8003e68:	d1f7      	bne.n	8003e5a <test_execute+0x10a>
    test_println(")");
 8003e6a:	4867      	ldr	r0, [pc, #412]	; (8004008 <test_execute+0x2b8>)
 8003e6c:	f7fc fe50 	bl	8000b10 <test_println>
#endif
    tcase = 0;
 8003e70:	2500      	movs	r5, #0
    while (tsp->sequences[tseq]->cases[tcase] != NULL) {
 8003e72:	f8d8 3004 	ldr.w	r3, [r8, #4]
 8003e76:	ea4f 0985 	mov.w	r9, r5, lsl #2
 8003e7a:	59da      	ldr	r2, [r3, r7]
 8003e7c:	6852      	ldr	r2, [r2, #4]
 8003e7e:	f852 2025 	ldr.w	r2, [r2, r5, lsl #2]
 8003e82:	2a00      	cmp	r2, #0
 8003e84:	d0b5      	beq.n	8003df2 <test_execute+0xa2>
      print_line();
 8003e86:	f7fc fecb 	bl	8000c20 <print_line>
  while (*msgp)
 8003e8a:	212d      	movs	r1, #45	; 0x2d
      print_line();
 8003e8c:	f8df a190 	ldr.w	sl, [pc, #400]	; 8004020 <test_execute+0x2d0>
    streamPut(test_chp, *msgp++);
 8003e90:	6820      	ldr	r0, [r4, #0]
 8003e92:	6803      	ldr	r3, [r0, #0]
 8003e94:	689b      	ldr	r3, [r3, #8]
 8003e96:	4798      	blx	r3
  while (*msgp)
 8003e98:	f81a 1f01 	ldrb.w	r1, [sl, #1]!
 8003e9c:	2900      	cmp	r1, #0
 8003e9e:	d1f7      	bne.n	8003e90 <test_execute+0x140>
      test_print("--- Test Case ");
      test_printn(tseq + 1);
 8003ea0:	4658      	mov	r0, fp
 8003ea2:	f7fc fde5 	bl	8000a70 <test_printn>
    streamPut(test_chp, *msgp++);
 8003ea6:	6820      	ldr	r0, [r4, #0]
 8003ea8:	212e      	movs	r1, #46	; 0x2e
 8003eaa:	6803      	ldr	r3, [r0, #0]
      test_print(".");
      test_printn(tcase + 1);
 8003eac:	3501      	adds	r5, #1
    streamPut(test_chp, *msgp++);
 8003eae:	689b      	ldr	r3, [r3, #8]
 8003eb0:	4798      	blx	r3
      test_printn(tcase + 1);
 8003eb2:	4628      	mov	r0, r5
 8003eb4:	f7fc fddc 	bl	8000a70 <test_printn>
  while (*msgp)
 8003eb8:	2120      	movs	r1, #32
      test_printn(tcase + 1);
 8003eba:	f8df a148 	ldr.w	sl, [pc, #328]	; 8004004 <test_execute+0x2b4>
    streamPut(test_chp, *msgp++);
 8003ebe:	6820      	ldr	r0, [r4, #0]
 8003ec0:	6803      	ldr	r3, [r0, #0]
 8003ec2:	689b      	ldr	r3, [r3, #8]
 8003ec4:	4798      	blx	r3
  while (*msgp)
 8003ec6:	f81a 1f01 	ldrb.w	r1, [sl, #1]!
 8003eca:	2900      	cmp	r1, #0
 8003ecc:	d1f7      	bne.n	8003ebe <test_execute+0x16e>
      test_print(" (");
      test_print(tsp->sequences[tseq]->cases[tcase]->name);
 8003ece:	f8d8 3004 	ldr.w	r3, [r8, #4]
 8003ed2:	59db      	ldr	r3, [r3, r7]
 8003ed4:	685b      	ldr	r3, [r3, #4]
 8003ed6:	f853 3009 	ldr.w	r3, [r3, r9]
 8003eda:	f8d3 a000 	ldr.w	sl, [r3]
  while (*msgp)
 8003ede:	f89a 1000 	ldrb.w	r1, [sl]
 8003ee2:	b139      	cbz	r1, 8003ef4 <test_execute+0x1a4>
    streamPut(test_chp, *msgp++);
 8003ee4:	6820      	ldr	r0, [r4, #0]
 8003ee6:	6803      	ldr	r3, [r0, #0]
 8003ee8:	689b      	ldr	r3, [r3, #8]
 8003eea:	4798      	blx	r3
  while (*msgp)
 8003eec:	f81a 1f01 	ldrb.w	r1, [sl, #1]!
 8003ef0:	2900      	cmp	r1, #0
 8003ef2:	d1f7      	bne.n	8003ee4 <test_execute+0x194>
      test_println(")");
 8003ef4:	4844      	ldr	r0, [pc, #272]	; (8004008 <test_execute+0x2b8>)
 8003ef6:	f7fc fe0b 	bl	8000b10 <test_println>
  chThdSleep(delay);
 8003efa:	f44f 70c8 	mov.w	r0, #400	; 0x190
 8003efe:	f7ff fe27 	bl	8003b50 <chThdSleep>
  test_local_fail = false;
 8003f02:	2200      	movs	r2, #0
#if TEST_DELAY_BETWEEN_TESTS > 0
      osalThreadSleepMilliseconds(TEST_DELAY_BETWEEN_TESTS);
#endif
      execute_test(tsp->sequences[tseq]->cases[tcase]);
 8003f04:	f8d8 3004 	ldr.w	r3, [r8, #4]
  test_local_fail = false;
 8003f08:	f8df a118 	ldr.w	sl, [pc, #280]	; 8004024 <test_execute+0x2d4>
      execute_test(tsp->sequences[tseq]->cases[tcase]);
 8003f0c:	59db      	ldr	r3, [r3, r7]
  test_tokp = test_tokens_buffer;
 8003f0e:	493f      	ldr	r1, [pc, #252]	; (800400c <test_execute+0x2bc>)
      execute_test(tsp->sequences[tseq]->cases[tcase]);
 8003f10:	685b      	ldr	r3, [r3, #4]
  test_tokp = test_tokens_buffer;
 8003f12:	6031      	str	r1, [r6, #0]
      execute_test(tsp->sequences[tseq]->cases[tcase]);
 8003f14:	f853 9009 	ldr.w	r9, [r3, r9]
  test_local_fail = false;
 8003f18:	f88a 2000 	strb.w	r2, [sl]
  if (tcp->setup != NULL)
 8003f1c:	f8d9 3004 	ldr.w	r3, [r9, #4]
 8003f20:	b103      	cbz	r3, 8003f24 <test_execute+0x1d4>
    tcp->setup();
 8003f22:	4798      	blx	r3
  tcp->execute();
 8003f24:	f8d9 300c 	ldr.w	r3, [r9, #12]
 8003f28:	4798      	blx	r3
  if (tcp->teardown != NULL)
 8003f2a:	f8d9 3008 	ldr.w	r3, [r9, #8]
 8003f2e:	b103      	cbz	r3, 8003f32 <test_execute+0x1e2>
    tcp->teardown();
 8003f30:	4798      	blx	r3
      if (test_local_fail) {
 8003f32:	f89a 3000 	ldrb.w	r3, [sl]
 8003f36:	2b00      	cmp	r3, #0
 8003f38:	d044      	beq.n	8003fc4 <test_execute+0x274>
  while (*msgp)
 8003f3a:	212d      	movs	r1, #45	; 0x2d
      if (test_local_fail) {
 8003f3c:	f8df 90e8 	ldr.w	r9, [pc, #232]	; 8004028 <test_execute+0x2d8>
    streamPut(test_chp, *msgp++);
 8003f40:	6820      	ldr	r0, [r4, #0]
 8003f42:	6803      	ldr	r3, [r0, #0]
 8003f44:	689b      	ldr	r3, [r3, #8]
 8003f46:	4798      	blx	r3
  while (*msgp)
 8003f48:	f819 1f01 	ldrb.w	r1, [r9, #1]!
 8003f4c:	2900      	cmp	r1, #0
 8003f4e:	d1f7      	bne.n	8003f40 <test_execute+0x1f0>
        test_print("--- Result: FAILURE (#");
        test_printn(test_step);
 8003f50:	4b2f      	ldr	r3, [pc, #188]	; (8004010 <test_execute+0x2c0>)
 8003f52:	f8df 90d8 	ldr.w	r9, [pc, #216]	; 800402c <test_execute+0x2dc>
 8003f56:	6818      	ldr	r0, [r3, #0]
 8003f58:	f7fc fd8a 	bl	8000a70 <test_printn>
  while (*msgp)
 8003f5c:	2120      	movs	r1, #32
    streamPut(test_chp, *msgp++);
 8003f5e:	6820      	ldr	r0, [r4, #0]
 8003f60:	6803      	ldr	r3, [r0, #0]
 8003f62:	689b      	ldr	r3, [r3, #8]
 8003f64:	4798      	blx	r3
  while (*msgp)
 8003f66:	f819 1f01 	ldrb.w	r1, [r9, #1]!
 8003f6a:	2900      	cmp	r1, #0
 8003f6c:	d1f7      	bne.n	8003f5e <test_execute+0x20e>
  while (cp < test_tokp)
 8003f6e:	6833      	ldr	r3, [r6, #0]
 8003f70:	4a26      	ldr	r2, [pc, #152]	; (800400c <test_execute+0x2bc>)
 8003f72:	4293      	cmp	r3, r2
 8003f74:	d909      	bls.n	8003f8a <test_execute+0x23a>
  char *cp = test_tokens_buffer;
 8003f76:	4691      	mov	r9, r2
    streamPut(test_chp, *cp++);
 8003f78:	6820      	ldr	r0, [r4, #0]
 8003f7a:	f819 1b01 	ldrb.w	r1, [r9], #1
 8003f7e:	6803      	ldr	r3, [r0, #0]
 8003f80:	689b      	ldr	r3, [r3, #8]
 8003f82:	4798      	blx	r3
  while (cp < test_tokp)
 8003f84:	6833      	ldr	r3, [r6, #0]
 8003f86:	4599      	cmp	r9, r3
 8003f88:	d3f6      	bcc.n	8003f78 <test_execute+0x228>
  while (*msgp)
 8003f8a:	215d      	movs	r1, #93	; 0x5d
 8003f8c:	f8df 90a0 	ldr.w	r9, [pc, #160]	; 8004030 <test_execute+0x2e0>
    streamPut(test_chp, *msgp++);
 8003f90:	6820      	ldr	r0, [r4, #0]
 8003f92:	6803      	ldr	r3, [r0, #0]
 8003f94:	689b      	ldr	r3, [r3, #8]
 8003f96:	4798      	blx	r3
  while (*msgp)
 8003f98:	f819 1f01 	ldrb.w	r1, [r9, #1]!
 8003f9c:	2900      	cmp	r1, #0
 8003f9e:	d1f7      	bne.n	8003f90 <test_execute+0x240>
        test_print(" [");
        print_tokens();
        test_print("] \"");
        test_print(test_failure_message);
 8003fa0:	4b1c      	ldr	r3, [pc, #112]	; (8004014 <test_execute+0x2c4>)
 8003fa2:	f8d3 9000 	ldr.w	r9, [r3]
  while (*msgp)
 8003fa6:	f899 1000 	ldrb.w	r1, [r9]
 8003faa:	b139      	cbz	r1, 8003fbc <test_execute+0x26c>
    streamPut(test_chp, *msgp++);
 8003fac:	6820      	ldr	r0, [r4, #0]
 8003fae:	6803      	ldr	r3, [r0, #0]
 8003fb0:	689b      	ldr	r3, [r3, #8]
 8003fb2:	4798      	blx	r3
  while (*msgp)
 8003fb4:	f819 1f01 	ldrb.w	r1, [r9, #1]!
 8003fb8:	2900      	cmp	r1, #0
 8003fba:	d1f7      	bne.n	8003fac <test_execute+0x25c>
        test_println("\")");
 8003fbc:	4816      	ldr	r0, [pc, #88]	; (8004018 <test_execute+0x2c8>)
 8003fbe:	f7fc fda7 	bl	8000b10 <test_println>
 8003fc2:	e756      	b.n	8003e72 <test_execute+0x122>
      }
      else {
        test_println("--- Result: SUCCESS");
 8003fc4:	4815      	ldr	r0, [pc, #84]	; (800401c <test_execute+0x2cc>)
 8003fc6:	f7fc fda3 	bl	8000b10 <test_println>
 8003fca:	e752      	b.n	8003e72 <test_execute+0x122>
 8003fcc:	20001bb0 	.word	0x20001bb0
 8003fd0:	0800ba9c 	.word	0x0800ba9c
 8003fd4:	0800c478 	.word	0x0800c478
 8003fd8:	0800c524 	.word	0x0800c524
 8003fdc:	0800c480 	.word	0x0800c480
 8003fe0:	0800c528 	.word	0x0800c528
 8003fe4:	0800c494 	.word	0x0800c494
 8003fe8:	0800a10c 	.word	0x0800a10c
 8003fec:	0800c4a8 	.word	0x0800c4a8
 8003ff0:	0800a14c 	.word	0x0800a14c
 8003ff4:	20001bb8 	.word	0x20001bb8
 8003ff8:	20001c70 	.word	0x20001c70
 8003ffc:	0800ba48 	.word	0x0800ba48
 8004000:	0800c4bc 	.word	0x0800c4bc
 8004004:	0800c4d0 	.word	0x0800c4d0
 8004008:	0800c540 	.word	0x0800c540
 800400c:	20001c60 	.word	0x20001c60
 8004010:	20001c5c 	.word	0x20001c5c
 8004014:	20001bb4 	.word	0x20001bb4
 8004018:	0800c544 	.word	0x0800c544
 800401c:	0800c548 	.word	0x0800c548
 8004020:	0800c4d4 	.word	0x0800c4d4
 8004024:	20001c58 	.word	0x20001c58
 8004028:	0800c4e4 	.word	0x0800c4e4
 800402c:	0800c4fc 	.word	0x0800c4fc
 8004030:	0800c500 	.word	0x0800c500
      }
      tcase++;
    }
    tseq++;
  }
  print_line();
 8004034:	f7fc fdf4 	bl	8000c20 <print_line>
  test_println("");
 8004038:	4811      	ldr	r0, [pc, #68]	; (8004080 <test_execute+0x330>)
 800403a:	f7fc fd69 	bl	8000b10 <test_println>
  while (*msgp)
 800403e:	2146      	movs	r1, #70	; 0x46
  test_println("");
 8004040:	4d10      	ldr	r5, [pc, #64]	; (8004084 <test_execute+0x334>)
    streamPut(test_chp, *msgp++);
 8004042:	6820      	ldr	r0, [r4, #0]
 8004044:	6803      	ldr	r3, [r0, #0]
 8004046:	689b      	ldr	r3, [r3, #8]
 8004048:	4798      	blx	r3
  while (*msgp)
 800404a:	f815 1f01 	ldrb.w	r1, [r5, #1]!
 800404e:	2900      	cmp	r1, #0
 8004050:	d1f7      	bne.n	8004042 <test_execute+0x2f2>
  test_print("Final result: ");
  if (test_global_fail)
 8004052:	4b0d      	ldr	r3, [pc, #52]	; (8004088 <test_execute+0x338>)
 8004054:	781b      	ldrb	r3, [r3, #0]
 8004056:	b93b      	cbnz	r3, 8004068 <test_execute+0x318>
    test_println("FAILURE");
  else
    test_println("SUCCESS");
 8004058:	480c      	ldr	r0, [pc, #48]	; (800408c <test_execute+0x33c>)
 800405a:	f7fc fd59 	bl	8000b10 <test_println>
#if defined(TEST_REPORT_HOOK_END)
  TEST_REPORT_HOOK_END
#endif

  return (msg_t)test_global_fail;
}
 800405e:	4b0a      	ldr	r3, [pc, #40]	; (8004088 <test_execute+0x338>)
 8004060:	7818      	ldrb	r0, [r3, #0]
 8004062:	b003      	add	sp, #12
 8004064:	e8bd 8ff0 	ldmia.w	sp!, {r4, r5, r6, r7, r8, r9, sl, fp, pc}
    test_println("FAILURE");
 8004068:	4809      	ldr	r0, [pc, #36]	; (8004090 <test_execute+0x340>)
 800406a:	f7fc fd51 	bl	8000b10 <test_println>
}
 800406e:	4b06      	ldr	r3, [pc, #24]	; (8004088 <test_execute+0x338>)
 8004070:	7818      	ldrb	r0, [r3, #0]
 8004072:	b003      	add	sp, #12
 8004074:	e8bd 8ff0 	ldmia.w	sp!, {r4, r5, r6, r7, r8, r9, sl, fp, pc}
    test_println("*** Test Suite");
 8004078:	4806      	ldr	r0, [pc, #24]	; (8004094 <test_execute+0x344>)
 800407a:	f7fc fd49 	bl	8000b10 <test_println>
 800407e:	e683      	b.n	8003d88 <test_execute+0x38>
 8004080:	0800ba9c 	.word	0x0800ba9c
 8004084:	0800c504 	.word	0x0800c504
 8004088:	20001bb8 	.word	0x20001bb8
 800408c:	0800c554 	.word	0x0800c554
 8004090:	0800c55c 	.word	0x0800c55c
 8004094:	0800c514 	.word	0x0800c514
	...

080040a0 <test_rt>:
#endif

#if (SHELL_CMD_TEST_ENABLED == TRUE) || defined(__DOXYGEN__)
static THD_FUNCTION(test_rt, arg) {
  BaseSequentialStream *chp = (BaseSequentialStream *)arg;
  test_execute(chp, &rt_test_suite);
 80040a0:	4901      	ldr	r1, [pc, #4]	; (80040a8 <test_rt+0x8>)
 80040a2:	f7ff be55 	b.w	8003d50 <test_execute>
 80040a6:	bf00      	nop
 80040a8:	0800b9f4 	.word	0x0800b9f4
 80040ac:	00000000 	.word	0x00000000

080040b0 <test_oslib>:
}

static THD_FUNCTION(test_oslib, arg) {
  BaseSequentialStream *chp = (BaseSequentialStream *)arg;
  test_execute(chp, &oslib_test_suite);
 80040b0:	4901      	ldr	r1, [pc, #4]	; (80040b8 <test_oslib+0x8>)
 80040b2:	f7ff be4d 	b.w	8003d50 <test_execute>
 80040b6:	bf00      	nop
 80040b8:	0800a6dc 	.word	0x0800a6dc
 80040bc:	00000000 	.word	0x00000000

080040c0 <chMsgWait>:
 *
 * @return              A reference to the thread carrying the message.
 *
 * @api
 */
thread_t *chMsgWait(void) {
 80040c0:	b538      	push	{r3, r4, r5, lr}
 80040c2:	2320      	movs	r3, #32
 80040c4:	f383 8811 	msr	BASEPRI, r3
  thread_t *tp;

  chSysLock();
  if (!chMsgIsPendingI(currp)) {
 80040c8:	4c0c      	ldr	r4, [pc, #48]	; (80040fc <chMsgWait+0x3c>)
 80040ca:	69a2      	ldr	r2, [r4, #24]
 */
static inline bool chMsgIsPendingI(thread_t *tp) {

  chDbgCheckClassI();

  return (bool)(tp->msgqueue.next != (thread_t *)&tp->msgqueue);
 80040cc:	4613      	mov	r3, r2
 80040ce:	f853 0f2c 	ldr.w	r0, [r3, #44]!
 80040d2:	4298      	cmp	r0, r3
 80040d4:	d009      	beq.n	80040ea <chMsgWait+0x2a>
    chSchGoSleepS(CH_STATE_WTMSG);
  }
  tp = queue_fifo_remove(&currp->msgqueue);
  tp->state = CH_STATE_SNDMSG;
 80040d6:	250d      	movs	r5, #13
  tqp->next             = tp->queue.next;
 80040d8:	6801      	ldr	r1, [r0, #0]
 80040da:	2400      	movs	r4, #0
 80040dc:	62d1      	str	r1, [r2, #44]	; 0x2c
  tqp->next->queue.prev = (thread_t *)tqp;
 80040de:	604b      	str	r3, [r1, #4]
 80040e0:	f880 5020 	strb.w	r5, [r0, #32]
 80040e4:	f384 8811 	msr	BASEPRI, r4
  chSysUnlock();

  return tp;
}
 80040e8:	bd38      	pop	{r3, r4, r5, pc}
    chSchGoSleepS(CH_STATE_WTMSG);
 80040ea:	200e      	movs	r0, #14
 80040ec:	f7fe ffd8 	bl	80030a0 <chSchGoSleepS>
 80040f0:	69a2      	ldr	r2, [r4, #24]
 80040f2:	6ad0      	ldr	r0, [r2, #44]	; 0x2c
 80040f4:	f102 032c 	add.w	r3, r2, #44	; 0x2c
 80040f8:	e7ed      	b.n	80040d6 <chMsgWait+0x16>
 80040fa:	bf00      	nop
 80040fc:	200012d0 	.word	0x200012d0

08004100 <bmk_thread1>:
static THD_FUNCTION(bmk_thread1, p) {
 8004100:	b570      	push	{r4, r5, r6, lr}
 8004102:	2620      	movs	r6, #32
 8004104:	2500      	movs	r5, #0
    tp = chMsgWait();
 8004106:	f7ff ffdb 	bl	80040c0 <chMsgWait>
 800410a:	6a44      	ldr	r4, [r0, #36]	; 0x24
 800410c:	f386 8811 	msr	BASEPRI, r6
 */
static inline void chMsgReleaseS(thread_t *tp, msg_t msg) {

  chDbgCheckClassS();

  chSchWakeupS(tp, msg);
 8004110:	4621      	mov	r1, r4
 8004112:	f7fe fee5 	bl	8002ee0 <chSchWakeupS>
 8004116:	f385 8811 	msr	BASEPRI, r5
  } while (msg);
 800411a:	2c00      	cmp	r4, #0
 800411c:	d1f3      	bne.n	8004106 <bmk_thread1+0x6>
}
 800411e:	bd70      	pop	{r4, r5, r6, pc}

08004120 <chMsgSend>:
  thread_t *ctp = currp;
 8004120:	4b0e      	ldr	r3, [pc, #56]	; (800415c <chMsgSend+0x3c>)
msg_t chMsgSend(thread_t *tp, msg_t msg) {
 8004122:	b510      	push	{r4, lr}
 8004124:	2220      	movs	r2, #32
  thread_t *ctp = currp;
 8004126:	699c      	ldr	r4, [r3, #24]
 8004128:	f382 8811 	msr	BASEPRI, r2
  ctp->u.sentmsg = msg;
 800412c:	6261      	str	r1, [r4, #36]	; 0x24
  tp->queue.prev             = tqp->prev;
 800412e:	6b02      	ldr	r2, [r0, #48]	; 0x30
  msg_insert(ctp, &tp->msgqueue);
 8004130:	f100 012c 	add.w	r1, r0, #44	; 0x2c
 8004134:	e9c4 1200 	strd	r1, r2, [r4]
  tp->queue.prev->queue.next = tp;
 8004138:	6014      	str	r4, [r2, #0]
  if (tp->state == CH_STATE_WTMSG) {
 800413a:	f890 2020 	ldrb.w	r2, [r0, #32]
  tqp->prev                  = tp;
 800413e:	6304      	str	r4, [r0, #48]	; 0x30
 8004140:	2a0e      	cmp	r2, #14
 8004142:	d007      	beq.n	8004154 <chMsgSend+0x34>
  chSchGoSleepS(CH_STATE_SNDMSGQ);
 8004144:	200c      	movs	r0, #12
 8004146:	f7fe ffab 	bl	80030a0 <chSchGoSleepS>
  msg = ctp->u.rdymsg;
 800414a:	6a60      	ldr	r0, [r4, #36]	; 0x24
 800414c:	2300      	movs	r3, #0
 800414e:	f383 8811 	msr	BASEPRI, r3
}
 8004152:	bd10      	pop	{r4, pc}
    (void) chSchReadyI(tp);
 8004154:	f7fd fcac 	bl	8001ab0 <chSchReadyI>
 8004158:	e7f4      	b.n	8004144 <chMsgSend+0x24>
 800415a:	bf00      	nop
 800415c:	200012d0 	.word	0x200012d0

08004160 <msg_loop_test>:
NOINLINE static unsigned int msg_loop_test(thread_t *tp) {
 8004160:	e92d 41f0 	stmdb	sp!, {r4, r5, r6, r7, r8, lr}
 8004164:	4607      	mov	r7, r0
  start = test_wait_tick();
 8004166:	f7ff fd93 	bl	8003c90 <test_wait_tick>
  uint32_t n = 0;
 800416a:	2400      	movs	r4, #0
  start = test_wait_tick();
 800416c:	4606      	mov	r6, r0
 800416e:	f04f 4880 	mov.w	r8, #1073741824	; 0x40000000
  return systime + (systime_t)interval;
 8004172:	f500 65fa 	add.w	r5, r0, #2000	; 0x7d0
 8004176:	b2ad      	uxth	r5, r5
 8004178:	1a2d      	subs	r5, r5, r0
    (void)chMsgSend(tp, 1);
 800417a:	2101      	movs	r1, #1
 800417c:	4638      	mov	r0, r7
 800417e:	f7ff ffcf 	bl	8004120 <chMsgSend>
 8004182:	f8d8 3024 	ldr.w	r3, [r8, #36]	; 0x24
    n++;
 8004186:	3401      	adds	r4, #1
  return (bool)((time - start) < (end - start));
 8004188:	b29b      	uxth	r3, r3
 800418a:	1b9b      	subs	r3, r3, r6
  } while (chVTIsSystemTimeWithinX(start, end));
 800418c:	42ab      	cmp	r3, r5
 800418e:	dbf4      	blt.n	800417a <msg_loop_test+0x1a>
  (void)chMsgSend(tp, 0);
 8004190:	4638      	mov	r0, r7
 8004192:	2100      	movs	r1, #0
 8004194:	f7ff ffc4 	bl	8004120 <chMsgSend>
}
 8004198:	4620      	mov	r0, r4
 800419a:	e8bd 81f0 	ldmia.w	sp!, {r4, r5, r6, r7, r8, pc}
 800419e:	bf00      	nop

080041a0 <msg_thread1>:

/****************************************************************************
 * Shared code.
 ****************************************************************************/

static THD_FUNCTION(msg_thread1, p) {
 80041a0:	b510      	push	{r4, lr}
 80041a2:	4604      	mov	r4, r0

  chMsgSend(p, 'A');
 80041a4:	2141      	movs	r1, #65	; 0x41
 80041a6:	f7ff ffbb 	bl	8004120 <chMsgSend>
  chMsgSend(p, 'B');
 80041aa:	4620      	mov	r0, r4
 80041ac:	2142      	movs	r1, #66	; 0x42
 80041ae:	f7ff ffb7 	bl	8004120 <chMsgSend>
  chMsgSend(p, 'C');
 80041b2:	4620      	mov	r0, r4
 80041b4:	2143      	movs	r1, #67	; 0x43
 80041b6:	f7ff ffb3 	bl	8004120 <chMsgSend>
  chMsgSend(p, 'D');
 80041ba:	4620      	mov	r0, r4
}
 80041bc:	e8bd 4010 	ldmia.w	sp!, {r4, lr}
  chMsgSend(p, 'D');
 80041c0:	2144      	movs	r1, #68	; 0x44
 80041c2:	f7ff bfad 	b.w	8004120 <chMsgSend>
 80041c6:	bf00      	nop
	...

080041d0 <chMtxLockS>:
void chMtxLockS(mutex_t *mp) {
 80041d0:	b5f8      	push	{r3, r4, r5, r6, r7, lr}
  thread_t *ctp = currp;
 80041d2:	4a38      	ldr	r2, [pc, #224]	; (80042b4 <chMtxLockS+0xe4>)
  if (mp->owner != NULL) {
 80041d4:	6883      	ldr	r3, [r0, #8]
  thread_t *ctp = currp;
 80041d6:	6995      	ldr	r5, [r2, #24]
  if (mp->owner != NULL) {
 80041d8:	2b00      	cmp	r3, #0
 80041da:	d040      	beq.n	800425e <chMtxLockS+0x8e>
      while (tp->prio < ctp->prio) {
 80041dc:	68a9      	ldr	r1, [r5, #8]
 80041de:	689a      	ldr	r2, [r3, #8]
 80041e0:	4604      	mov	r4, r0
 80041e2:	4291      	cmp	r1, r2
 80041e4:	d907      	bls.n	80041f6 <chMtxLockS+0x26>
        switch (tp->state) {
 80041e6:	f893 2020 	ldrb.w	r2, [r3, #32]
        tp->prio = ctp->prio;
 80041ea:	6099      	str	r1, [r3, #8]
        switch (tp->state) {
 80041ec:	2a06      	cmp	r2, #6
 80041ee:	d03b      	beq.n	8004268 <chMtxLockS+0x98>
 80041f0:	2a07      	cmp	r2, #7
 80041f2:	d015      	beq.n	8004220 <chMtxLockS+0x50>
 80041f4:	b342      	cbz	r2, 8004248 <chMtxLockS+0x78>
      queue_prio_insert(ctp, &mp->queue);
 80041f6:	4626      	mov	r6, r4
 80041f8:	4623      	mov	r3, r4
 80041fa:	e003      	b.n	8004204 <chMtxLockS+0x34>
  } while ((cp != (thread_t *)tqp) && (cp->prio >= tp->prio));
 80041fc:	6899      	ldr	r1, [r3, #8]
 80041fe:	68aa      	ldr	r2, [r5, #8]
 8004200:	4291      	cmp	r1, r2
 8004202:	d32a      	bcc.n	800425a <chMtxLockS+0x8a>
    cp = cp->queue.next;
 8004204:	681b      	ldr	r3, [r3, #0]
  } while ((cp != (thread_t *)tqp) && (cp->prio >= tp->prio));
 8004206:	429c      	cmp	r4, r3
 8004208:	d1f8      	bne.n	80041fc <chMtxLockS+0x2c>
  tp->queue.prev             = cp->queue.prev;
 800420a:	6873      	ldr	r3, [r6, #4]
      chSchGoSleepS(CH_STATE_WTMTX);
 800420c:	2006      	movs	r0, #6
 800420e:	e9c5 6300 	strd	r6, r3, [r5]
  tp->queue.prev->queue.next = tp;
 8004212:	601d      	str	r5, [r3, #0]
  cp->queue.prev             = tp;
 8004214:	6075      	str	r5, [r6, #4]
      ctp->u.wtmtxp = mp;
 8004216:	626c      	str	r4, [r5, #36]	; 0x24
}
 8004218:	e8bd 40f8 	ldmia.w	sp!, {r3, r4, r5, r6, r7, lr}
      chSchGoSleepS(CH_STATE_WTMTX);
 800421c:	f7fe bf40 	b.w	80030a0 <chSchGoSleepS>
  tp->queue.prev->queue.next = tp->queue.next;
 8004220:	681f      	ldr	r7, [r3, #0]
 8004222:	6858      	ldr	r0, [r3, #4]
          queue_prio_insert(queue_dequeue(tp), &tp->u.wtmtxp->queue);
 8004224:	6a5e      	ldr	r6, [r3, #36]	; 0x24
 8004226:	6007      	str	r7, [r0, #0]
  tp->queue.next->queue.prev = tp->queue.prev;
 8004228:	681f      	ldr	r7, [r3, #0]
 800422a:	4632      	mov	r2, r6
 800422c:	6078      	str	r0, [r7, #4]
 800422e:	e002      	b.n	8004236 <chMtxLockS+0x66>
  } while ((cp != (thread_t *)tqp) && (cp->prio >= tp->prio));
 8004230:	6890      	ldr	r0, [r2, #8]
 8004232:	4288      	cmp	r0, r1
 8004234:	d334      	bcc.n	80042a0 <chMtxLockS+0xd0>
    cp = cp->queue.next;
 8004236:	6812      	ldr	r2, [r2, #0]
  } while ((cp != (thread_t *)tqp) && (cp->prio >= tp->prio));
 8004238:	4296      	cmp	r6, r2
 800423a:	d1f9      	bne.n	8004230 <chMtxLockS+0x60>
  tp->queue.prev             = cp->queue.prev;
 800423c:	6872      	ldr	r2, [r6, #4]
 800423e:	e9c3 6200 	strd	r6, r2, [r3]
  tp->queue.prev->queue.next = tp;
 8004242:	6013      	str	r3, [r2, #0]
  cp->queue.prev             = tp;
 8004244:	6073      	str	r3, [r6, #4]
 8004246:	e7d6      	b.n	80041f6 <chMtxLockS+0x26>
  tp->queue.prev->queue.next = tp->queue.next;
 8004248:	e9d3 1200 	ldrd	r1, r2, [r3]
 800424c:	6011      	str	r1, [r2, #0]
          (void) chSchReadyI(queue_dequeue(tp));
 800424e:	4618      	mov	r0, r3
  tp->queue.next->queue.prev = tp->queue.prev;
 8004250:	681b      	ldr	r3, [r3, #0]
 8004252:	605a      	str	r2, [r3, #4]
 8004254:	f7fd fc2c 	bl	8001ab0 <chSchReadyI>
 8004258:	e7cd      	b.n	80041f6 <chMtxLockS+0x26>
    cp = cp->queue.next;
 800425a:	461e      	mov	r6, r3
 800425c:	e7d5      	b.n	800420a <chMtxLockS+0x3a>
    mp->next = ctp->mtxlist;
 800425e:	6bab      	ldr	r3, [r5, #56]	; 0x38
 8004260:	e9c0 5302 	strd	r5, r3, [r0, #8]
    ctp->mtxlist = mp;
 8004264:	63a8      	str	r0, [r5, #56]	; 0x38
}
 8004266:	bdf8      	pop	{r3, r4, r5, r6, r7, pc}
  tp->queue.prev->queue.next = tp->queue.next;
 8004268:	681f      	ldr	r7, [r3, #0]
 800426a:	6858      	ldr	r0, [r3, #4]
          queue_prio_insert(queue_dequeue(tp), &tp->u.wtmtxp->queue);
 800426c:	6a5e      	ldr	r6, [r3, #36]	; 0x24
 800426e:	6007      	str	r7, [r0, #0]
  tp->queue.next->queue.prev = tp->queue.prev;
 8004270:	681f      	ldr	r7, [r3, #0]
 8004272:	46b4      	mov	ip, r6
 8004274:	4632      	mov	r2, r6
 8004276:	6078      	str	r0, [r7, #4]
 8004278:	e002      	b.n	8004280 <chMtxLockS+0xb0>
  } while ((cp != (thread_t *)tqp) && (cp->prio >= tp->prio));
 800427a:	6890      	ldr	r0, [r2, #8]
 800427c:	4288      	cmp	r0, r1
 800427e:	d316      	bcc.n	80042ae <chMtxLockS+0xde>
    cp = cp->queue.next;
 8004280:	6812      	ldr	r2, [r2, #0]
  } while ((cp != (thread_t *)tqp) && (cp->prio >= tp->prio));
 8004282:	4296      	cmp	r6, r2
 8004284:	d1f9      	bne.n	800427a <chMtxLockS+0xaa>
  tp->queue.prev             = cp->queue.prev;
 8004286:	f8dc 2004 	ldr.w	r2, [ip, #4]
      while (tp->prio < ctp->prio) {
 800428a:	68a9      	ldr	r1, [r5, #8]
 800428c:	e9c3 c200 	strd	ip, r2, [r3]
  tp->queue.prev->queue.next = tp;
 8004290:	6013      	str	r3, [r2, #0]
  cp->queue.prev             = tp;
 8004292:	f8cc 3004 	str.w	r3, [ip, #4]
          tp = tp->u.wtmtxp->owner;
 8004296:	68b3      	ldr	r3, [r6, #8]
      while (tp->prio < ctp->prio) {
 8004298:	689a      	ldr	r2, [r3, #8]
 800429a:	428a      	cmp	r2, r1
 800429c:	d3a3      	bcc.n	80041e6 <chMtxLockS+0x16>
 800429e:	e7aa      	b.n	80041f6 <chMtxLockS+0x26>
    cp = cp->queue.next;
 80042a0:	4616      	mov	r6, r2
  tp->queue.prev             = cp->queue.prev;
 80042a2:	6872      	ldr	r2, [r6, #4]
 80042a4:	e9c3 6200 	strd	r6, r2, [r3]
  tp->queue.prev->queue.next = tp;
 80042a8:	6013      	str	r3, [r2, #0]
  cp->queue.prev             = tp;
 80042aa:	6073      	str	r3, [r6, #4]
 80042ac:	e7a3      	b.n	80041f6 <chMtxLockS+0x26>
    cp = cp->queue.next;
 80042ae:	4694      	mov	ip, r2
 80042b0:	e7e9      	b.n	8004286 <chMtxLockS+0xb6>
 80042b2:	bf00      	nop
 80042b4:	200012d0 	.word	0x200012d0
	...

080042c0 <chMtxLock>:
void chMtxLock(mutex_t *mp) {
 80042c0:	b508      	push	{r3, lr}
 80042c2:	2320      	movs	r3, #32
 80042c4:	f383 8811 	msr	BASEPRI, r3
  chMtxLockS(mp);
 80042c8:	f7ff ff82 	bl	80041d0 <chMtxLockS>
 80042cc:	2300      	movs	r3, #0
 80042ce:	f383 8811 	msr	BASEPRI, r3
}
 80042d2:	bd08      	pop	{r3, pc}
	...

080042e0 <chSemWait>:
 80042e0:	2320      	movs	r3, #32
 80042e2:	f383 8811 	msr	BASEPRI, r3
  if (--sp->cnt < (cnt_t)0) {
 80042e6:	6883      	ldr	r3, [r0, #8]
 80042e8:	3b01      	subs	r3, #1
 80042ea:	2b00      	cmp	r3, #0
 80042ec:	6083      	str	r3, [r0, #8]
 80042ee:	db04      	blt.n	80042fa <chSemWait+0x1a>
  return MSG_OK;
 80042f0:	2000      	movs	r0, #0
 80042f2:	2300      	movs	r3, #0
 80042f4:	f383 8811 	msr	BASEPRI, r3
}
 80042f8:	4770      	bx	lr
 80042fa:	4603      	mov	r3, r0
msg_t chSemWait(semaphore_t *sp) {
 80042fc:	b510      	push	{r4, lr}
    currp->u.wtsemp = sp;
 80042fe:	4c08      	ldr	r4, [pc, #32]	; (8004320 <chSemWait+0x40>)
    chSchGoSleepS(CH_STATE_WTSEM);
 8004300:	2005      	movs	r0, #5
    currp->u.wtsemp = sp;
 8004302:	69a2      	ldr	r2, [r4, #24]
 8004304:	6253      	str	r3, [r2, #36]	; 0x24
  tp->queue.prev             = tqp->prev;
 8004306:	6859      	ldr	r1, [r3, #4]
 8004308:	e9c2 3100 	strd	r3, r1, [r2]
  tp->queue.prev->queue.next = tp;
 800430c:	600a      	str	r2, [r1, #0]
  tqp->prev                  = tp;
 800430e:	605a      	str	r2, [r3, #4]
    chSchGoSleepS(CH_STATE_WTSEM);
 8004310:	f7fe fec6 	bl	80030a0 <chSchGoSleepS>
    return currp->u.rdymsg;
 8004314:	69a3      	ldr	r3, [r4, #24]
 8004316:	6a58      	ldr	r0, [r3, #36]	; 0x24
 8004318:	2300      	movs	r3, #0
 800431a:	f383 8811 	msr	BASEPRI, r3
}
 800431e:	bd10      	pop	{r4, pc}
 8004320:	200012d0 	.word	0x200012d0
	...

08004330 <rt_test_010_010_execute>:
static void rt_test_010_010_execute(void) {
 8004330:	e92d 43f8 	stmdb	sp!, {r3, r4, r5, r6, r7, r8, r9, lr}
  test_set_step(1);
 8004334:	2301      	movs	r3, #1
 8004336:	f8df 9084 	ldr.w	r9, [pc, #132]	; 80043bc <rt_test_010_010_execute+0x8c>
    n = 0;
 800433a:	2500      	movs	r5, #0
  test_set_step(1);
 800433c:	f8c9 3000 	str.w	r3, [r9]
    start = test_wait_tick();
 8004340:	f7ff fca6 	bl	8003c90 <test_wait_tick>
 8004344:	f04f 4880 	mov.w	r8, #1073741824	; 0x40000000
 8004348:	4607      	mov	r7, r0
  return systime + (systime_t)interval;
 800434a:	f500 66fa 	add.w	r6, r0, #2000	; 0x7d0
 800434e:	b2b6      	uxth	r6, r6
      chSemWait(&sem1);
 8004350:	4c17      	ldr	r4, [pc, #92]	; (80043b0 <rt_test_010_010_execute+0x80>)
 8004352:	1a36      	subs	r6, r6, r0
 8004354:	4620      	mov	r0, r4
 8004356:	f7ff ffc3 	bl	80042e0 <chSemWait>
      chSemSignal(&sem1);
 800435a:	4620      	mov	r0, r4
 800435c:	f7fe fe80 	bl	8003060 <chSemSignal>
      chSemWait(&sem1);
 8004360:	4620      	mov	r0, r4
 8004362:	f7ff ffbd 	bl	80042e0 <chSemWait>
      chSemSignal(&sem1);
 8004366:	4620      	mov	r0, r4
 8004368:	f7fe fe7a 	bl	8003060 <chSemSignal>
      chSemWait(&sem1);
 800436c:	4620      	mov	r0, r4
 800436e:	f7ff ffb7 	bl	80042e0 <chSemWait>
      chSemSignal(&sem1);
 8004372:	4620      	mov	r0, r4
 8004374:	f7fe fe74 	bl	8003060 <chSemSignal>
      chSemWait(&sem1);
 8004378:	4620      	mov	r0, r4
 800437a:	f7ff ffb1 	bl	80042e0 <chSemWait>
      chSemSignal(&sem1);
 800437e:	4620      	mov	r0, r4
 8004380:	f7fe fe6e 	bl	8003060 <chSemSignal>
 8004384:	f8d8 3024 	ldr.w	r3, [r8, #36]	; 0x24
      n++;
 8004388:	3501      	adds	r5, #1
  return (bool)((time - start) < (end - start));
 800438a:	b29b      	uxth	r3, r3
 800438c:	1bdb      	subs	r3, r3, r7
    } while (chVTIsSystemTimeWithinX(start, end));
 800438e:	42b3      	cmp	r3, r6
 8004390:	dbe0      	blt.n	8004354 <rt_test_010_010_execute+0x24>
  test_set_step(2);
 8004392:	2302      	movs	r3, #2
    test_print("--- Score : ");
 8004394:	4807      	ldr	r0, [pc, #28]	; (80043b4 <rt_test_010_010_execute+0x84>)
  test_set_step(2);
 8004396:	f8c9 3000 	str.w	r3, [r9]
    test_print("--- Score : ");
 800439a:	f7fc fbd9 	bl	8000b50 <test_print>
    test_printn(n * 4);
 800439e:	00a8      	lsls	r0, r5, #2
 80043a0:	f7fc fb66 	bl	8000a70 <test_printn>
}
 80043a4:	e8bd 43f8 	ldmia.w	sp!, {r3, r4, r5, r6, r7, r8, r9, lr}
    test_println(" wait+signal/S");
 80043a8:	4803      	ldr	r0, [pc, #12]	; (80043b8 <rt_test_010_010_execute+0x88>)
 80043aa:	f7fc bbb1 	b.w	8000b10 <test_println>
 80043ae:	bf00      	nop
 80043b0:	20001534 	.word	0x20001534
 80043b4:	0800b7c0 	.word	0x0800b7c0
 80043b8:	0800b7ec 	.word	0x0800b7ec
 80043bc:	20001c5c 	.word	0x20001c5c

080043c0 <bmk_thread7>:
static THD_FUNCTION(bmk_thread7, p) {
 80043c0:	b538      	push	{r3, r4, r5, lr}
  return ch.rlist.current;
 80043c2:	4c08      	ldr	r4, [pc, #32]	; (80043e4 <bmk_thread7+0x24>)
  return (bool)((chThdGetSelfX()->flags & CH_FLAG_TERMINATE) != (tmode_t)0);
 80043c4:	69a3      	ldr	r3, [r4, #24]
  while (!chThdShouldTerminateX())
 80043c6:	f893 3021 	ldrb.w	r3, [r3, #33]	; 0x21
 80043ca:	075a      	lsls	r2, r3, #29
 80043cc:	d408      	bmi.n	80043e0 <bmk_thread7+0x20>
    chSemWait(&sem1);
 80043ce:	4d06      	ldr	r5, [pc, #24]	; (80043e8 <bmk_thread7+0x28>)
 80043d0:	4628      	mov	r0, r5
 80043d2:	f7ff ff85 	bl	80042e0 <chSemWait>
 80043d6:	69a3      	ldr	r3, [r4, #24]
  while (!chThdShouldTerminateX())
 80043d8:	f893 3021 	ldrb.w	r3, [r3, #33]	; 0x21
 80043dc:	075b      	lsls	r3, r3, #29
 80043de:	d5f7      	bpl.n	80043d0 <bmk_thread7+0x10>
}
 80043e0:	bd38      	pop	{r3, r4, r5, pc}
 80043e2:	bf00      	nop
 80043e4:	200012d0 	.word	0x200012d0
 80043e8:	20001534 	.word	0x20001534
 80043ec:	00000000 	.word	0x00000000

080043f0 <thread3>:
static THD_FUNCTION(thread3, p) {
 80043f0:	b510      	push	{r4, lr}
  chSemWait(&sem1);
 80043f2:	4c04      	ldr	r4, [pc, #16]	; (8004404 <thread3+0x14>)
 80043f4:	4620      	mov	r0, r4
 80043f6:	f7ff ff73 	bl	80042e0 <chSemWait>
  chSemSignal(&sem1);
 80043fa:	4620      	mov	r0, r4
}
 80043fc:	e8bd 4010 	ldmia.w	sp!, {r4, lr}
  chSemSignal(&sem1);
 8004400:	f7fe be2e 	b.w	8003060 <chSemSignal>
 8004404:	20001528 	.word	0x20001528
	...

08004410 <thread1.lto_priv.114>:
static THD_FUNCTION(thread1, p) {
 8004410:	b510      	push	{r4, lr}
 8004412:	4604      	mov	r4, r0
  chSemWait(&sem1);
 8004414:	4803      	ldr	r0, [pc, #12]	; (8004424 <thread1.lto_priv.114+0x14>)
 8004416:	f7ff ff63 	bl	80042e0 <chSemWait>
  test_emit_token(*(char *)p);
 800441a:	7820      	ldrb	r0, [r4, #0]
}
 800441c:	e8bd 4010 	ldmia.w	sp!, {r4, lr}
  test_emit_token(*(char *)p);
 8004420:	f7fc bb36 	b.w	8000a90 <test_emit_token>
 8004424:	20001528 	.word	0x20001528
	...

08004430 <chThdExitS>:
void chThdExitS(msg_t msg) {
 8004430:	b538      	push	{r3, r4, r5, lr}
  thread_t *tp = currp;
 8004432:	4b10      	ldr	r3, [pc, #64]	; (8004474 <chThdExitS+0x44>)
 8004434:	699c      	ldr	r4, [r3, #24]
  return (bool)(tlp->next != (thread_t *)tlp);
 8004436:	6aa3      	ldr	r3, [r4, #40]	; 0x28
  while (list_notempty(&tp->waiting)) {
 8004438:	f104 0528 	add.w	r5, r4, #40	; 0x28
 800443c:	42ab      	cmp	r3, r5
  tp->u.exitcode = msg;
 800443e:	6260      	str	r0, [r4, #36]	; 0x24
  while (list_notempty(&tp->waiting)) {
 8004440:	d007      	beq.n	8004452 <chThdExitS+0x22>
  tlp->next = tp->queue.next;
 8004442:	681a      	ldr	r2, [r3, #0]
    (void) chSchReadyI(list_remove(&tp->waiting));
 8004444:	4618      	mov	r0, r3
 8004446:	62a2      	str	r2, [r4, #40]	; 0x28
 8004448:	f7fd fb32 	bl	8001ab0 <chSchReadyI>
  return (bool)(tlp->next != (thread_t *)tlp);
 800444c:	6aa3      	ldr	r3, [r4, #40]	; 0x28
  while (list_notempty(&tp->waiting)) {
 800444e:	42ab      	cmp	r3, r5
 8004450:	d1f7      	bne.n	8004442 <chThdExitS+0x12>
  if ((tp->refs == (trefs_t)0) &&
 8004452:	f894 3022 	ldrb.w	r3, [r4, #34]	; 0x22
 8004456:	b943      	cbnz	r3, 800446a <chThdExitS+0x3a>
 8004458:	f894 3021 	ldrb.w	r3, [r4, #33]	; 0x21
 800445c:	079b      	lsls	r3, r3, #30
 800445e:	d104      	bne.n	800446a <chThdExitS+0x3a>
    REG_REMOVE(tp);
 8004460:	e9d4 2304 	ldrd	r2, r3, [r4, #16]
 8004464:	611a      	str	r2, [r3, #16]
 8004466:	6922      	ldr	r2, [r4, #16]
 8004468:	6153      	str	r3, [r2, #20]
  chSchGoSleepS(CH_STATE_FINAL);
 800446a:	200f      	movs	r0, #15
}
 800446c:	e8bd 4038 	ldmia.w	sp!, {r3, r4, r5, lr}
  chSchGoSleepS(CH_STATE_FINAL);
 8004470:	f7fe be16 	b.w	80030a0 <chSchGoSleepS>
 8004474:	200012d0 	.word	0x200012d0
	...

08004480 <shellThread>:
/**
 * @brief   Shell thread function.
 *
 * @param[in] p         pointer to a @p BaseSequentialStream object
 */
THD_FUNCTION(shellThread, p) {
 8004480:	e92d 4ff0 	stmdb	sp!, {r4, r5, r6, r7, r8, r9, sl, fp, lr}
 8004484:	4681      	mov	r9, r0
  int n;
  ShellConfig *scfg = p;
  BaseSequentialStream *chp = scfg->sc_channel;
 8004486:	6807      	ldr	r7, [r0, #0]
  const ShellCommand *scp = scfg->sc_commands;
 8004488:	f8d9 3004 	ldr.w	r3, [r9, #4]
THD_FUNCTION(shellThread, p) {
 800448c:	b09b      	sub	sp, #108	; 0x6c
  ShellHistory *shp = &hist;
#else
  ShellHistory *shp = NULL;
#endif

  chprintf(chp, SHELL_NEWLINE_STR);
 800448e:	4975      	ldr	r1, [pc, #468]	; (8004664 <shellThread+0x1e4>)
 8004490:	4638      	mov	r0, r7
  const ShellCommand *scp = scfg->sc_commands;
 8004492:	9301      	str	r3, [sp, #4]
  chprintf(chp, SHELL_NEWLINE_STR);
 8004494:	f7fd fefc 	bl	8002290 <chprintf>
  chprintf(chp, "ChibiOS/RT Shell"SHELL_NEWLINE_STR);
 8004498:	4638      	mov	r0, r7
 800449a:	4973      	ldr	r1, [pc, #460]	; (8004668 <shellThread+0x1e8>)
 800449c:	f7fd fef8 	bl	8002290 <chprintf>
  while (true) {
    chprintf(chp, SHELL_PROMPT_STR);
 80044a0:	f8df a1f8 	ldr.w	sl, [pc, #504]	; 800469c <shellThread+0x21c>
        p--;
      }
      continue;
    }
    if (c == '\r') {
      chprintf(chp, SHELL_NEWLINE_STR);
 80044a4:	f8df b1bc 	ldr.w	fp, [pc, #444]	; 8004664 <shellThread+0x1e4>
 80044a8:	ae0a      	add	r6, sp, #40	; 0x28
  char *p = line;
 80044aa:	4634      	mov	r4, r6
    chprintf(chp, SHELL_PROMPT_STR);
 80044ac:	4651      	mov	r1, sl
 80044ae:	4638      	mov	r0, r7
 80044b0:	f7fd feee 	bl	8002290 <chprintf>
  BaseSequentialStream *chp = scfg->sc_channel;
 80044b4:	f8d9 5000 	ldr.w	r5, [r9]
 80044b8:	682b      	ldr	r3, [r5, #0]
    if (streamRead(chp, (uint8_t *)&c, 1) == 0)
 80044ba:	685b      	ldr	r3, [r3, #4]
 80044bc:	2201      	movs	r2, #1
 80044be:	f10d 010f 	add.w	r1, sp, #15
 80044c2:	4628      	mov	r0, r5
 80044c4:	4798      	blx	r3
 80044c6:	2800      	cmp	r0, #0
 80044c8:	d06d      	beq.n	80045a6 <shellThread+0x126>
    if (c == 4) {
 80044ca:	f89d 100f 	ldrb.w	r1, [sp, #15]
 80044ce:	2904      	cmp	r1, #4
 80044d0:	d065      	beq.n	800459e <shellThread+0x11e>
    if ((c == 8) || (c == 127)) {
 80044d2:	2908      	cmp	r1, #8
      continue;
    }
#endif
    if (c < 0x20)
      continue;
    if (p < line + size - 1) {
 80044d4:	f10d 0267 	add.w	r2, sp, #103	; 0x67
    if ((c == 8) || (c == 127)) {
 80044d8:	d012      	beq.n	8004500 <shellThread+0x80>
 80044da:	297f      	cmp	r1, #127	; 0x7f
 80044dc:	d010      	beq.n	8004500 <shellThread+0x80>
    if (c == '\r') {
 80044de:	290d      	cmp	r1, #13
 80044e0:	d022      	beq.n	8004528 <shellThread+0xa8>
    if (c < 0x20)
 80044e2:	291f      	cmp	r1, #31
 80044e4:	682b      	ldr	r3, [r5, #0]
 80044e6:	d9e8      	bls.n	80044ba <shellThread+0x3a>
    if (p < line + size - 1) {
 80044e8:	4294      	cmp	r4, r2
 80044ea:	d2e6      	bcs.n	80044ba <shellThread+0x3a>
      streamPut(chp, c);
 80044ec:	689b      	ldr	r3, [r3, #8]
 80044ee:	4628      	mov	r0, r5
 80044f0:	4798      	blx	r3
      *p++ = (char)c;
 80044f2:	f89d 300f 	ldrb.w	r3, [sp, #15]
 80044f6:	3401      	adds	r4, #1
 80044f8:	f804 3c01 	strb.w	r3, [r4, #-1]
 80044fc:	682b      	ldr	r3, [r5, #0]
 80044fe:	e7dc      	b.n	80044ba <shellThread+0x3a>
      if (p != line) {
 8004500:	42b4      	cmp	r4, r6
 8004502:	682b      	ldr	r3, [r5, #0]
 8004504:	d0d9      	beq.n	80044ba <shellThread+0x3a>
        streamPut(chp, 0x08);
 8004506:	689b      	ldr	r3, [r3, #8]
 8004508:	2108      	movs	r1, #8
 800450a:	4628      	mov	r0, r5
 800450c:	4798      	blx	r3
        streamPut(chp, 0x20);
 800450e:	682b      	ldr	r3, [r5, #0]
 8004510:	2120      	movs	r1, #32
 8004512:	689b      	ldr	r3, [r3, #8]
 8004514:	4628      	mov	r0, r5
 8004516:	4798      	blx	r3
        streamPut(chp, 0x08);
 8004518:	682b      	ldr	r3, [r5, #0]
 800451a:	2108      	movs	r1, #8
 800451c:	689b      	ldr	r3, [r3, #8]
 800451e:	4628      	mov	r0, r5
 8004520:	4798      	blx	r3
        p--;
 8004522:	3c01      	subs	r4, #1
 8004524:	682b      	ldr	r3, [r5, #0]
 8004526:	e7c8      	b.n	80044ba <shellThread+0x3a>
      *p = 0;
 8004528:	f04f 0800 	mov.w	r8, #0
      chprintf(chp, SHELL_NEWLINE_STR);
 800452c:	4628      	mov	r0, r5
 800452e:	4659      	mov	r1, fp
 8004530:	f7fd feae 	bl	8002290 <chprintf>
      *p = 0;
 8004534:	f884 8000 	strb.w	r8, [r4]
    lp = parse_arguments(line, &tokp);
 8004538:	a904      	add	r1, sp, #16
 800453a:	4630      	mov	r0, r6
 800453c:	f7fd fe78 	bl	8002230 <parse_arguments>
    n = 0;
 8004540:	4644      	mov	r4, r8
    while ((lp = parse_arguments(NULL, &tokp)) != NULL) {
 8004542:	a904      	add	r1, sp, #16
    lp = parse_arguments(line, &tokp);
 8004544:	4680      	mov	r8, r0
    while ((lp = parse_arguments(NULL, &tokp)) != NULL) {
 8004546:	2000      	movs	r0, #0
 8004548:	ad05      	add	r5, sp, #20
 800454a:	f7fd fe71 	bl	8002230 <parse_arguments>
 800454e:	b150      	cbz	r0, 8004566 <shellThread+0xe6>
      if (n >= SHELL_MAX_ARGUMENTS) {
 8004550:	2c04      	cmp	r4, #4
 8004552:	d01d      	beq.n	8004590 <shellThread+0x110>
      args[n++] = lp;
 8004554:	f845 0b04 	str.w	r0, [r5], #4
    while ((lp = parse_arguments(NULL, &tokp)) != NULL) {
 8004558:	a904      	add	r1, sp, #16
 800455a:	2000      	movs	r0, #0
      args[n++] = lp;
 800455c:	3401      	adds	r4, #1
    while ((lp = parse_arguments(NULL, &tokp)) != NULL) {
 800455e:	f7fd fe67 	bl	8002230 <parse_arguments>
 8004562:	2800      	cmp	r0, #0
 8004564:	d1f4      	bne.n	8004550 <shellThread+0xd0>
    args[n] = NULL;
 8004566:	ab1a      	add	r3, sp, #104	; 0x68
 8004568:	eb03 0384 	add.w	r3, r3, r4, lsl #2
 800456c:	f843 0c54 	str.w	r0, [r3, #-84]
    if (cmd != NULL) {
 8004570:	f1b8 0f00 	cmp.w	r8, #0
 8004574:	d099      	beq.n	80044aa <shellThread+0x2a>
      if (strcmp(cmd, "help") == 0) {
 8004576:	493d      	ldr	r1, [pc, #244]	; (800466c <shellThread+0x1ec>)
 8004578:	4640      	mov	r0, r8
 800457a:	f7fb feeb 	bl	8000354 <strcmp>
 800457e:	2800      	cmp	r0, #0
 8004580:	d147      	bne.n	8004612 <shellThread+0x192>
        if (n > 0) {
 8004582:	b32c      	cbz	r4, 80045d0 <shellThread+0x150>
          shellUsage(chp, "help");
 8004584:	4a39      	ldr	r2, [pc, #228]	; (800466c <shellThread+0x1ec>)
 8004586:	493a      	ldr	r1, [pc, #232]	; (8004670 <shellThread+0x1f0>)
 8004588:	4638      	mov	r0, r7
 800458a:	f7fd fe81 	bl	8002290 <chprintf>
 800458e:	e78c      	b.n	80044aa <shellThread+0x2a>
        chprintf(chp, "too many arguments"SHELL_NEWLINE_STR);
 8004590:	4938      	ldr	r1, [pc, #224]	; (8004674 <shellThread+0x1f4>)
 8004592:	4638      	mov	r0, r7
 8004594:	f7fd fe7c 	bl	8002290 <chprintf>
    args[n] = NULL;
 8004598:	2300      	movs	r3, #0
 800459a:	9309      	str	r3, [sp, #36]	; 0x24
 800459c:	e785      	b.n	80044aa <shellThread+0x2a>
      chprintf(chp, "^D");
 800459e:	4628      	mov	r0, r5
 80045a0:	4935      	ldr	r1, [pc, #212]	; (8004678 <shellThread+0x1f8>)
 80045a2:	f7fd fe75 	bl	8002290 <chprintf>
      chprintf(chp, SHELL_NEWLINE_STR);
 80045a6:	492f      	ldr	r1, [pc, #188]	; (8004664 <shellThread+0x1e4>)
 80045a8:	4638      	mov	r0, r7
 80045aa:	f7fd fe71 	bl	8002290 <chprintf>
      chprintf(chp, "logout");
 80045ae:	4638      	mov	r0, r7
 80045b0:	4932      	ldr	r1, [pc, #200]	; (800467c <shellThread+0x1fc>)
 80045b2:	f7fd fe6d 	bl	8002290 <chprintf>
 80045b6:	2320      	movs	r3, #32
 80045b8:	f383 8811 	msr	BASEPRI, r3
  chEvtBroadcastFlagsI(esp, (eventflags_t)0);
 80045bc:	2100      	movs	r1, #0
 80045be:	4830      	ldr	r0, [pc, #192]	; (8004680 <shellThread+0x200>)
 80045c0:	f7fd fb46 	bl	8001c50 <chEvtBroadcastFlagsI>
  chThdExitS(msg);
 80045c4:	2000      	movs	r0, #0
 80045c6:	f7ff ff33 	bl	8004430 <chThdExitS>
}
 80045ca:	b01b      	add	sp, #108	; 0x6c
 80045cc:	e8bd 8ff0 	ldmia.w	sp!, {r4, r5, r6, r7, r8, r9, sl, fp, pc}
        chprintf(chp, "Commands: help ");
 80045d0:	492c      	ldr	r1, [pc, #176]	; (8004684 <shellThread+0x204>)
 80045d2:	4638      	mov	r0, r7
 80045d4:	f7fd fe5c 	bl	8002290 <chprintf>
 80045d8:	4c2b      	ldr	r4, [pc, #172]	; (8004688 <shellThread+0x208>)
  while (scp->sc_name != NULL) {
 80045da:	4a2c      	ldr	r2, [pc, #176]	; (800468c <shellThread+0x20c>)
    chprintf(chp, "%s ", scp->sc_name);
 80045dc:	4d2c      	ldr	r5, [pc, #176]	; (8004690 <shellThread+0x210>)
 80045de:	4629      	mov	r1, r5
 80045e0:	4638      	mov	r0, r7
 80045e2:	f7fd fe55 	bl	8002290 <chprintf>
  while (scp->sc_name != NULL) {
 80045e6:	f854 2f08 	ldr.w	r2, [r4, #8]!
 80045ea:	2a00      	cmp	r2, #0
 80045ec:	d1f7      	bne.n	80045de <shellThread+0x15e>
        if (scp != NULL)
 80045ee:	9c01      	ldr	r4, [sp, #4]
 80045f0:	b154      	cbz	r4, 8004608 <shellThread+0x188>
  while (scp->sc_name != NULL) {
 80045f2:	6822      	ldr	r2, [r4, #0]
 80045f4:	b142      	cbz	r2, 8004608 <shellThread+0x188>
    chprintf(chp, "%s ", scp->sc_name);
 80045f6:	4d26      	ldr	r5, [pc, #152]	; (8004690 <shellThread+0x210>)
 80045f8:	4629      	mov	r1, r5
 80045fa:	4638      	mov	r0, r7
 80045fc:	f7fd fe48 	bl	8002290 <chprintf>
  while (scp->sc_name != NULL) {
 8004600:	f854 2f08 	ldr.w	r2, [r4, #8]!
 8004604:	2a00      	cmp	r2, #0
 8004606:	d1f7      	bne.n	80045f8 <shellThread+0x178>
        chprintf(chp, SHELL_NEWLINE_STR);
 8004608:	4659      	mov	r1, fp
 800460a:	4638      	mov	r0, r7
 800460c:	f7fd fe40 	bl	8002290 <chprintf>
 8004610:	e74b      	b.n	80044aa <shellThread+0x2a>
 8004612:	4d1d      	ldr	r5, [pc, #116]	; (8004688 <shellThread+0x208>)
  while (scp->sc_name != NULL) {
 8004614:	481d      	ldr	r0, [pc, #116]	; (800468c <shellThread+0x20c>)
 8004616:	e002      	b.n	800461e <shellThread+0x19e>
 8004618:	f855 0f08 	ldr.w	r0, [r5, #8]!
 800461c:	b150      	cbz	r0, 8004634 <shellThread+0x1b4>
    if (strcmp(scp->sc_name, name) == 0) {
 800461e:	4641      	mov	r1, r8
 8004620:	f7fb fe98 	bl	8000354 <strcmp>
 8004624:	2800      	cmp	r0, #0
 8004626:	d1f7      	bne.n	8004618 <shellThread+0x198>
      scp->sc_function(chp, argc, argv);
 8004628:	686b      	ldr	r3, [r5, #4]
 800462a:	aa05      	add	r2, sp, #20
 800462c:	4621      	mov	r1, r4
 800462e:	4638      	mov	r0, r7
 8004630:	4798      	blx	r3
 8004632:	e73a      	b.n	80044aa <shellThread+0x2a>
      else if (cmdexec(shell_local_commands, chp, cmd, n, args) &&
 8004634:	9d01      	ldr	r5, [sp, #4]
 8004636:	b15d      	cbz	r5, 8004650 <shellThread+0x1d0>
  while (scp->sc_name != NULL) {
 8004638:	6828      	ldr	r0, [r5, #0]
 800463a:	b918      	cbnz	r0, 8004644 <shellThread+0x1c4>
 800463c:	e008      	b.n	8004650 <shellThread+0x1d0>
 800463e:	f855 0f08 	ldr.w	r0, [r5, #8]!
 8004642:	b128      	cbz	r0, 8004650 <shellThread+0x1d0>
    if (strcmp(scp->sc_name, name) == 0) {
 8004644:	4641      	mov	r1, r8
 8004646:	f7fb fe85 	bl	8000354 <strcmp>
 800464a:	2800      	cmp	r0, #0
 800464c:	d1f7      	bne.n	800463e <shellThread+0x1be>
 800464e:	e7eb      	b.n	8004628 <shellThread+0x1a8>
        chprintf(chp, "%s", cmd);
 8004650:	4642      	mov	r2, r8
 8004652:	4910      	ldr	r1, [pc, #64]	; (8004694 <shellThread+0x214>)
 8004654:	4638      	mov	r0, r7
 8004656:	f7fd fe1b 	bl	8002290 <chprintf>
        chprintf(chp, " ?"SHELL_NEWLINE_STR);
 800465a:	490f      	ldr	r1, [pc, #60]	; (8004698 <shellThread+0x218>)
 800465c:	4638      	mov	r0, r7
 800465e:	f7fd fe17 	bl	8002290 <chprintf>
 8004662:	e722      	b.n	80044aa <shellThread+0x2a>
 8004664:	0800ba48 	.word	0x0800ba48
 8004668:	0800ba38 	.word	0x0800ba38
 800466c:	0800ba78 	.word	0x0800ba78
 8004670:	0800a22c 	.word	0x0800a22c
 8004674:	0800ba60 	.word	0x0800ba60
 8004678:	0800ba54 	.word	0x0800ba54
 800467c:	0800ba58 	.word	0x0800ba58
 8004680:	20001540 	.word	0x20001540
 8004684:	0800ba80 	.word	0x0800ba80
 8004688:	0800baa0 	.word	0x0800baa0
 800468c:	0800ba30 	.word	0x0800ba30
 8004690:	0800ba90 	.word	0x0800ba90
 8004694:	0800ba94 	.word	0x0800ba94
 8004698:	0800ba98 	.word	0x0800ba98
 800469c:	0800ba4c 	.word	0x0800ba4c

080046a0 <cmd_exit>:
  if (argc > 0) {
 80046a0:	2900      	cmp	r1, #0
 80046a2:	dd03      	ble.n	80046ac <cmd_exit+0xc>
    shellUsage(chp, "exit");
 80046a4:	4a08      	ldr	r2, [pc, #32]	; (80046c8 <cmd_exit+0x28>)
 80046a6:	4909      	ldr	r1, [pc, #36]	; (80046cc <cmd_exit+0x2c>)
 80046a8:	f7fd bdf2 	b.w	8002290 <chprintf>
static void cmd_exit(BaseSequentialStream *chp, int argc, char *argv[]) {
 80046ac:	b508      	push	{r3, lr}
 80046ae:	2320      	movs	r3, #32
 80046b0:	f383 8811 	msr	BASEPRI, r3
 80046b4:	4806      	ldr	r0, [pc, #24]	; (80046d0 <cmd_exit+0x30>)
 80046b6:	2100      	movs	r1, #0
 80046b8:	f7fd faca 	bl	8001c50 <chEvtBroadcastFlagsI>
}
 80046bc:	e8bd 4008 	ldmia.w	sp!, {r3, lr}
  chThdExitS(msg);
 80046c0:	2000      	movs	r0, #0
 80046c2:	f7ff beb5 	b.w	8004430 <chThdExitS>
 80046c6:	bf00      	nop
 80046c8:	0800ba30 	.word	0x0800ba30
 80046cc:	0800a22c 	.word	0x0800a22c
 80046d0:	20001540 	.word	0x20001540
	...

080046e0 <__early_init>:
void stm32_clock_init(void) {

#if !STM32_NO_INIT
  /* HSI setup, it enforces the reset situation in order to handle possible
     problems with JTAG probes and re-initializations.*/
  RCC->CR |= RCC_CR_HSION;                  /* Make sure HSI is ON.         */
 80046e0:	4b1b      	ldr	r3, [pc, #108]	; (8004750 <__early_init+0x70>)
  while (!(RCC->CR & RCC_CR_HSIRDY))
 80046e2:	461a      	mov	r2, r3
  RCC->CR |= RCC_CR_HSION;                  /* Make sure HSI is ON.         */
 80046e4:	6819      	ldr	r1, [r3, #0]
 80046e6:	f041 0101 	orr.w	r1, r1, #1
 80046ea:	6019      	str	r1, [r3, #0]
  while (!(RCC->CR & RCC_CR_HSIRDY))
 80046ec:	6813      	ldr	r3, [r2, #0]
 80046ee:	0798      	lsls	r0, r3, #30
 80046f0:	d5fc      	bpl.n	80046ec <__early_init+0xc>
    ;                                       /* Wait until HSI is stable.    */
  RCC->CR &= RCC_CR_HSITRIM | RCC_CR_HSION; /* CR Reset value.              */
  RCC->CFGR = 0;                            /* CFGR reset value.            */
 80046f2:	2000      	movs	r0, #0
  RCC->CR &= RCC_CR_HSITRIM | RCC_CR_HSION; /* CR Reset value.              */
 80046f4:	6813      	ldr	r3, [r2, #0]
  while ((RCC->CFGR & RCC_CFGR_SWS) != RCC_CFGR_SWS_HSI)
 80046f6:	4916      	ldr	r1, [pc, #88]	; (8004750 <__early_init+0x70>)
  RCC->CR &= RCC_CR_HSITRIM | RCC_CR_HSION; /* CR Reset value.              */
 80046f8:	f003 03f9 	and.w	r3, r3, #249	; 0xf9
 80046fc:	6013      	str	r3, [r2, #0]
  RCC->CFGR = 0;                            /* CFGR reset value.            */
 80046fe:	6050      	str	r0, [r2, #4]
  while ((RCC->CFGR & RCC_CFGR_SWS) != RCC_CFGR_SWS_HSI)
 8004700:	684b      	ldr	r3, [r1, #4]
 8004702:	f013 0f0c 	tst.w	r3, #12
 8004706:	d1fb      	bne.n	8004700 <__early_init+0x20>
#if defined(STM32_HSE_BYPASS)
  /* HSE Bypass.*/
  RCC->CR |= RCC_CR_HSEON | RCC_CR_HSEBYP;
#endif
  /* HSE activation.*/
  RCC->CR |= RCC_CR_HSEON;
 8004708:	680b      	ldr	r3, [r1, #0]
  while (!(RCC->CR & RCC_CR_HSERDY))
 800470a:	4a11      	ldr	r2, [pc, #68]	; (8004750 <__early_init+0x70>)
  RCC->CR |= RCC_CR_HSEON;
 800470c:	f443 3380 	orr.w	r3, r3, #65536	; 0x10000
 8004710:	600b      	str	r3, [r1, #0]
  while (!(RCC->CR & RCC_CR_HSERDY))
 8004712:	6813      	ldr	r3, [r2, #0]
 8004714:	0399      	lsls	r1, r3, #14
 8004716:	d5fc      	bpl.n	8004712 <__early_init+0x32>
    ;                                       /* Waits until LSI is stable.   */
#endif

#if STM32_ACTIVATE_PLL
  /* PLL activation.*/
  RCC->CFGR |= STM32_PLLMUL | STM32_PLLXTPRE | STM32_PLLSRC;
 8004718:	6853      	ldr	r3, [r2, #4]
  RCC->CR   |= RCC_CR_PLLON;
  while (!(RCC->CR & RCC_CR_PLLRDY))
 800471a:	490d      	ldr	r1, [pc, #52]	; (8004750 <__early_init+0x70>)
  RCC->CFGR |= STM32_PLLMUL | STM32_PLLXTPRE | STM32_PLLSRC;
 800471c:	f443 13e8 	orr.w	r3, r3, #1900544	; 0x1d0000
 8004720:	6053      	str	r3, [r2, #4]
  RCC->CR   |= RCC_CR_PLLON;
 8004722:	6813      	ldr	r3, [r2, #0]
 8004724:	f043 7380 	orr.w	r3, r3, #16777216	; 0x1000000
 8004728:	6013      	str	r3, [r2, #0]
  while (!(RCC->CR & RCC_CR_PLLRDY))
 800472a:	680b      	ldr	r3, [r1, #0]
 800472c:	019b      	lsls	r3, r3, #6
 800472e:	d5fc      	bpl.n	800472a <__early_init+0x4a>
              STM32_PLLSRC | STM32_ADCPRE | STM32_PPRE2  | STM32_PPRE1    |
              STM32_HPRE;
#endif

  /* Flash setup and final clock selection.   */
  FLASH->ACR = STM32_FLASHBITS;
 8004730:	2212      	movs	r2, #18
 8004732:	4b08      	ldr	r3, [pc, #32]	; (8004754 <__early_init+0x74>)
  RCC->CFGR = STM32_MCOSEL | STM32_USBPRE | STM32_PLLMUL | STM32_PLLXTPRE |
 8004734:	4808      	ldr	r0, [pc, #32]	; (8004758 <__early_init+0x78>)
 8004736:	6048      	str	r0, [r1, #4]
  FLASH->ACR = STM32_FLASHBITS;
 8004738:	601a      	str	r2, [r3, #0]

  /* Switching to the configured clock source if it is different from HSI.*/
#if (STM32_SW != STM32_SW_HSI)
  /* Switches clock source.*/
  RCC->CFGR |= STM32_SW;
 800473a:	684b      	ldr	r3, [r1, #4]
  while ((RCC->CFGR & RCC_CFGR_SWS) != (STM32_SW << 2))
 800473c:	4a04      	ldr	r2, [pc, #16]	; (8004750 <__early_init+0x70>)
  RCC->CFGR |= STM32_SW;
 800473e:	f043 0302 	orr.w	r3, r3, #2
 8004742:	604b      	str	r3, [r1, #4]
  while ((RCC->CFGR & RCC_CFGR_SWS) != (STM32_SW << 2))
 8004744:	6853      	ldr	r3, [r2, #4]
 8004746:	f003 030c 	and.w	r3, r3, #12
 800474a:	2b08      	cmp	r3, #8
 800474c:	d1fa      	bne.n	8004744 <__early_init+0x64>
 * any other initialization.
 */
void __early_init(void) {

  stm32_clock_init();
}
 800474e:	4770      	bx	lr
 8004750:	40021000 	.word	0x40021000
 8004754:	40022000 	.word	0x40022000
 8004758:	001d6400 	.word	0x001d6400
 800475c:	00000000 	.word	0x00000000

08004760 <Vector90>:
OSAL_IRQ_HANDLER(STM32_USB1_LP_HANDLER) {
 8004760:	e92d 4ff0 	stmdb	sp!, {r4, r5, r6, r7, r8, r9, sl, fp, lr}
  istr = STM32_USB->ISTR;
 8004764:	4bc2      	ldr	r3, [pc, #776]	; (8004a70 <Vector90+0x310>)
OSAL_IRQ_HANDLER(STM32_USB1_LP_HANDLER) {
 8004766:	b085      	sub	sp, #20
  istr = STM32_USB->ISTR;
 8004768:	6c5c      	ldr	r4, [r3, #68]	; 0x44
  if (istr & ISTR_RESET) {
 800476a:	0567      	lsls	r7, r4, #21
 800476c:	f100 80ac 	bmi.w	80048c8 <Vector90+0x168>
  if (istr & ISTR_SUSP) {
 8004770:	0526      	lsls	r6, r4, #20
 8004772:	f100 80cf 	bmi.w	8004914 <Vector90+0x1b4>
  if (istr & ISTR_WKUP) {
 8004776:	04e5      	lsls	r5, r4, #19
 8004778:	d508      	bpl.n	800478c <Vector90+0x2c>
    uint32_t fnr = STM32_USB->FNR;
 800477a:	4bbd      	ldr	r3, [pc, #756]	; (8004a70 <Vector90+0x310>)
 800477c:	6c9a      	ldr	r2, [r3, #72]	; 0x48
    if (!(fnr & FNR_RXDP)) {
 800477e:	0410      	lsls	r0, r2, #16
 8004780:	f140 814f 	bpl.w	8004a22 <Vector90+0x2c2>
    STM32_USB->ISTR = ~ISTR_WKUP;
 8004784:	f46f 5280 	mvn.w	r2, #4096	; 0x1000
 8004788:	4bb9      	ldr	r3, [pc, #740]	; (8004a70 <Vector90+0x310>)
 800478a:	645a      	str	r2, [r3, #68]	; 0x44
  if (istr & ISTR_SOF) {
 800478c:	05a1      	lsls	r1, r4, #22
 800478e:	d50b      	bpl.n	80047a8 <Vector90+0x48>
    _usb_isr_invoke_sof_cb(usbp);
 8004790:	f8df a2e0 	ldr.w	sl, [pc, #736]	; 8004a74 <Vector90+0x314>
 8004794:	f8da 3004 	ldr.w	r3, [sl, #4]
 8004798:	68db      	ldr	r3, [r3, #12]
 800479a:	b10b      	cbz	r3, 80047a0 <Vector90+0x40>
 800479c:	4650      	mov	r0, sl
 800479e:	4798      	blx	r3
    STM32_USB->ISTR = ~ISTR_SOF;
 80047a0:	f46f 7200 	mvn.w	r2, #512	; 0x200
 80047a4:	4bb2      	ldr	r3, [pc, #712]	; (8004a70 <Vector90+0x310>)
 80047a6:	645a      	str	r2, [r3, #68]	; 0x44
  while (istr & ISTR_CTR) {
 80047a8:	0423      	lsls	r3, r4, #16
 80047aa:	d579      	bpl.n	80048a0 <Vector90+0x140>
 80047ac:	f8df a2c4 	ldr.w	sl, [pc, #708]	; 8004a74 <Vector90+0x314>
  stm32_usb_descriptor_t *udp = USB_GET_DESCRIPTOR(ep);
 80047b0:	f8df b2bc 	ldr.w	fp, [pc, #700]	; 8004a70 <Vector90+0x310>
    usb_serve_endpoints(usbp, istr & ISTR_EP_ID_MASK);
 80047b4:	f004 040f 	and.w	r4, r4, #15
 80047b8:	00a5      	lsls	r5, r4, #2
 80047ba:	f105 4580 	add.w	r5, r5, #1073741824	; 0x40000000
 80047be:	f505 45b8 	add.w	r5, r5, #23552	; 0x5c00
  uint32_t epr = STM32_USB->EPR[ep];
 80047c2:	f8d5 8000 	ldr.w	r8, [r5]
  const USBEndpointConfig *epcp = usbp->epc[ep];
 80047c6:	1ca6      	adds	r6, r4, #2
 80047c8:	eb0a 0386 	add.w	r3, sl, r6, lsl #2
  if (epr & EPR_CTR_TX) {
 80047cc:	f018 0f80 	tst.w	r8, #128	; 0x80
  const USBEndpointConfig *epcp = usbp->epc[ep];
 80047d0:	685f      	ldr	r7, [r3, #4]
  if (epr & EPR_CTR_TX) {
 80047d2:	d04c      	beq.n	800486e <Vector90+0x10e>
    USBInEndpointState *isp = epcp->in_state;
 80047d4:	f8d7 c014 	ldr.w	ip, [r7, #20]
    EPR_CLEAR_CTR_TX(ep);
 80047d8:	682a      	ldr	r2, [r5, #0]
    isp->txcnt += isp->txlast;
 80047da:	f8dc 3004 	ldr.w	r3, [ip, #4]
 80047de:	f8dc 100c 	ldr.w	r1, [ip, #12]
    n = isp->txsize - isp->txcnt;
 80047e2:	f8dc 0000 	ldr.w	r0, [ip]
    EPR_CLEAR_CTR_TX(ep);
 80047e6:	f422 4278 	bic.w	r2, r2, #63488	; 0xf800
    isp->txcnt += isp->txlast;
 80047ea:	440b      	add	r3, r1
    EPR_CLEAR_CTR_TX(ep);
 80047ec:	f022 02f0 	bic.w	r2, r2, #240	; 0xf0
 80047f0:	f442 4200 	orr.w	r2, r2, #32768	; 0x8000
    if (n > 0) {
 80047f4:	1ac0      	subs	r0, r0, r3
    EPR_CLEAR_CTR_TX(ep);
 80047f6:	602a      	str	r2, [r5, #0]
    isp->txcnt += isp->txlast;
 80047f8:	f8cc 3004 	str.w	r3, [ip, #4]
    if (n > 0) {
 80047fc:	d055      	beq.n	80048aa <Vector90+0x14a>
      if (n > epcp->in_maxsize)
 80047fe:	8a3b      	ldrh	r3, [r7, #16]
  stm32_usb_descriptor_t *udp = USB_GET_DESCRIPTOR(ep);
 8004800:	ea4f 1e04 	mov.w	lr, r4, lsl #4
 8004804:	4298      	cmp	r0, r3
 8004806:	bf28      	it	cs
 8004808:	4618      	movcs	r0, r3
      isp->txlast = n;
 800480a:	f8cc 000c 	str.w	r0, [ip, #12]
  stm32_usb_descriptor_t *udp = USB_GET_DESCRIPTOR(ep);
 800480e:	f8db 2050 	ldr.w	r2, [fp, #80]	; 0x50
      isp->txbuf += isp->txlast;
 8004812:	f8dc 3008 	ldr.w	r3, [ip, #8]
  stm32_usb_descriptor_t *udp = USB_GET_DESCRIPTOR(ep);
 8004816:	f102 4980 	add.w	r9, r2, #1073741824	; 0x40000000
 800481a:	f509 49c0 	add.w	r9, r9, #24576	; 0x6000
  stm32_usb_pma_t *pmap = USB_ADDR2PTR(udp->TXADDR0);
 800481e:	f85e 2009 	ldr.w	r2, [lr, r9]
      isp->txbuf += isp->txlast;
 8004822:	4419      	add	r1, r3
  stm32_usb_pma_t *pmap = USB_ADDR2PTR(udp->TXADDR0);
 8004824:	f102 5200 	add.w	r2, r2, #536870912	; 0x20000000
  stm32_usb_descriptor_t *udp = USB_GET_DESCRIPTOR(ep);
 8004828:	44ce      	add	lr, r9
  stm32_usb_pma_t *pmap = USB_ADDR2PTR(udp->TXADDR0);
 800482a:	f502 5240 	add.w	r2, r2, #12288	; 0x3000
      isp->txbuf += isp->txlast;
 800482e:	f8cc 1008 	str.w	r1, [ip, #8]
  stm32_usb_pma_t *pmap = USB_ADDR2PTR(udp->TXADDR0);
 8004832:	0052      	lsls	r2, r2, #1
  udp->TXCOUNT0 = (stm32_usb_pma_t)n;
 8004834:	f8ce 0004 	str.w	r0, [lr, #4]
  while (i > 0) {
 8004838:	b168      	cbz	r0, 8004856 <Vector90+0xf6>
 800483a:	3801      	subs	r0, #1
 800483c:	0840      	lsrs	r0, r0, #1
 800483e:	1d13      	adds	r3, r2, #4
 8004840:	eb03 0080 	add.w	r0, r3, r0, lsl #2
 8004844:	4684      	mov	ip, r0
 8004846:	e000      	b.n	800484a <Vector90+0xea>
 8004848:	3304      	adds	r3, #4
    w |= *buf++ << 8;
 800484a:	f831 0b02 	ldrh.w	r0, [r1], #2
  while (i > 0) {
 800484e:	4563      	cmp	r3, ip
    *pmap++ = (stm32_usb_pma_t)w;
 8004850:	6010      	str	r0, [r2, #0]
 8004852:	461a      	mov	r2, r3
  while (i > 0) {
 8004854:	d1f8      	bne.n	8004848 <Vector90+0xe8>
      EPR_SET_STAT_TX(ep, EPR_STAT_TX_VALID);
 8004856:	682b      	ldr	r3, [r5, #0]
 8004858:	f423 43f0 	bic.w	r3, r3, #30720	; 0x7800
 800485c:	f023 0340 	bic.w	r3, r3, #64	; 0x40
 8004860:	f083 0330 	eor.w	r3, r3, #48	; 0x30
 8004864:	f443 4300 	orr.w	r3, r3, #32768	; 0x8000
 8004868:	f043 0380 	orr.w	r3, r3, #128	; 0x80
 800486c:	602b      	str	r3, [r5, #0]
  if (epr & EPR_CTR_RX) {
 800486e:	f418 4f00 	tst.w	r8, #32768	; 0x8000
 8004872:	d011      	beq.n	8004898 <Vector90+0x138>
    EPR_CLEAR_CTR_RX(ep);
 8004874:	682b      	ldr	r3, [r5, #0]
    if (epr & EPR_SETUP) {
 8004876:	f418 6f00 	tst.w	r8, #2048	; 0x800
    EPR_CLEAR_CTR_RX(ep);
 800487a:	f423 4378 	bic.w	r3, r3, #63488	; 0xf800
 800487e:	f023 03f0 	bic.w	r3, r3, #240	; 0xf0
 8004882:	f043 0380 	orr.w	r3, r3, #128	; 0x80
 8004886:	b2e1      	uxtb	r1, r4
 8004888:	602b      	str	r3, [r5, #0]
    if (epr & EPR_SETUP) {
 800488a:	d05e      	beq.n	800494a <Vector90+0x1ea>
      _usb_isr_invoke_setup_cb(usbp, ep);
 800488c:	eb0a 0686 	add.w	r6, sl, r6, lsl #2
 8004890:	6873      	ldr	r3, [r6, #4]
 8004892:	4878      	ldr	r0, [pc, #480]	; (8004a74 <Vector90+0x314>)
 8004894:	685b      	ldr	r3, [r3, #4]
 8004896:	4798      	blx	r3
    istr = STM32_USB->ISTR;
 8004898:	f8db 4044 	ldr.w	r4, [fp, #68]	; 0x44
  while (istr & ISTR_CTR) {
 800489c:	0422      	lsls	r2, r4, #16
 800489e:	d489      	bmi.n	80047b4 <Vector90+0x54>
}
 80048a0:	b005      	add	sp, #20
 80048a2:	e8bd 4ff0 	ldmia.w	sp!, {r4, r5, r6, r7, r8, r9, sl, fp, lr}
  OSAL_IRQ_EPILOGUE();
 80048a6:	f7fc bef3 	b.w	8001690 <_port_irq_epilogue>
      _usb_isr_invoke_in_cb(usbp, ep);
 80048aa:	2101      	movs	r1, #1
 80048ac:	f8ba 3008 	ldrh.w	r3, [sl, #8]
 80048b0:	40a1      	lsls	r1, r4
 80048b2:	68ba      	ldr	r2, [r7, #8]
 80048b4:	ea23 0301 	bic.w	r3, r3, r1
 80048b8:	f8aa 3008 	strh.w	r3, [sl, #8]
 80048bc:	2a00      	cmp	r2, #0
 80048be:	d0d6      	beq.n	800486e <Vector90+0x10e>
 80048c0:	4621      	mov	r1, r4
 80048c2:	486c      	ldr	r0, [pc, #432]	; (8004a74 <Vector90+0x314>)
 80048c4:	4790      	blx	r2
 80048c6:	e7d2      	b.n	800486e <Vector90+0x10e>
    STM32_USB->ISTR = ~ISTR_RESET;
 80048c8:	f46f 6180 	mvn.w	r1, #1024	; 0x400
  usbp->status        = 0;
 80048cc:	2500      	movs	r5, #0
  usbp->state         = USB_READY;
 80048ce:	2202      	movs	r2, #2
 80048d0:	f8df a1a0 	ldr.w	sl, [pc, #416]	; 8004a74 <Vector90+0x314>
 80048d4:	6459      	str	r1, [r3, #68]	; 0x44
  usb_lld_reset(usbp);
 80048d6:	4650      	mov	r0, sl
  usbp->state         = USB_READY;
 80048d8:	f88a 2000 	strb.w	r2, [sl]
  usbp->status        = 0;
 80048dc:	f8ca 507c 	str.w	r5, [sl, #124]	; 0x7c
  usbp->receiving     = 0;
 80048e0:	e9ca 5502 	strd	r5, r5, [sl, #8]
    usbp->epc[i] = NULL;
 80048e4:	e9ca 5504 	strd	r5, r5, [sl, #16]
 80048e8:	e9ca 5506 	strd	r5, r5, [sl, #24]
 80048ec:	e9ca 5508 	strd	r5, r5, [sl, #32]
 80048f0:	f8ca 5028 	str.w	r5, [sl, #40]	; 0x28
  usbp->ep0state = USB_EP0_STP_WAITING;
 80048f4:	f88a 5064 	strb.w	r5, [sl, #100]	; 0x64
  usb_lld_reset(usbp);
 80048f8:	f7fc fa82 	bl	8000e00 <usb_lld_reset>
  _usb_isr_invoke_event_cb(usbp, USB_EVENT_RESET);
 80048fc:	f8da 3004 	ldr.w	r3, [sl, #4]
 8004900:	681b      	ldr	r3, [r3, #0]
 8004902:	2b00      	cmp	r3, #0
 8004904:	f43f af34 	beq.w	8004770 <Vector90+0x10>
 8004908:	4629      	mov	r1, r5
 800490a:	4650      	mov	r0, sl
 800490c:	4798      	blx	r3
  if (istr & ISTR_SUSP) {
 800490e:	0526      	lsls	r6, r4, #20
 8004910:	f57f af31 	bpl.w	8004776 <Vector90+0x16>
    STM32_USB->ISTR = ~ISTR_SUSP;
 8004914:	f46f 6000 	mvn.w	r0, #2048	; 0x800
  usbp->state       = USB_SUSPENDED;
 8004918:	2105      	movs	r1, #5
    STM32_USB->CNTR |= CNTR_FSUSP;
 800491a:	4b55      	ldr	r3, [pc, #340]	; (8004a70 <Vector90+0x310>)
  usbp->saved_state = usbp->state;
 800491c:	f8df a154 	ldr.w	sl, [pc, #340]	; 8004a74 <Vector90+0x314>
 8004920:	6c1a      	ldr	r2, [r3, #64]	; 0x40
 8004922:	f042 0208 	orr.w	r2, r2, #8
 8004926:	641a      	str	r2, [r3, #64]	; 0x40
    STM32_USB->ISTR = ~ISTR_SUSP;
 8004928:	6458      	str	r0, [r3, #68]	; 0x44
 800492a:	f89a 2000 	ldrb.w	r2, [sl]
  _usb_isr_invoke_event_cb(usbp, USB_EVENT_SUSPEND);
 800492e:	f8da 3004 	ldr.w	r3, [sl, #4]
  usbp->saved_state = usbp->state;
 8004932:	f88a 2080 	strb.w	r2, [sl, #128]	; 0x80
  usbp->state       = USB_SUSPENDED;
 8004936:	f88a 1000 	strb.w	r1, [sl]
  _usb_isr_invoke_event_cb(usbp, USB_EVENT_SUSPEND);
 800493a:	681b      	ldr	r3, [r3, #0]
 800493c:	2b00      	cmp	r3, #0
 800493e:	f43f af1a 	beq.w	8004776 <Vector90+0x16>
 8004942:	4650      	mov	r0, sl
 8004944:	2104      	movs	r1, #4
 8004946:	4798      	blx	r3
 8004948:	e715      	b.n	8004776 <Vector90+0x16>
  stm32_usb_descriptor_t *udp = USB_GET_DESCRIPTOR(ep);
 800494a:	f8db 3050 	ldr.w	r3, [fp, #80]	; 0x50
      USBOutEndpointState *osp = epcp->out_state;
 800494e:	f8d7 e018 	ldr.w	lr, [r7, #24]
  stm32_usb_descriptor_t *udp = USB_GET_DESCRIPTOR(ep);
 8004952:	f103 4380 	add.w	r3, r3, #1073741824	; 0x40000000
 8004956:	f503 43c0 	add.w	r3, r3, #24576	; 0x6000
 800495a:	eb03 1304 	add.w	r3, r3, r4, lsl #4
  stm32_usb_pma_t *pmap = USB_ADDR2PTR(udp->RXADDR0);
 800495e:	689a      	ldr	r2, [r3, #8]
  n = (size_t)udp->RXCOUNT0 & RXCOUNT_COUNT_MASK;
 8004960:	68d8      	ldr	r0, [r3, #12]
  stm32_usb_pma_t *pmap = USB_ADDR2PTR(udp->RXADDR0);
 8004962:	f102 5300 	add.w	r3, r2, #536870912	; 0x20000000
  n = (size_t)udp->RXCOUNT0 & RXCOUNT_COUNT_MASK;
 8004966:	f3c0 0909 	ubfx	r9, r0, #0, #10
 800496a:	9002      	str	r0, [sp, #8]
  stm32_usb_pma_t *pmap = USB_ADDR2PTR(udp->RXADDR0);
 800496c:	f503 5340 	add.w	r3, r3, #12288	; 0x3000
      n = usb_packet_read_to_buffer(ep, osp->rxbuf);
 8004970:	f8de 0008 	ldr.w	r0, [lr, #8]
  stm32_usb_pma_t *pmap = USB_ADDR2PTR(udp->RXADDR0);
 8004974:	005b      	lsls	r3, r3, #1
  while (i >= 2) {
 8004976:	f1b9 0f01 	cmp.w	r9, #1
  stm32_usb_pma_t *pmap = USB_ADDR2PTR(udp->RXADDR0);
 800497a:	461a      	mov	r2, r3
 800497c:	9300      	str	r3, [sp, #0]
      n = usb_packet_read_to_buffer(ep, osp->rxbuf);
 800497e:	9001      	str	r0, [sp, #4]
  while (i >= 2) {
 8004980:	d972      	bls.n	8004a68 <Vector90+0x308>
 8004982:	f1a9 0302 	sub.w	r3, r9, #2
 8004986:	085b      	lsrs	r3, r3, #1
 8004988:	f102 0804 	add.w	r8, r2, #4
 800498c:	9303      	str	r3, [sp, #12]
 800498e:	eb08 0883 	add.w	r8, r8, r3, lsl #2
 8004992:	1c83      	adds	r3, r0, #2
    uint32_t w = *pmap++;
 8004994:	6810      	ldr	r0, [r2, #0]
 8004996:	3204      	adds	r2, #4
    *buf++ = (uint8_t)(w >> 8);
 8004998:	ea4f 2c10 	mov.w	ip, r0, lsr #8
  while (i >= 2) {
 800499c:	4590      	cmp	r8, r2
    *buf++ = (uint8_t)w;
 800499e:	f803 0c02 	strb.w	r0, [r3, #-2]
    *buf++ = (uint8_t)(w >> 8);
 80049a2:	f803 cc01 	strb.w	ip, [r3, #-1]
 80049a6:	f103 0302 	add.w	r3, r3, #2
  while (i >= 2) {
 80049aa:	d1f3      	bne.n	8004994 <Vector90+0x234>
 80049ac:	9b03      	ldr	r3, [sp, #12]
 80049ae:	9a00      	ldr	r2, [sp, #0]
 80049b0:	3301      	adds	r3, #1
 80049b2:	eb02 0283 	add.w	r2, r2, r3, lsl #2
 80049b6:	9200      	str	r2, [sp, #0]
 80049b8:	9a01      	ldr	r2, [sp, #4]
 80049ba:	eb02 0343 	add.w	r3, r2, r3, lsl #1
 80049be:	9301      	str	r3, [sp, #4]
 80049c0:	9b02      	ldr	r3, [sp, #8]
 80049c2:	f003 0301 	and.w	r3, r3, #1
  if (i >= 1) {
 80049c6:	b11b      	cbz	r3, 80049d0 <Vector90+0x270>
    *buf = (uint8_t)*pmap;
 80049c8:	9b00      	ldr	r3, [sp, #0]
 80049ca:	9a01      	ldr	r2, [sp, #4]
 80049cc:	681b      	ldr	r3, [r3, #0]
 80049ce:	7013      	strb	r3, [r2, #0]
      osp->rxpkts -= 1;
 80049d0:	f8be 300c 	ldrh.w	r3, [lr, #12]
      if ((n < epcp->out_maxsize) || (osp->rxpkts == 0)) {
 80049d4:	f8b7 c012 	ldrh.w	ip, [r7, #18]
      osp->rxpkts -= 1;
 80049d8:	1e5f      	subs	r7, r3, #1
      osp->rxsize -= n;
 80049da:	f8de 3000 	ldr.w	r3, [lr]
      osp->rxcnt  += n;
 80049de:	e9de 0201 	ldrd	r0, r2, [lr, #4]
      osp->rxpkts -= 1;
 80049e2:	b2bf      	uxth	r7, r7
      osp->rxbuf += n;
 80049e4:	444a      	add	r2, r9
      osp->rxcnt  += n;
 80049e6:	4448      	add	r0, r9
      osp->rxsize -= n;
 80049e8:	eba3 0309 	sub.w	r3, r3, r9
      if ((n < epcp->out_maxsize) || (osp->rxpkts == 0)) {
 80049ec:	45cc      	cmp	ip, r9
      osp->rxpkts -= 1;
 80049ee:	f8ae 700c 	strh.w	r7, [lr, #12]
      osp->rxcnt  += n;
 80049f2:	e9ce 0201 	strd	r0, r2, [lr, #4]
      osp->rxsize -= n;
 80049f6:	f8ce 3000 	str.w	r3, [lr]
      if ((n < epcp->out_maxsize) || (osp->rxpkts == 0)) {
 80049fa:	d926      	bls.n	8004a4a <Vector90+0x2ea>
        _usb_isr_invoke_out_cb(usbp, ep);
 80049fc:	2201      	movs	r2, #1
 80049fe:	eb0a 0686 	add.w	r6, sl, r6, lsl #2
 8004a02:	6870      	ldr	r0, [r6, #4]
 8004a04:	f8ba 300a 	ldrh.w	r3, [sl, #10]
 8004a08:	fa02 f404 	lsl.w	r4, r2, r4
 8004a0c:	68c5      	ldr	r5, [r0, #12]
 8004a0e:	ea23 0404 	bic.w	r4, r3, r4
 8004a12:	f8aa 400a 	strh.w	r4, [sl, #10]
 8004a16:	2d00      	cmp	r5, #0
 8004a18:	f43f af3e 	beq.w	8004898 <Vector90+0x138>
 8004a1c:	4815      	ldr	r0, [pc, #84]	; (8004a74 <Vector90+0x314>)
 8004a1e:	47a8      	blx	r5
 8004a20:	e73a      	b.n	8004898 <Vector90+0x138>
      STM32_USB->CNTR &= ~CNTR_FSUSP;
 8004a22:	6c1a      	ldr	r2, [r3, #64]	; 0x40
  usbp->state = usbp->saved_state;
 8004a24:	f8df a04c 	ldr.w	sl, [pc, #76]	; 8004a74 <Vector90+0x314>
 8004a28:	f022 0208 	bic.w	r2, r2, #8
 8004a2c:	641a      	str	r2, [r3, #64]	; 0x40
 8004a2e:	f89a 2080 	ldrb.w	r2, [sl, #128]	; 0x80
  _usb_isr_invoke_event_cb(usbp, USB_EVENT_WAKEUP);
 8004a32:	f8da 3004 	ldr.w	r3, [sl, #4]
  usbp->state = usbp->saved_state;
 8004a36:	f88a 2000 	strb.w	r2, [sl]
  _usb_isr_invoke_event_cb(usbp, USB_EVENT_WAKEUP);
 8004a3a:	681b      	ldr	r3, [r3, #0]
 8004a3c:	2b00      	cmp	r3, #0
 8004a3e:	f43f aea1 	beq.w	8004784 <Vector90+0x24>
 8004a42:	4650      	mov	r0, sl
 8004a44:	2105      	movs	r1, #5
 8004a46:	4798      	blx	r3
 8004a48:	e69c      	b.n	8004784 <Vector90+0x24>
      if ((n < epcp->out_maxsize) || (osp->rxpkts == 0)) {
 8004a4a:	2f00      	cmp	r7, #0
 8004a4c:	d0d6      	beq.n	80049fc <Vector90+0x29c>
        EPR_SET_STAT_RX(ep, EPR_STAT_RX_VALID);
 8004a4e:	682b      	ldr	r3, [r5, #0]
 8004a50:	f423 4390 	bic.w	r3, r3, #18432	; 0x4800
 8004a54:	f023 0370 	bic.w	r3, r3, #112	; 0x70
 8004a58:	f483 5340 	eor.w	r3, r3, #12288	; 0x3000
 8004a5c:	f443 4300 	orr.w	r3, r3, #32768	; 0x8000
 8004a60:	f043 0380 	orr.w	r3, r3, #128	; 0x80
 8004a64:	602b      	str	r3, [r5, #0]
 8004a66:	e717      	b.n	8004898 <Vector90+0x138>
  while (i >= 2) {
 8004a68:	464b      	mov	r3, r9
  if (i >= 1) {
 8004a6a:	2b00      	cmp	r3, #0
 8004a6c:	d1ac      	bne.n	80049c8 <Vector90+0x268>
 8004a6e:	e7af      	b.n	80049d0 <Vector90+0x270>
 8004a70:	40005c00 	.word	0x40005c00
 8004a74:	20000fc4 	.word	0x20000fc4
	...

08004a80 <VectorD4>:
/**
 * @brief   USART1 interrupt handler.
 *
 * @isr
 */
OSAL_IRQ_HANDLER(STM32_USART1_HANDLER) {
 8004a80:	e92d 47f0 	stmdb	sp!, {r4, r5, r6, r7, r8, r9, sl, lr}
  USART_TypeDef *u = sdp->usart;
 8004a84:	4d62      	ldr	r5, [pc, #392]	; (8004c10 <VectorD4+0x190>)
 8004a86:	f8d5 6254 	ldr.w	r6, [r5, #596]	; 0x254
  uint16_t cr1 = u->CR1;
 8004a8a:	f8d6 800c 	ldr.w	r8, [r6, #12]
  uint16_t sr = u->SR;
 8004a8e:	6833      	ldr	r3, [r6, #0]
  if (sr & USART_SR_LBD) {
 8004a90:	05da      	lsls	r2, r3, #23
  uint16_t sr = u->SR;
 8004a92:	b29c      	uxth	r4, r3
  if (sr & USART_SR_LBD) {
 8004a94:	d477      	bmi.n	8004b86 <VectorD4+0x106>
 8004a96:	2320      	movs	r3, #32
 8004a98:	f383 8811 	msr	BASEPRI, r3
  while (sr & (USART_SR_RXNE | USART_SR_ORE | USART_SR_NE | USART_SR_FE |
 8004a9c:	f014 0f2f 	tst.w	r4, #47	; 0x2f
 8004aa0:	d045      	beq.n	8004b2e <VectorD4+0xae>
  chEvtBroadcastFlagsI(esp, flags);
 8004aa2:	4f5c      	ldr	r7, [pc, #368]	; (8004c14 <VectorD4+0x194>)
  chThdDequeueNextI(tqp, msg);
 8004aa4:	f107 0908 	add.w	r9, r7, #8
 8004aa8:	e008      	b.n	8004abc <VectorD4+0x3c>
    if (sr & USART_SR_RXNE)
 8004aaa:	06a0      	lsls	r0, r4, #26
    b = (uint8_t)u->DR & sdp->rxmask;
 8004aac:	f8d6 a004 	ldr.w	sl, [r6, #4]
    if (sr & USART_SR_RXNE)
 8004ab0:	d41e      	bmi.n	8004af0 <VectorD4+0x70>
    sr = u->SR;
 8004ab2:	6834      	ldr	r4, [r6, #0]
 8004ab4:	b2a4      	uxth	r4, r4
  while (sr & (USART_SR_RXNE | USART_SR_ORE | USART_SR_NE | USART_SR_FE |
 8004ab6:	f014 0f2f 	tst.w	r4, #47	; 0x2f
 8004aba:	d038      	beq.n	8004b2e <VectorD4+0xae>
    if (sr & (USART_SR_ORE | USART_SR_NE | USART_SR_FE  | USART_SR_PE))
 8004abc:	0723      	lsls	r3, r4, #28
 8004abe:	d0f4      	beq.n	8004aaa <VectorD4+0x2a>
    sts |= SD_OVERRUN_ERROR;
 8004ac0:	f014 0f08 	tst.w	r4, #8
 8004ac4:	bf0c      	ite	eq
 8004ac6:	2100      	moveq	r1, #0
 8004ac8:	2180      	movne	r1, #128	; 0x80
  if (sr & USART_SR_PE)
 8004aca:	07e0      	lsls	r0, r4, #31
    sts |= SD_PARITY_ERROR;
 8004acc:	bf48      	it	mi
 8004ace:	f041 0120 	orrmi.w	r1, r1, #32
  if (sr & USART_SR_FE)
 8004ad2:	07a2      	lsls	r2, r4, #30
    sts |= SD_FRAMING_ERROR;
 8004ad4:	bf48      	it	mi
 8004ad6:	f041 0140 	orrmi.w	r1, r1, #64	; 0x40
  if (sr & USART_SR_NE)
 8004ada:	0763      	lsls	r3, r4, #29
    sts |= SD_NOISE_ERROR;
 8004adc:	bf48      	it	mi
 8004ade:	f441 7180 	orrmi.w	r1, r1, #256	; 0x100
  chEvtBroadcastFlagsI(esp, flags);
 8004ae2:	4638      	mov	r0, r7
 8004ae4:	f7fd f8b4 	bl	8001c50 <chEvtBroadcastFlagsI>
    if (sr & USART_SR_RXNE)
 8004ae8:	06a0      	lsls	r0, r4, #26
    b = (uint8_t)u->DR & sdp->rxmask;
 8004aea:	f8d6 a004 	ldr.w	sl, [r6, #4]
    if (sr & USART_SR_RXNE)
 8004aee:	d5e0      	bpl.n	8004ab2 <VectorD4+0x32>
void sdIncomingDataI(SerialDriver *sdp, uint8_t b) {

  osalDbgCheckClassI();
  osalDbgCheck(sdp != NULL);

  if (iqIsEmptyI(&sdp->iqueue))
 8004af0:	696b      	ldr	r3, [r5, #20]
    b = (uint8_t)u->DR & sdp->rxmask;
 8004af2:	f895 4258 	ldrb.w	r4, [r5, #600]	; 0x258
 8004af6:	b3ab      	cbz	r3, 8004b64 <VectorD4+0xe4>
  if (!iqIsFullI(iqp)) {
 8004af8:	e9d5 3208 	ldrd	r3, r2, [r5, #32]
 8004afc:	4293      	cmp	r3, r2
 8004afe:	d039      	beq.n	8004b74 <VectorD4+0xf4>
    iqp->q_counter++;
 8004b00:	696a      	ldr	r2, [r5, #20]
    *iqp->q_wrptr++ = b;
 8004b02:	1c59      	adds	r1, r3, #1
    iqp->q_counter++;
 8004b04:	3201      	adds	r2, #1
 8004b06:	ea04 0a0a 	and.w	sl, r4, sl
 8004b0a:	616a      	str	r2, [r5, #20]
    *iqp->q_wrptr++ = b;
 8004b0c:	6229      	str	r1, [r5, #32]
 8004b0e:	f883 a000 	strb.w	sl, [r3]
    if (iqp->q_wrptr >= iqp->q_top) {
 8004b12:	e9d5 3207 	ldrd	r3, r2, [r5, #28]
 8004b16:	429a      	cmp	r2, r3
 8004b18:	d301      	bcc.n	8004b1e <VectorD4+0x9e>
      iqp->q_wrptr = iqp->q_buffer;
 8004b1a:	69ab      	ldr	r3, [r5, #24]
 8004b1c:	622b      	str	r3, [r5, #32]
  chThdDequeueNextI(tqp, msg);
 8004b1e:	4648      	mov	r0, r9
 8004b20:	f7fc ffde 	bl	8001ae0 <chThdDequeueNextI.constprop.101>
    sr = u->SR;
 8004b24:	6834      	ldr	r4, [r6, #0]
 8004b26:	b2a4      	uxth	r4, r4
  while (sr & (USART_SR_RXNE | USART_SR_ORE | USART_SR_NE | USART_SR_FE |
 8004b28:	f014 0f2f 	tst.w	r4, #47	; 0x2f
 8004b2c:	d1c6      	bne.n	8004abc <VectorD4+0x3c>
 8004b2e:	2300      	movs	r3, #0
 8004b30:	f383 8811 	msr	BASEPRI, r3
  if ((cr1 & USART_CR1_TXEIE) && (sr & USART_SR_TXE)) {
 8004b34:	f018 0f80 	tst.w	r8, #128	; 0x80
 8004b38:	d001      	beq.n	8004b3e <VectorD4+0xbe>
 8004b3a:	0622      	lsls	r2, r4, #24
 8004b3c:	d432      	bmi.n	8004ba4 <VectorD4+0x124>
  if ((cr1 & USART_CR1_TCIE) && (sr & USART_SR_TC)) {
 8004b3e:	f018 0f40 	tst.w	r8, #64	; 0x40
 8004b42:	d00b      	beq.n	8004b5c <VectorD4+0xdc>
 8004b44:	0663      	lsls	r3, r4, #25
 8004b46:	d509      	bpl.n	8004b5c <VectorD4+0xdc>
 8004b48:	2320      	movs	r3, #32
 8004b4a:	f383 8811 	msr	BASEPRI, r3
    if (oqIsEmptyI(&sdp->oqueue)) {
 8004b4e:	e9d5 2311 	ldrd	r2, r3, [r5, #68]	; 0x44
 8004b52:	429a      	cmp	r2, r3
 8004b54:	d040      	beq.n	8004bd8 <VectorD4+0x158>
 8004b56:	2300      	movs	r3, #0
 8004b58:	f383 8811 	msr	BASEPRI, r3
  OSAL_IRQ_PROLOGUE();

  serve_interrupt(&SD1);

  OSAL_IRQ_EPILOGUE();
}
 8004b5c:	e8bd 47f0 	ldmia.w	sp!, {r4, r5, r6, r7, r8, r9, sl, lr}
  OSAL_IRQ_EPILOGUE();
 8004b60:	f7fc bd96 	b.w	8001690 <_port_irq_epilogue>
  chEvtBroadcastFlagsI(esp, flags);
 8004b64:	2104      	movs	r1, #4
 8004b66:	4638      	mov	r0, r7
 8004b68:	f7fd f872 	bl	8001c50 <chEvtBroadcastFlagsI>
  if (!iqIsFullI(iqp)) {
 8004b6c:	e9d5 3208 	ldrd	r3, r2, [r5, #32]
 8004b70:	4293      	cmp	r3, r2
 8004b72:	d1c5      	bne.n	8004b00 <VectorD4+0x80>
 8004b74:	696a      	ldr	r2, [r5, #20]
 8004b76:	2a00      	cmp	r2, #0
 8004b78:	d0c2      	beq.n	8004b00 <VectorD4+0x80>
 8004b7a:	f44f 6180 	mov.w	r1, #1024	; 0x400
 8004b7e:	4638      	mov	r0, r7
 8004b80:	f7fd f866 	bl	8001c50 <chEvtBroadcastFlagsI>
 8004b84:	e795      	b.n	8004ab2 <VectorD4+0x32>
 8004b86:	2320      	movs	r3, #32
 8004b88:	f383 8811 	msr	BASEPRI, r3
 8004b8c:	f44f 7100 	mov.w	r1, #512	; 0x200
 8004b90:	1d28      	adds	r0, r5, #4
 8004b92:	f7fd f85d 	bl	8001c50 <chEvtBroadcastFlagsI>
    u->SR = ~USART_SR_LBD;
 8004b96:	f46f 7280 	mvn.w	r2, #256	; 0x100
 8004b9a:	2300      	movs	r3, #0
 8004b9c:	6032      	str	r2, [r6, #0]
 8004b9e:	f383 8811 	msr	BASEPRI, r3
 8004ba2:	e778      	b.n	8004a96 <VectorD4+0x16>
 8004ba4:	2320      	movs	r3, #32
 8004ba6:	f383 8811 	msr	BASEPRI, r3
  if (!oqIsEmptyI(oqp)) {
 8004baa:	e9d5 2311 	ldrd	r2, r3, [r5, #68]	; 0x44
 8004bae:	429a      	cmp	r2, r3
 8004bb0:	d01f      	beq.n	8004bf2 <VectorD4+0x172>
    oqp->q_counter++;
 8004bb2:	6baa      	ldr	r2, [r5, #56]	; 0x38
    if (oqp->q_rdptr >= oqp->q_top) {
 8004bb4:	6c28      	ldr	r0, [r5, #64]	; 0x40
    b = *oqp->q_rdptr++;
 8004bb6:	1c59      	adds	r1, r3, #1
    oqp->q_counter++;
 8004bb8:	3201      	adds	r2, #1
 8004bba:	63aa      	str	r2, [r5, #56]	; 0x38
    b = *oqp->q_rdptr++;
 8004bbc:	64a9      	str	r1, [r5, #72]	; 0x48
    if (oqp->q_rdptr >= oqp->q_top) {
 8004bbe:	4281      	cmp	r1, r0
    b = *oqp->q_rdptr++;
 8004bc0:	781f      	ldrb	r7, [r3, #0]
    if (oqp->q_rdptr >= oqp->q_top) {
 8004bc2:	d301      	bcc.n	8004bc8 <VectorD4+0x148>
      oqp->q_rdptr = oqp->q_buffer;
 8004bc4:	6beb      	ldr	r3, [r5, #60]	; 0x3c
 8004bc6:	64ab      	str	r3, [r5, #72]	; 0x48
  chThdDequeueNextI(tqp, msg);
 8004bc8:	4813      	ldr	r0, [pc, #76]	; (8004c18 <VectorD4+0x198>)
 8004bca:	f7fc ff89 	bl	8001ae0 <chThdDequeueNextI.constprop.101>
      u->DR = b;
 8004bce:	6077      	str	r7, [r6, #4]
 8004bd0:	2300      	movs	r3, #0
 8004bd2:	f383 8811 	msr	BASEPRI, r3
 8004bd6:	e7b2      	b.n	8004b3e <VectorD4+0xbe>
    if (oqIsEmptyI(&sdp->oqueue)) {
 8004bd8:	6bab      	ldr	r3, [r5, #56]	; 0x38
 8004bda:	2b00      	cmp	r3, #0
 8004bdc:	d0bb      	beq.n	8004b56 <VectorD4+0xd6>
  chEvtBroadcastFlagsI(esp, flags);
 8004bde:	2110      	movs	r1, #16
 8004be0:	480c      	ldr	r0, [pc, #48]	; (8004c14 <VectorD4+0x194>)
 8004be2:	f7fd f835 	bl	8001c50 <chEvtBroadcastFlagsI>
      u->CR1 = cr1 & ~USART_CR1_TCIE;
 8004be6:	f64f 73bf 	movw	r3, #65471	; 0xffbf
 8004bea:	ea08 0303 	and.w	r3, r8, r3
 8004bee:	60f3      	str	r3, [r6, #12]
 8004bf0:	e7b1      	b.n	8004b56 <VectorD4+0xd6>
  if (!oqIsEmptyI(oqp)) {
 8004bf2:	6baa      	ldr	r2, [r5, #56]	; 0x38
 8004bf4:	2a00      	cmp	r2, #0
 8004bf6:	d0dc      	beq.n	8004bb2 <VectorD4+0x132>
 8004bf8:	2108      	movs	r1, #8
 8004bfa:	4806      	ldr	r0, [pc, #24]	; (8004c14 <VectorD4+0x194>)
 8004bfc:	f7fd f828 	bl	8001c50 <chEvtBroadcastFlagsI>
      u->CR1 = (cr1 & ~USART_CR1_TXEIE) | USART_CR1_TCIE;
 8004c00:	f64f 733f 	movw	r3, #65343	; 0xff3f
 8004c04:	ea08 0303 	and.w	r3, r8, r3
 8004c08:	f043 0340 	orr.w	r3, r3, #64	; 0x40
 8004c0c:	60f3      	str	r3, [r6, #12]
 8004c0e:	e7df      	b.n	8004bd0 <VectorD4+0x150>
 8004c10:	200008d8 	.word	0x200008d8
 8004c14:	200008dc 	.word	0x200008dc
 8004c18:	20000908 	.word	0x20000908
 8004c1c:	00000000 	.word	0x00000000

08004c20 <VectorB0>:
 * @brief   TIM2 interrupt handler.
 * @details This interrupt is used for system tick in free running mode.
 *
 * @isr
 */
OSAL_IRQ_HANDLER(ST_HANDLER) {
 8004c20:	e92d 43f8 	stmdb	sp!, {r3, r4, r5, r6, r7, r8, r9, lr}
  OSAL_IRQ_PROLOGUE();

  /* Note, under rare circumstances an interrupt can remain latched even if
     the timer SR register has been cleared, in those cases the interrupt
     is simply ignored.*/
  if ((STM32_ST_TIM->SR & TIM_SR_CC1IF) != 0U) {
 8004c24:	f04f 4680 	mov.w	r6, #1073741824	; 0x40000000
 8004c28:	6933      	ldr	r3, [r6, #16]
 8004c2a:	079b      	lsls	r3, r3, #30
 8004c2c:	d403      	bmi.n	8004c36 <VectorB0+0x16>
    osalOsTimerHandlerI();
    osalSysUnlockFromISR();
  }

  OSAL_IRQ_EPILOGUE();
}
 8004c2e:	e8bd 43f8 	ldmia.w	sp!, {r3, r4, r5, r6, r7, r8, r9, lr}
  OSAL_IRQ_EPILOGUE();
 8004c32:	f7fc bd2d 	b.w	8001690 <_port_irq_epilogue>
    STM32_ST_TIM->SR = 0U;
 8004c36:	2300      	movs	r3, #0
 8004c38:	2220      	movs	r2, #32
 8004c3a:	6133      	str	r3, [r6, #16]
 8004c3c:	f382 8811 	msr	BASEPRI, r2
  virtual_timer_t *vtp;
  systime_t now;
  sysinterval_t delta, nowdelta;

  /* Looping through timers.*/
  vtp = ch.vtlist.next;
 8004c40:	4c1e      	ldr	r4, [pc, #120]	; (8004cbc <VectorB0+0x9c>)
      nowdelta -= vtp->delta;

      vtp->next->prev = (virtual_timer_t *)&ch.vtlist;
      ch.vtlist.next = vtp->next;
      fn = vtp->func;
      vtp->func = NULL;
 8004c42:	4698      	mov	r8, r3
  vtp = ch.vtlist.next;
 8004c44:	46a1      	mov	r9, r4
 8004c46:	f859 3f1c 	ldr.w	r3, [r9, #28]!
 8004c4a:	689a      	ldr	r2, [r3, #8]
 8004c4c:	6a70      	ldr	r0, [r6, #36]	; 0x24
    nowdelta = chTimeDiffX(ch.vtlist.lasttime, now);
 8004c4e:	8d21      	ldrh	r1, [r4, #40]	; 0x28
 8004c50:	b280      	uxth	r0, r0
  return (sysinterval_t)((systime_t)(end - start));
 8004c52:	1a47      	subs	r7, r0, r1
 8004c54:	b2bf      	uxth	r7, r7
    if (nowdelta < vtp->delta) {
 8004c56:	4297      	cmp	r7, r2
 8004c58:	d31b      	bcc.n	8004c92 <VectorB0+0x72>
 8004c5a:	2520      	movs	r5, #32
      vtp->next->prev = (virtual_timer_t *)&ch.vtlist;
 8004c5c:	6818      	ldr	r0, [r3, #0]
      ch.vtlist.lasttime += vtp->delta;
 8004c5e:	4411      	add	r1, r2

      /* if the list becomes empty then the timer is stopped.*/
      if (ch.vtlist.next == (virtual_timer_t *)&ch.vtlist) {
 8004c60:	4548      	cmp	r0, r9
      ch.vtlist.lasttime += vtp->delta;
 8004c62:	8521      	strh	r1, [r4, #40]	; 0x28
      nowdelta -= vtp->delta;
 8004c64:	eba7 0702 	sub.w	r7, r7, r2
      vtp->next->prev = (virtual_timer_t *)&ch.vtlist;
 8004c68:	f8c0 9004 	str.w	r9, [r0, #4]
      fn = vtp->func;
 8004c6c:	68da      	ldr	r2, [r3, #12]
      ch.vtlist.next = vtp->next;
 8004c6e:	61e0      	str	r0, [r4, #28]
      vtp->func = NULL;
 8004c70:	f8c3 800c 	str.w	r8, [r3, #12]
  STM32_ST_TIM->DIER = 0;
 8004c74:	bf08      	it	eq
 8004c76:	f8c6 800c 	streq.w	r8, [r6, #12]
 8004c7a:	f388 8811 	msr	BASEPRI, r8
        port_timer_stop_alarm();
      }

      /* The callback is invoked outside the kernel critical zone.*/
      chSysUnlockFromISR();
      fn(vtp->par);
 8004c7e:	6918      	ldr	r0, [r3, #16]
 8004c80:	4790      	blx	r2
 8004c82:	f385 8811 	msr	BASEPRI, r5
      chSysLockFromISR();

      /* Next element in the list.*/
      vtp = ch.vtlist.next;
 8004c86:	69e3      	ldr	r3, [r4, #28]
    }
    while (vtp->delta <= nowdelta);
 8004c88:	689a      	ldr	r2, [r3, #8]
 8004c8a:	4297      	cmp	r7, r2
 8004c8c:	d3de      	bcc.n	8004c4c <VectorB0+0x2c>
 8004c8e:	8d21      	ldrh	r1, [r4, #40]	; 0x28
 8004c90:	e7e4      	b.n	8004c5c <VectorB0+0x3c>
  }

  /* if the list is empty, nothing else to do.*/
  if (ch.vtlist.next == (virtual_timer_t *)&ch.vtlist) {
 8004c92:	69e2      	ldr	r2, [r4, #28]
 8004c94:	454a      	cmp	r2, r9
 8004c96:	d00a      	beq.n	8004cae <VectorB0+0x8e>
  }

  /* The "unprocessed nowdelta" time slice is added to "last time"
     and subtracted to next timer's delta.*/
  ch.vtlist.lasttime += nowdelta;
  ch.vtlist.next->delta -= nowdelta;
 8004c98:	6891      	ldr	r1, [r2, #8]
  ch.vtlist.lasttime += nowdelta;
 8004c9a:	8520      	strh	r0, [r4, #40]	; 0x28
  ch.vtlist.next->delta -= nowdelta;
 8004c9c:	1bcf      	subs	r7, r1, r7
 8004c9e:	6097      	str	r7, [r2, #8]
  return systime + (systime_t)interval;
 8004ca0:	891b      	ldrh	r3, [r3, #8]
 8004ca2:	2b02      	cmp	r3, #2
 8004ca4:	bf2c      	ite	cs
 8004ca6:	18c0      	addcs	r0, r0, r3
 8004ca8:	3002      	addcc	r0, #2
  STM32_ST_TIM->CCR[0] = (uint32_t)time;
 8004caa:	b280      	uxth	r0, r0
 8004cac:	6370      	str	r0, [r6, #52]	; 0x34
 8004cae:	2300      	movs	r3, #0
 8004cb0:	f383 8811 	msr	BASEPRI, r3
}
 8004cb4:	e8bd 43f8 	ldmia.w	sp!, {r3, r4, r5, r6, r7, r8, r9, lr}
  OSAL_IRQ_EPILOGUE();
 8004cb8:	f7fc bcea 	b.w	8001690 <_port_irq_epilogue>
 8004cbc:	200012d0 	.word	0x200012d0

08004cc0 <VectorC0>:

/**
 * @brief   I2C1 error interrupt handler.
 */
OSAL_IRQ_HANDLER(STM32_I2C1_ERROR_HANDLER) {
  uint16_t sr = I2CD1.i2c->SR1;
 8004cc0:	4a34      	ldr	r2, [pc, #208]	; (8004d94 <VectorC0+0xd4>)
OSAL_IRQ_HANDLER(STM32_I2C1_ERROR_HANDLER) {
 8004cc2:	b5f8      	push	{r3, r4, r5, r6, r7, lr}
  dmaStreamDisable(i2cp->dmatx);
 8004cc4:	e9d2 640c 	ldrd	r6, r4, [r2, #48]	; 0x30
  uint16_t sr = I2CD1.i2c->SR1;
 8004cc8:	6960      	ldr	r0, [r4, #20]
  dmaStreamDisable(i2cp->dmatx);
 8004cca:	230e      	movs	r3, #14

  OSAL_IRQ_PROLOGUE();

  I2CD1.i2c->SR1 = ~(sr & I2C_ERROR_MASK);
 8004ccc:	f400 415f 	and.w	r1, r0, #57088	; 0xdf00
 8004cd0:	43c9      	mvns	r1, r1
  dmaStreamDisable(i2cp->dmatx);
 8004cd2:	6877      	ldr	r7, [r6, #4]
  I2CD1.i2c->SR1 = ~(sr & I2C_ERROR_MASK);
 8004cd4:	6161      	str	r1, [r4, #20]
  dmaStreamDisable(i2cp->dmatx);
 8004cd6:	683d      	ldr	r5, [r7, #0]
  dmaStreamDisable(i2cp->dmarx);
 8004cd8:	6ad1      	ldr	r1, [r2, #44]	; 0x2c
  dmaStreamDisable(i2cp->dmatx);
 8004cda:	f025 050f 	bic.w	r5, r5, #15
 8004cde:	603d      	str	r5, [r7, #0]
 8004ce0:	7c35      	ldrb	r5, [r6, #16]
 8004ce2:	6837      	ldr	r7, [r6, #0]
 8004ce4:	fa03 f505 	lsl.w	r5, r3, r5
  dmaStreamDisable(i2cp->dmarx);
 8004ce8:	684e      	ldr	r6, [r1, #4]
  dmaStreamDisable(i2cp->dmatx);
 8004cea:	607d      	str	r5, [r7, #4]
  dmaStreamDisable(i2cp->dmarx);
 8004cec:	6835      	ldr	r5, [r6, #0]
 8004cee:	680f      	ldr	r7, [r1, #0]
 8004cf0:	f025 050f 	bic.w	r5, r5, #15
 8004cf4:	6035      	str	r5, [r6, #0]
 8004cf6:	7c0d      	ldrb	r5, [r1, #16]
  uint16_t sr = I2CD1.i2c->SR1;
 8004cf8:	b281      	uxth	r1, r0
  dmaStreamDisable(i2cp->dmarx);
 8004cfa:	40ab      	lsls	r3, r5
 8004cfc:	607b      	str	r3, [r7, #4]
  if (sr & I2C_SR1_BERR)                            /* Bus error.           */
 8004cfe:	f411 7380 	ands.w	r3, r1, #256	; 0x100
    i2cp->errors |= I2C_BUS_ERROR;
 8004d02:	bf1b      	ittet	ne
 8004d04:	2501      	movne	r5, #1
 8004d06:	462b      	movne	r3, r5
  i2cp->errors = I2C_NO_ERROR;
 8004d08:	6093      	streq	r3, [r2, #8]
    i2cp->errors |= I2C_BUS_ERROR;
 8004d0a:	6095      	strne	r5, [r2, #8]
  if (sr & I2C_SR1_ARLO)                            /* Arbitration lost.    */
 8004d0c:	058f      	lsls	r7, r1, #22
    i2cp->errors |= I2C_ARBITRATION_LOST;
 8004d0e:	bf44      	itt	mi
 8004d10:	f043 0302 	orrmi.w	r3, r3, #2
 8004d14:	6093      	strmi	r3, [r2, #8]
  if (sr & I2C_SR1_AF) {                            /* Acknowledge fail.    */
 8004d16:	054e      	lsls	r6, r1, #21
 8004d18:	d50a      	bpl.n	8004d30 <VectorC0+0x70>
    i2cp->i2c->CR2 &= ~I2C_CR2_ITEVTEN;
 8004d1a:	6865      	ldr	r5, [r4, #4]
    i2cp->errors |= I2C_ACK_FAILURE;
 8004d1c:	f043 0304 	orr.w	r3, r3, #4
    i2cp->i2c->CR2 &= ~I2C_CR2_ITEVTEN;
 8004d20:	f425 7500 	bic.w	r5, r5, #512	; 0x200
 8004d24:	6065      	str	r5, [r4, #4]
    i2cp->i2c->CR1 |= I2C_CR1_STOP;                 /* Setting stop bit.    */
 8004d26:	6825      	ldr	r5, [r4, #0]
 8004d28:	f445 7500 	orr.w	r5, r5, #512	; 0x200
 8004d2c:	6025      	str	r5, [r4, #0]
    i2cp->errors |= I2C_ACK_FAILURE;
 8004d2e:	6093      	str	r3, [r2, #8]
  if (sr & I2C_SR1_OVR)                             /* Overrun.             */
 8004d30:	050d      	lsls	r5, r1, #20
    i2cp->errors |= I2C_OVERRUN;
 8004d32:	bf44      	itt	mi
 8004d34:	f043 0308 	orrmi.w	r3, r3, #8
 8004d38:	6093      	strmi	r3, [r2, #8]
  if (sr & I2C_SR1_TIMEOUT)                         /* SMBus Timeout.       */
 8004d3a:	044c      	lsls	r4, r1, #17
    i2cp->errors |= I2C_TIMEOUT;
 8004d3c:	bf44      	itt	mi
 8004d3e:	f043 0320 	orrmi.w	r3, r3, #32
 8004d42:	6093      	strmi	r3, [r2, #8]
  if (sr & I2C_SR1_PECERR)                          /* PEC error.           */
 8004d44:	04c9      	lsls	r1, r1, #19
 8004d46:	b200      	sxth	r0, r0
 8004d48:	d517      	bpl.n	8004d7a <VectorC0+0xba>
    i2cp->errors |= I2C_PEC_ERROR;
 8004d4a:	f043 0310 	orr.w	r3, r3, #16
  if (sr & I2C_SR1_SMBALERT)                        /* SMBus alert.         */
 8004d4e:	2800      	cmp	r0, #0
    i2cp->errors |= I2C_PEC_ERROR;
 8004d50:	6093      	str	r3, [r2, #8]
  if (sr & I2C_SR1_SMBALERT)                        /* SMBus alert.         */
 8004d52:	db1a      	blt.n	8004d8a <VectorC0+0xca>
 8004d54:	2320      	movs	r3, #32
 8004d56:	f383 8811 	msr	BASEPRI, r3
  if (*trp != NULL) {
 8004d5a:	69d0      	ldr	r0, [r2, #28]
 8004d5c:	b130      	cbz	r0, 8004d6c <VectorC0+0xac>
    tp->u.rdymsg = msg;
 8004d5e:	f06f 0101 	mvn.w	r1, #1
    *trp = NULL;
 8004d62:	2300      	movs	r3, #0
    tp->u.rdymsg = msg;
 8004d64:	6241      	str	r1, [r0, #36]	; 0x24
    *trp = NULL;
 8004d66:	61d3      	str	r3, [r2, #28]
    (void) chSchReadyI(tp);
 8004d68:	f7fc fea2 	bl	8001ab0 <chSchReadyI>
 8004d6c:	2300      	movs	r3, #0
 8004d6e:	f383 8811 	msr	BASEPRI, r3
  i2c_lld_serve_error_interrupt(&I2CD1, sr);

  OSAL_IRQ_EPILOGUE();
}
 8004d72:	e8bd 40f8 	ldmia.w	sp!, {r3, r4, r5, r6, r7, lr}
  OSAL_IRQ_EPILOGUE();
 8004d76:	f7fc bc8b 	b.w	8001690 <_port_irq_epilogue>
  if (sr & I2C_SR1_SMBALERT)                        /* SMBus alert.         */
 8004d7a:	2800      	cmp	r0, #0
 8004d7c:	db05      	blt.n	8004d8a <VectorC0+0xca>
  if (i2cp->errors != I2C_NO_ERROR)
 8004d7e:	2b00      	cmp	r3, #0
 8004d80:	d1e8      	bne.n	8004d54 <VectorC0+0x94>
}
 8004d82:	e8bd 40f8 	ldmia.w	sp!, {r3, r4, r5, r6, r7, lr}
  OSAL_IRQ_EPILOGUE();
 8004d86:	f7fc bc83 	b.w	8001690 <_port_irq_epilogue>
    i2cp->errors |= I2C_SMB_ALERT;
 8004d8a:	f043 0340 	orr.w	r3, r3, #64	; 0x40
 8004d8e:	6093      	str	r3, [r2, #8]
 8004d90:	e7e0      	b.n	8004d54 <VectorC0+0x94>
 8004d92:	bf00      	nop
 8004d94:	200008a0 	.word	0x200008a0
	...

08004da0 <VectorBC>:
  I2C_TypeDef *dp = i2cp->i2c;
 8004da0:	4a3b      	ldr	r2, [pc, #236]	; (8004e90 <VectorBC+0xf0>)
OSAL_IRQ_HANDLER(STM32_I2C1_EVENT_HANDLER) {
 8004da2:	b538      	push	{r3, r4, r5, lr}
  I2C_TypeDef *dp = i2cp->i2c;
 8004da4:	6b54      	ldr	r4, [r2, #52]	; 0x34
  switch (I2C_EV_MASK & (event | (regSR2 << 16))) {
 8004da6:	493b      	ldr	r1, [pc, #236]	; (8004e94 <VectorBC+0xf4>)
  uint32_t regSR2 = dp->SR2;
 8004da8:	69a3      	ldr	r3, [r4, #24]
  uint32_t event = dp->SR1;
 8004daa:	6965      	ldr	r5, [r4, #20]
  switch (I2C_EV_MASK & (event | (regSR2 << 16))) {
 8004dac:	ea45 4303 	orr.w	r3, r5, r3, lsl #16
 8004db0:	f023 437f 	bic.w	r3, r3, #4278190080	; 0xff000000
 8004db4:	428b      	cmp	r3, r1
 8004db6:	d050      	beq.n	8004e5a <VectorBC+0xba>
 8004db8:	d822      	bhi.n	8004e00 <VectorBC+0x60>
 8004dba:	3907      	subs	r1, #7
 8004dbc:	428b      	cmp	r3, r1
 8004dbe:	d040      	beq.n	8004e42 <VectorBC+0xa2>
 8004dc0:	3101      	adds	r1, #1
 8004dc2:	428b      	cmp	r3, r1
 8004dc4:	d114      	bne.n	8004df0 <VectorBC+0x50>
    dmaStreamEnable(i2cp->dmarx);
 8004dc6:	6ad3      	ldr	r3, [r2, #44]	; 0x2c
    dp->CR2 &= ~I2C_CR2_ITEVTEN;
 8004dc8:	6862      	ldr	r2, [r4, #4]
    dmaStreamEnable(i2cp->dmarx);
 8004dca:	685b      	ldr	r3, [r3, #4]
    dp->CR2 &= ~I2C_CR2_ITEVTEN;
 8004dcc:	f422 7200 	bic.w	r2, r2, #512	; 0x200
 8004dd0:	6062      	str	r2, [r4, #4]
    dmaStreamEnable(i2cp->dmarx);
 8004dd2:	681a      	ldr	r2, [r3, #0]
 8004dd4:	f042 0201 	orr.w	r2, r2, #1
 8004dd8:	601a      	str	r2, [r3, #0]
    dp->CR2 |= I2C_CR2_LAST;                 /* Needed in receiver mode. */
 8004dda:	6862      	ldr	r2, [r4, #4]
 8004ddc:	f442 5280 	orr.w	r2, r2, #4096	; 0x1000
 8004de0:	6062      	str	r2, [r4, #4]
    if (dmaStreamGetTransactionSize(i2cp->dmarx) < 2)
 8004de2:	685b      	ldr	r3, [r3, #4]
 8004de4:	2b01      	cmp	r3, #1
 8004de6:	d803      	bhi.n	8004df0 <VectorBC+0x50>
      dp->CR1 &= ~I2C_CR1_ACK;
 8004de8:	6823      	ldr	r3, [r4, #0]
 8004dea:	f423 6380 	bic.w	r3, r3, #1024	; 0x400
 8004dee:	6023      	str	r3, [r4, #0]
  if (event & (I2C_SR1_ADDR | I2C_SR1_ADD10))
 8004df0:	f015 0f0a 	tst.w	r5, #10
    (void)dp->SR2;
 8004df4:	bf18      	it	ne
 8004df6:	69a3      	ldrne	r3, [r4, #24]
}
 8004df8:	e8bd 4038 	ldmia.w	sp!, {r3, r4, r5, lr}
  OSAL_IRQ_EPILOGUE();
 8004dfc:	f7fc bc48 	b.w	8001690 <_port_irq_epilogue>
  switch (I2C_EV_MASK & (event | (regSR2 << 16))) {
 8004e00:	4925      	ldr	r1, [pc, #148]	; (8004e98 <VectorBC+0xf8>)
 8004e02:	428b      	cmp	r3, r1
 8004e04:	d012      	beq.n	8004e2c <VectorBC+0x8c>
 8004e06:	3102      	adds	r1, #2
 8004e08:	428b      	cmp	r3, r1
 8004e0a:	d1f1      	bne.n	8004df0 <VectorBC+0x50>
    if (dmaStreamGetTransactionSize(i2cp->dmarx) > 0) {
 8004e0c:	6ad3      	ldr	r3, [r2, #44]	; 0x2c
 8004e0e:	685b      	ldr	r3, [r3, #4]
 8004e10:	685b      	ldr	r3, [r3, #4]
 8004e12:	b33b      	cbz	r3, 8004e64 <VectorBC+0xc4>
      dp->CR1 |= I2C_CR1_START | I2C_CR1_ACK;
 8004e14:	6823      	ldr	r3, [r4, #0]
      i2cp->addr |= 0x01;
 8004e16:	8c11      	ldrh	r1, [r2, #32]
      dp->CR1 |= I2C_CR1_START | I2C_CR1_ACK;
 8004e18:	f443 63a0 	orr.w	r3, r3, #1280	; 0x500
      i2cp->addr |= 0x01;
 8004e1c:	f041 0101 	orr.w	r1, r1, #1
 8004e20:	8411      	strh	r1, [r2, #32]
      dp->CR1 |= I2C_CR1_START | I2C_CR1_ACK;
 8004e22:	6023      	str	r3, [r4, #0]
}
 8004e24:	e8bd 4038 	ldmia.w	sp!, {r3, r4, r5, lr}
  OSAL_IRQ_EPILOGUE();
 8004e28:	f7fc bc32 	b.w	8001690 <_port_irq_epilogue>
    dp->CR2 &= ~I2C_CR2_ITEVTEN;
 8004e2c:	6863      	ldr	r3, [r4, #4]
    dmaStreamEnable(i2cp->dmatx);
 8004e2e:	6b12      	ldr	r2, [r2, #48]	; 0x30
    dp->CR2 &= ~I2C_CR2_ITEVTEN;
 8004e30:	f423 7300 	bic.w	r3, r3, #512	; 0x200
    dmaStreamEnable(i2cp->dmatx);
 8004e34:	6852      	ldr	r2, [r2, #4]
    dp->CR2 &= ~I2C_CR2_ITEVTEN;
 8004e36:	6063      	str	r3, [r4, #4]
    dmaStreamEnable(i2cp->dmatx);
 8004e38:	6813      	ldr	r3, [r2, #0]
 8004e3a:	f043 0301 	orr.w	r3, r3, #1
 8004e3e:	6013      	str	r3, [r2, #0]
 8004e40:	e7d6      	b.n	8004df0 <VectorBC+0x50>
    if ((i2cp->addr >> 8) > 0) { 
 8004e42:	8c13      	ldrh	r3, [r2, #32]
 8004e44:	0a1a      	lsrs	r2, r3, #8
 8004e46:	d00b      	beq.n	8004e60 <VectorBC+0xc0>
      dp->DR = 0xF0 | (0x6 & (i2cp->addr >> 8)) | (0x1 & i2cp->addr);
 8004e48:	f003 0301 	and.w	r3, r3, #1
 8004e4c:	f043 03f0 	orr.w	r3, r3, #240	; 0xf0
 8004e50:	f002 0206 	and.w	r2, r2, #6
 8004e54:	4313      	orrs	r3, r2
 8004e56:	6123      	str	r3, [r4, #16]
 8004e58:	e7ca      	b.n	8004df0 <VectorBC+0x50>
    dp->DR = (0xFF & (i2cp->addr >> 1));
 8004e5a:	8c13      	ldrh	r3, [r2, #32]
 8004e5c:	f3c3 0347 	ubfx	r3, r3, #1, #8
 8004e60:	6123      	str	r3, [r4, #16]
 8004e62:	e7c5      	b.n	8004df0 <VectorBC+0x50>
    dp->CR2 &= ~I2C_CR2_ITEVTEN;
 8004e64:	6861      	ldr	r1, [r4, #4]
 8004e66:	2020      	movs	r0, #32
 8004e68:	f421 7100 	bic.w	r1, r1, #512	; 0x200
 8004e6c:	6061      	str	r1, [r4, #4]
    dp->CR1 |= I2C_CR1_STOP;
 8004e6e:	6821      	ldr	r1, [r4, #0]
 8004e70:	f441 7100 	orr.w	r1, r1, #512	; 0x200
 8004e74:	6021      	str	r1, [r4, #0]
 8004e76:	f380 8811 	msr	BASEPRI, r0
  if (*trp != NULL) {
 8004e7a:	69d0      	ldr	r0, [r2, #28]
 8004e7c:	b118      	cbz	r0, 8004e86 <VectorBC+0xe6>
    tp->u.rdymsg = msg;
 8004e7e:	6243      	str	r3, [r0, #36]	; 0x24
    *trp = NULL;
 8004e80:	61d3      	str	r3, [r2, #28]
    (void) chSchReadyI(tp);
 8004e82:	f7fc fe15 	bl	8001ab0 <chSchReadyI>
 8004e86:	2300      	movs	r3, #0
 8004e88:	f383 8811 	msr	BASEPRI, r3
 8004e8c:	e7b0      	b.n	8004df0 <VectorBC+0x50>
 8004e8e:	bf00      	nop
 8004e90:	200008a0 	.word	0x200008a0
 8004e94:	00030008 	.word	0x00030008
 8004e98:	00070082 	.word	0x00070082
 8004e9c:	00000000 	.word	0x00000000

08004ea0 <Vector84>:
 */
OSAL_IRQ_HANDLER(STM32_DMA1_CH7_HANDLER) {

  OSAL_IRQ_PROLOGUE();

  dmaServeInterrupt(STM32_DMA1_STREAM7);
 8004ea0:	4b0b      	ldr	r3, [pc, #44]	; (8004ed0 <Vector84+0x30>)
 8004ea2:	4a0c      	ldr	r2, [pc, #48]	; (8004ed4 <Vector84+0x34>)
 8004ea4:	6819      	ldr	r1, [r3, #0]
 8004ea6:	6812      	ldr	r2, [r2, #0]
 8004ea8:	0e09      	lsrs	r1, r1, #24
 8004eaa:	f001 010e 	and.w	r1, r1, #14
 8004eae:	420a      	tst	r2, r1
 8004eb0:	d00b      	beq.n	8004eca <Vector84+0x2a>
 8004eb2:	4809      	ldr	r0, [pc, #36]	; (8004ed8 <Vector84+0x38>)
OSAL_IRQ_HANDLER(STM32_DMA1_CH7_HANDLER) {
 8004eb4:	b510      	push	{r4, lr}
  dmaServeInterrupt(STM32_DMA1_STREAM7);
 8004eb6:	6b04      	ldr	r4, [r0, #48]	; 0x30
 8004eb8:	060a      	lsls	r2, r1, #24
 8004eba:	605a      	str	r2, [r3, #4]
 8004ebc:	b10c      	cbz	r4, 8004ec2 <Vector84+0x22>
 8004ebe:	6b40      	ldr	r0, [r0, #52]	; 0x34
 8004ec0:	47a0      	blx	r4

  OSAL_IRQ_EPILOGUE();
}
 8004ec2:	e8bd 4010 	ldmia.w	sp!, {r4, lr}
  OSAL_IRQ_EPILOGUE();
 8004ec6:	f7fc bbe3 	b.w	8001690 <_port_irq_epilogue>
 8004eca:	f7fc bbe1 	b.w	8001690 <_port_irq_epilogue>
 8004ece:	bf00      	nop
 8004ed0:	40020000 	.word	0x40020000
 8004ed4:	40020080 	.word	0x40020080
 8004ed8:	20001298 	.word	0x20001298
 8004edc:	00000000 	.word	0x00000000

08004ee0 <Vector80>:
  dmaServeInterrupt(STM32_DMA1_STREAM6);
 8004ee0:	4b0b      	ldr	r3, [pc, #44]	; (8004f10 <Vector80+0x30>)
 8004ee2:	4a0c      	ldr	r2, [pc, #48]	; (8004f14 <Vector80+0x34>)
 8004ee4:	6819      	ldr	r1, [r3, #0]
 8004ee6:	6812      	ldr	r2, [r2, #0]
 8004ee8:	0d09      	lsrs	r1, r1, #20
 8004eea:	f001 010e 	and.w	r1, r1, #14
 8004eee:	420a      	tst	r2, r1
 8004ef0:	d00b      	beq.n	8004f0a <Vector80+0x2a>
 8004ef2:	4809      	ldr	r0, [pc, #36]	; (8004f18 <Vector80+0x38>)
OSAL_IRQ_HANDLER(STM32_DMA1_CH6_HANDLER) {
 8004ef4:	b510      	push	{r4, lr}
  dmaServeInterrupt(STM32_DMA1_STREAM6);
 8004ef6:	6a84      	ldr	r4, [r0, #40]	; 0x28
 8004ef8:	050a      	lsls	r2, r1, #20
 8004efa:	605a      	str	r2, [r3, #4]
 8004efc:	b10c      	cbz	r4, 8004f02 <Vector80+0x22>
 8004efe:	6ac0      	ldr	r0, [r0, #44]	; 0x2c
 8004f00:	47a0      	blx	r4
}
 8004f02:	e8bd 4010 	ldmia.w	sp!, {r4, lr}
  OSAL_IRQ_EPILOGUE();
 8004f06:	f7fc bbc3 	b.w	8001690 <_port_irq_epilogue>
 8004f0a:	f7fc bbc1 	b.w	8001690 <_port_irq_epilogue>
 8004f0e:	bf00      	nop
 8004f10:	40020000 	.word	0x40020000
 8004f14:	4002006c 	.word	0x4002006c
 8004f18:	20001298 	.word	0x20001298
 8004f1c:	00000000 	.word	0x00000000

08004f20 <Vector7C>:
  dmaServeInterrupt(STM32_DMA1_STREAM5);
 8004f20:	4b0b      	ldr	r3, [pc, #44]	; (8004f50 <Vector7C+0x30>)
 8004f22:	4a0c      	ldr	r2, [pc, #48]	; (8004f54 <Vector7C+0x34>)
 8004f24:	6819      	ldr	r1, [r3, #0]
 8004f26:	6812      	ldr	r2, [r2, #0]
 8004f28:	0c09      	lsrs	r1, r1, #16
 8004f2a:	f001 010e 	and.w	r1, r1, #14
 8004f2e:	420a      	tst	r2, r1
 8004f30:	d00b      	beq.n	8004f4a <Vector7C+0x2a>
 8004f32:	4809      	ldr	r0, [pc, #36]	; (8004f58 <Vector7C+0x38>)
OSAL_IRQ_HANDLER(STM32_DMA1_CH5_HANDLER) {
 8004f34:	b510      	push	{r4, lr}
  dmaServeInterrupt(STM32_DMA1_STREAM5);
 8004f36:	6a04      	ldr	r4, [r0, #32]
 8004f38:	040a      	lsls	r2, r1, #16
 8004f3a:	605a      	str	r2, [r3, #4]
 8004f3c:	b10c      	cbz	r4, 8004f42 <Vector7C+0x22>
 8004f3e:	6a40      	ldr	r0, [r0, #36]	; 0x24
 8004f40:	47a0      	blx	r4
}
 8004f42:	e8bd 4010 	ldmia.w	sp!, {r4, lr}
  OSAL_IRQ_EPILOGUE();
 8004f46:	f7fc bba3 	b.w	8001690 <_port_irq_epilogue>
 8004f4a:	f7fc bba1 	b.w	8001690 <_port_irq_epilogue>
 8004f4e:	bf00      	nop
 8004f50:	40020000 	.word	0x40020000
 8004f54:	40020058 	.word	0x40020058
 8004f58:	20001298 	.word	0x20001298
 8004f5c:	00000000 	.word	0x00000000

08004f60 <Vector78>:
  dmaServeInterrupt(STM32_DMA1_STREAM4);
 8004f60:	4b0b      	ldr	r3, [pc, #44]	; (8004f90 <Vector78+0x30>)
 8004f62:	4a0c      	ldr	r2, [pc, #48]	; (8004f94 <Vector78+0x34>)
 8004f64:	6819      	ldr	r1, [r3, #0]
 8004f66:	6812      	ldr	r2, [r2, #0]
 8004f68:	0b09      	lsrs	r1, r1, #12
 8004f6a:	f001 010e 	and.w	r1, r1, #14
 8004f6e:	420a      	tst	r2, r1
 8004f70:	d00b      	beq.n	8004f8a <Vector78+0x2a>
 8004f72:	4809      	ldr	r0, [pc, #36]	; (8004f98 <Vector78+0x38>)
OSAL_IRQ_HANDLER(STM32_DMA1_CH4_HANDLER) {
 8004f74:	b510      	push	{r4, lr}
  dmaServeInterrupt(STM32_DMA1_STREAM4);
 8004f76:	6984      	ldr	r4, [r0, #24]
 8004f78:	030a      	lsls	r2, r1, #12
 8004f7a:	605a      	str	r2, [r3, #4]
 8004f7c:	b10c      	cbz	r4, 8004f82 <Vector78+0x22>
 8004f7e:	69c0      	ldr	r0, [r0, #28]
 8004f80:	47a0      	blx	r4
}
 8004f82:	e8bd 4010 	ldmia.w	sp!, {r4, lr}
  OSAL_IRQ_EPILOGUE();
 8004f86:	f7fc bb83 	b.w	8001690 <_port_irq_epilogue>
 8004f8a:	f7fc bb81 	b.w	8001690 <_port_irq_epilogue>
 8004f8e:	bf00      	nop
 8004f90:	40020000 	.word	0x40020000
 8004f94:	40020044 	.word	0x40020044
 8004f98:	20001298 	.word	0x20001298
 8004f9c:	00000000 	.word	0x00000000

08004fa0 <Vector74>:
  dmaServeInterrupt(STM32_DMA1_STREAM3);
 8004fa0:	4b0b      	ldr	r3, [pc, #44]	; (8004fd0 <Vector74+0x30>)
 8004fa2:	4a0c      	ldr	r2, [pc, #48]	; (8004fd4 <Vector74+0x34>)
 8004fa4:	6819      	ldr	r1, [r3, #0]
 8004fa6:	6812      	ldr	r2, [r2, #0]
 8004fa8:	0a09      	lsrs	r1, r1, #8
 8004faa:	f001 010e 	and.w	r1, r1, #14
 8004fae:	420a      	tst	r2, r1
 8004fb0:	d00b      	beq.n	8004fca <Vector74+0x2a>
 8004fb2:	4809      	ldr	r0, [pc, #36]	; (8004fd8 <Vector74+0x38>)
OSAL_IRQ_HANDLER(STM32_DMA1_CH3_HANDLER) {
 8004fb4:	b510      	push	{r4, lr}
  dmaServeInterrupt(STM32_DMA1_STREAM3);
 8004fb6:	6904      	ldr	r4, [r0, #16]
 8004fb8:	020a      	lsls	r2, r1, #8
 8004fba:	605a      	str	r2, [r3, #4]
 8004fbc:	b10c      	cbz	r4, 8004fc2 <Vector74+0x22>
 8004fbe:	6940      	ldr	r0, [r0, #20]
 8004fc0:	47a0      	blx	r4
}
 8004fc2:	e8bd 4010 	ldmia.w	sp!, {r4, lr}
  OSAL_IRQ_EPILOGUE();
 8004fc6:	f7fc bb63 	b.w	8001690 <_port_irq_epilogue>
 8004fca:	f7fc bb61 	b.w	8001690 <_port_irq_epilogue>
 8004fce:	bf00      	nop
 8004fd0:	40020000 	.word	0x40020000
 8004fd4:	40020030 	.word	0x40020030
 8004fd8:	20001298 	.word	0x20001298
 8004fdc:	00000000 	.word	0x00000000

08004fe0 <Vector70>:
  dmaServeInterrupt(STM32_DMA1_STREAM2);
 8004fe0:	4b0b      	ldr	r3, [pc, #44]	; (8005010 <Vector70+0x30>)
 8004fe2:	4a0c      	ldr	r2, [pc, #48]	; (8005014 <Vector70+0x34>)
 8004fe4:	6819      	ldr	r1, [r3, #0]
 8004fe6:	6812      	ldr	r2, [r2, #0]
 8004fe8:	0909      	lsrs	r1, r1, #4
 8004fea:	f001 010e 	and.w	r1, r1, #14
 8004fee:	420a      	tst	r2, r1
 8004ff0:	d00b      	beq.n	800500a <Vector70+0x2a>
 8004ff2:	4809      	ldr	r0, [pc, #36]	; (8005018 <Vector70+0x38>)
OSAL_IRQ_HANDLER(STM32_DMA1_CH2_HANDLER) {
 8004ff4:	b510      	push	{r4, lr}
  dmaServeInterrupt(STM32_DMA1_STREAM2);
 8004ff6:	6884      	ldr	r4, [r0, #8]
 8004ff8:	010a      	lsls	r2, r1, #4
 8004ffa:	605a      	str	r2, [r3, #4]
 8004ffc:	b10c      	cbz	r4, 8005002 <Vector70+0x22>
 8004ffe:	68c0      	ldr	r0, [r0, #12]
 8005000:	47a0      	blx	r4
}
 8005002:	e8bd 4010 	ldmia.w	sp!, {r4, lr}
  OSAL_IRQ_EPILOGUE();
 8005006:	f7fc bb43 	b.w	8001690 <_port_irq_epilogue>
 800500a:	f7fc bb41 	b.w	8001690 <_port_irq_epilogue>
 800500e:	bf00      	nop
 8005010:	40020000 	.word	0x40020000
 8005014:	4002001c 	.word	0x4002001c
 8005018:	20001298 	.word	0x20001298
 800501c:	00000000 	.word	0x00000000

08005020 <Vector6C>:
OSAL_IRQ_HANDLER(STM32_DMA1_CH1_HANDLER) {
 8005020:	b508      	push	{r3, lr}
  dmaServeInterrupt(STM32_DMA1_STREAM1);
 8005022:	4b09      	ldr	r3, [pc, #36]	; (8005048 <Vector6C+0x28>)
 8005024:	4a09      	ldr	r2, [pc, #36]	; (800504c <Vector6C+0x2c>)
 8005026:	6819      	ldr	r1, [r3, #0]
 8005028:	6812      	ldr	r2, [r2, #0]
 800502a:	f001 010e 	and.w	r1, r1, #14
 800502e:	420a      	tst	r2, r1
 8005030:	d005      	beq.n	800503e <Vector6C+0x1e>
 8005032:	4a07      	ldr	r2, [pc, #28]	; (8005050 <Vector6C+0x30>)
 8005034:	6059      	str	r1, [r3, #4]
 8005036:	6813      	ldr	r3, [r2, #0]
 8005038:	b10b      	cbz	r3, 800503e <Vector6C+0x1e>
 800503a:	6850      	ldr	r0, [r2, #4]
 800503c:	4798      	blx	r3
}
 800503e:	e8bd 4008 	ldmia.w	sp!, {r3, lr}
  OSAL_IRQ_EPILOGUE();
 8005042:	f7fc bb25 	b.w	8001690 <_port_irq_epilogue>
 8005046:	bf00      	nop
 8005048:	40020000 	.word	0x40020000
 800504c:	40020008 	.word	0x40020008
 8005050:	20001298 	.word	0x20001298
	...

08005060 <VectorE0>:
OSAL_IRQ_HANDLER(VectorE0) {
  uint32_t pr;

  OSAL_IRQ_PROLOGUE();

  pr = EXTI->PR;
 8005060:	4b3e      	ldr	r3, [pc, #248]	; (800515c <VectorE0+0xfc>)
OSAL_IRQ_HANDLER(VectorE0) {
 8005062:	b510      	push	{r4, lr}
  pr = EXTI->PR;
 8005064:	695a      	ldr	r2, [r3, #20]
  pr &= EXTI->IMR & ((1U << 10) | (1U << 11) | (1U << 12) | (1U << 13) |
 8005066:	681c      	ldr	r4, [r3, #0]
 8005068:	4014      	ands	r4, r2
 800506a:	f404 427c 	and.w	r2, r4, #64512	; 0xfc00
                     (1U << 14) | (1U << 15));
  EXTI->PR = pr;
 800506e:	615a      	str	r2, [r3, #20]

  exti_serve_irq(pr, 10);
 8005070:	0562      	lsls	r2, r4, #21
 8005072:	d510      	bpl.n	8005096 <VectorE0+0x36>
 8005074:	4a3a      	ldr	r2, [pc, #232]	; (8005160 <VectorE0+0x100>)
 8005076:	f8d2 30a8 	ldr.w	r3, [r2, #168]	; 0xa8
 800507a:	b113      	cbz	r3, 8005082 <VectorE0+0x22>
 800507c:	f8d2 00ac 	ldr.w	r0, [r2, #172]	; 0xac
 8005080:	4798      	blx	r3
 8005082:	2320      	movs	r3, #32
 8005084:	f383 8811 	msr	BASEPRI, r3
  chThdDequeueAllI(tqp, msg);
 8005088:	2100      	movs	r1, #0
 800508a:	4836      	ldr	r0, [pc, #216]	; (8005164 <VectorE0+0x104>)
 800508c:	f7fc fec0 	bl	8001e10 <chThdDequeueAllI>
 8005090:	2300      	movs	r3, #0
 8005092:	f383 8811 	msr	BASEPRI, r3
  exti_serve_irq(pr, 11);
 8005096:	0523      	lsls	r3, r4, #20
 8005098:	d510      	bpl.n	80050bc <VectorE0+0x5c>
 800509a:	4a31      	ldr	r2, [pc, #196]	; (8005160 <VectorE0+0x100>)
 800509c:	f8d2 30b8 	ldr.w	r3, [r2, #184]	; 0xb8
 80050a0:	b113      	cbz	r3, 80050a8 <VectorE0+0x48>
 80050a2:	f8d2 00bc 	ldr.w	r0, [r2, #188]	; 0xbc
 80050a6:	4798      	blx	r3
 80050a8:	2320      	movs	r3, #32
 80050aa:	f383 8811 	msr	BASEPRI, r3
 80050ae:	2100      	movs	r1, #0
 80050b0:	482d      	ldr	r0, [pc, #180]	; (8005168 <VectorE0+0x108>)
 80050b2:	f7fc fead 	bl	8001e10 <chThdDequeueAllI>
 80050b6:	2300      	movs	r3, #0
 80050b8:	f383 8811 	msr	BASEPRI, r3
  exti_serve_irq(pr, 12);
 80050bc:	04e0      	lsls	r0, r4, #19
 80050be:	d510      	bpl.n	80050e2 <VectorE0+0x82>
 80050c0:	4a27      	ldr	r2, [pc, #156]	; (8005160 <VectorE0+0x100>)
 80050c2:	f8d2 30c8 	ldr.w	r3, [r2, #200]	; 0xc8
 80050c6:	b113      	cbz	r3, 80050ce <VectorE0+0x6e>
 80050c8:	f8d2 00cc 	ldr.w	r0, [r2, #204]	; 0xcc
 80050cc:	4798      	blx	r3
 80050ce:	2320      	movs	r3, #32
 80050d0:	f383 8811 	msr	BASEPRI, r3
 80050d4:	2100      	movs	r1, #0
 80050d6:	4825      	ldr	r0, [pc, #148]	; (800516c <VectorE0+0x10c>)
 80050d8:	f7fc fe9a 	bl	8001e10 <chThdDequeueAllI>
 80050dc:	2300      	movs	r3, #0
 80050de:	f383 8811 	msr	BASEPRI, r3
  exti_serve_irq(pr, 13);
 80050e2:	04a1      	lsls	r1, r4, #18
 80050e4:	d510      	bpl.n	8005108 <VectorE0+0xa8>
 80050e6:	4a1e      	ldr	r2, [pc, #120]	; (8005160 <VectorE0+0x100>)
 80050e8:	f8d2 30d8 	ldr.w	r3, [r2, #216]	; 0xd8
 80050ec:	b113      	cbz	r3, 80050f4 <VectorE0+0x94>
 80050ee:	f8d2 00dc 	ldr.w	r0, [r2, #220]	; 0xdc
 80050f2:	4798      	blx	r3
 80050f4:	2320      	movs	r3, #32
 80050f6:	f383 8811 	msr	BASEPRI, r3
 80050fa:	2100      	movs	r1, #0
 80050fc:	481c      	ldr	r0, [pc, #112]	; (8005170 <VectorE0+0x110>)
 80050fe:	f7fc fe87 	bl	8001e10 <chThdDequeueAllI>
 8005102:	2300      	movs	r3, #0
 8005104:	f383 8811 	msr	BASEPRI, r3
  exti_serve_irq(pr, 14);
 8005108:	0462      	lsls	r2, r4, #17
 800510a:	d510      	bpl.n	800512e <VectorE0+0xce>
 800510c:	4a14      	ldr	r2, [pc, #80]	; (8005160 <VectorE0+0x100>)
 800510e:	f8d2 30e8 	ldr.w	r3, [r2, #232]	; 0xe8
 8005112:	b113      	cbz	r3, 800511a <VectorE0+0xba>
 8005114:	f8d2 00ec 	ldr.w	r0, [r2, #236]	; 0xec
 8005118:	4798      	blx	r3
 800511a:	2320      	movs	r3, #32
 800511c:	f383 8811 	msr	BASEPRI, r3
 8005120:	2100      	movs	r1, #0
 8005122:	4814      	ldr	r0, [pc, #80]	; (8005174 <VectorE0+0x114>)
 8005124:	f7fc fe74 	bl	8001e10 <chThdDequeueAllI>
 8005128:	2300      	movs	r3, #0
 800512a:	f383 8811 	msr	BASEPRI, r3
  exti_serve_irq(pr, 15);
 800512e:	0423      	lsls	r3, r4, #16
 8005130:	d510      	bpl.n	8005154 <VectorE0+0xf4>
 8005132:	4a0b      	ldr	r2, [pc, #44]	; (8005160 <VectorE0+0x100>)
 8005134:	f8d2 30f8 	ldr.w	r3, [r2, #248]	; 0xf8
 8005138:	b113      	cbz	r3, 8005140 <VectorE0+0xe0>
 800513a:	f8d2 00fc 	ldr.w	r0, [r2, #252]	; 0xfc
 800513e:	4798      	blx	r3
 8005140:	2320      	movs	r3, #32
 8005142:	f383 8811 	msr	BASEPRI, r3
 8005146:	2100      	movs	r1, #0
 8005148:	480b      	ldr	r0, [pc, #44]	; (8005178 <VectorE0+0x118>)
 800514a:	f7fc fe61 	bl	8001e10 <chThdDequeueAllI>
 800514e:	2300      	movs	r3, #0
 8005150:	f383 8811 	msr	BASEPRI, r3

  OSAL_IRQ_EPILOGUE();
}
 8005154:	e8bd 4010 	ldmia.w	sp!, {r4, lr}
  OSAL_IRQ_EPILOGUE();
 8005158:	f7fc ba9a 	b.w	8001690 <_port_irq_epilogue>
 800515c:	40010400 	.word	0x40010400
 8005160:	20001198 	.word	0x20001198
 8005164:	20001238 	.word	0x20001238
 8005168:	20001248 	.word	0x20001248
 800516c:	20001258 	.word	0x20001258
 8005170:	20001268 	.word	0x20001268
 8005174:	20001278 	.word	0x20001278
 8005178:	20001288 	.word	0x20001288
 800517c:	00000000 	.word	0x00000000

08005180 <Vector9C>:
  pr = EXTI->PR;
 8005180:	4b32      	ldr	r3, [pc, #200]	; (800524c <Vector9C+0xcc>)
OSAL_IRQ_HANDLER(Vector9C) {
 8005182:	b510      	push	{r4, lr}
  pr = EXTI->PR;
 8005184:	695a      	ldr	r2, [r3, #20]
  pr &= EXTI->IMR & ((1U << 5) | (1U << 6) | (1U << 7) | (1U << 8) |
 8005186:	681c      	ldr	r4, [r3, #0]
 8005188:	4014      	ands	r4, r2
 800518a:	f404 7278 	and.w	r2, r4, #992	; 0x3e0
  EXTI->PR = pr;
 800518e:	615a      	str	r2, [r3, #20]
  exti_serve_irq(pr, 5);
 8005190:	06a3      	lsls	r3, r4, #26
 8005192:	d50e      	bpl.n	80051b2 <Vector9C+0x32>
 8005194:	4a2e      	ldr	r2, [pc, #184]	; (8005250 <Vector9C+0xd0>)
 8005196:	6d93      	ldr	r3, [r2, #88]	; 0x58
 8005198:	b10b      	cbz	r3, 800519e <Vector9C+0x1e>
 800519a:	6dd0      	ldr	r0, [r2, #92]	; 0x5c
 800519c:	4798      	blx	r3
 800519e:	2320      	movs	r3, #32
 80051a0:	f383 8811 	msr	BASEPRI, r3
 80051a4:	2100      	movs	r1, #0
 80051a6:	482b      	ldr	r0, [pc, #172]	; (8005254 <Vector9C+0xd4>)
 80051a8:	f7fc fe32 	bl	8001e10 <chThdDequeueAllI>
 80051ac:	2300      	movs	r3, #0
 80051ae:	f383 8811 	msr	BASEPRI, r3
  exti_serve_irq(pr, 6);
 80051b2:	0660      	lsls	r0, r4, #25
 80051b4:	d50e      	bpl.n	80051d4 <Vector9C+0x54>
 80051b6:	4a26      	ldr	r2, [pc, #152]	; (8005250 <Vector9C+0xd0>)
 80051b8:	6e93      	ldr	r3, [r2, #104]	; 0x68
 80051ba:	b10b      	cbz	r3, 80051c0 <Vector9C+0x40>
 80051bc:	6ed0      	ldr	r0, [r2, #108]	; 0x6c
 80051be:	4798      	blx	r3
 80051c0:	2320      	movs	r3, #32
 80051c2:	f383 8811 	msr	BASEPRI, r3
 80051c6:	2100      	movs	r1, #0
 80051c8:	4823      	ldr	r0, [pc, #140]	; (8005258 <Vector9C+0xd8>)
 80051ca:	f7fc fe21 	bl	8001e10 <chThdDequeueAllI>
 80051ce:	2300      	movs	r3, #0
 80051d0:	f383 8811 	msr	BASEPRI, r3
  exti_serve_irq(pr, 7);
 80051d4:	0621      	lsls	r1, r4, #24
 80051d6:	d50e      	bpl.n	80051f6 <Vector9C+0x76>
 80051d8:	4a1d      	ldr	r2, [pc, #116]	; (8005250 <Vector9C+0xd0>)
 80051da:	6f93      	ldr	r3, [r2, #120]	; 0x78
 80051dc:	b10b      	cbz	r3, 80051e2 <Vector9C+0x62>
 80051de:	6fd0      	ldr	r0, [r2, #124]	; 0x7c
 80051e0:	4798      	blx	r3
 80051e2:	2320      	movs	r3, #32
 80051e4:	f383 8811 	msr	BASEPRI, r3
 80051e8:	2100      	movs	r1, #0
 80051ea:	481c      	ldr	r0, [pc, #112]	; (800525c <Vector9C+0xdc>)
 80051ec:	f7fc fe10 	bl	8001e10 <chThdDequeueAllI>
 80051f0:	2300      	movs	r3, #0
 80051f2:	f383 8811 	msr	BASEPRI, r3
  exti_serve_irq(pr, 8);
 80051f6:	05e2      	lsls	r2, r4, #23
 80051f8:	d510      	bpl.n	800521c <Vector9C+0x9c>
 80051fa:	4a15      	ldr	r2, [pc, #84]	; (8005250 <Vector9C+0xd0>)
 80051fc:	f8d2 3088 	ldr.w	r3, [r2, #136]	; 0x88
 8005200:	b113      	cbz	r3, 8005208 <Vector9C+0x88>
 8005202:	f8d2 008c 	ldr.w	r0, [r2, #140]	; 0x8c
 8005206:	4798      	blx	r3
 8005208:	2320      	movs	r3, #32
 800520a:	f383 8811 	msr	BASEPRI, r3
 800520e:	2100      	movs	r1, #0
 8005210:	4813      	ldr	r0, [pc, #76]	; (8005260 <Vector9C+0xe0>)
 8005212:	f7fc fdfd 	bl	8001e10 <chThdDequeueAllI>
 8005216:	2300      	movs	r3, #0
 8005218:	f383 8811 	msr	BASEPRI, r3
  exti_serve_irq(pr, 9);
 800521c:	05a3      	lsls	r3, r4, #22
 800521e:	d510      	bpl.n	8005242 <Vector9C+0xc2>
 8005220:	4a0b      	ldr	r2, [pc, #44]	; (8005250 <Vector9C+0xd0>)
 8005222:	f8d2 3098 	ldr.w	r3, [r2, #152]	; 0x98
 8005226:	b113      	cbz	r3, 800522e <Vector9C+0xae>
 8005228:	f8d2 009c 	ldr.w	r0, [r2, #156]	; 0x9c
 800522c:	4798      	blx	r3
 800522e:	2320      	movs	r3, #32
 8005230:	f383 8811 	msr	BASEPRI, r3
 8005234:	2100      	movs	r1, #0
 8005236:	480b      	ldr	r0, [pc, #44]	; (8005264 <Vector9C+0xe4>)
 8005238:	f7fc fdea 	bl	8001e10 <chThdDequeueAllI>
 800523c:	2300      	movs	r3, #0
 800523e:	f383 8811 	msr	BASEPRI, r3
}
 8005242:	e8bd 4010 	ldmia.w	sp!, {r4, lr}
  OSAL_IRQ_EPILOGUE();
 8005246:	f7fc ba23 	b.w	8001690 <_port_irq_epilogue>
 800524a:	bf00      	nop
 800524c:	40010400 	.word	0x40010400
 8005250:	20001198 	.word	0x20001198
 8005254:	200011e8 	.word	0x200011e8
 8005258:	200011f8 	.word	0x200011f8
 800525c:	20001208 	.word	0x20001208
 8005260:	20001218 	.word	0x20001218
 8005264:	20001228 	.word	0x20001228
	...

08005270 <Vector68>:
  pr = EXTI->PR;
 8005270:	4a0d      	ldr	r2, [pc, #52]	; (80052a8 <Vector68+0x38>)
OSAL_IRQ_HANDLER(Vector68) {
 8005272:	b508      	push	{r3, lr}
  pr = EXTI->PR;
 8005274:	6951      	ldr	r1, [r2, #20]
  pr &= EXTI->IMR & (1U << 4);
 8005276:	6813      	ldr	r3, [r2, #0]
 8005278:	400b      	ands	r3, r1
 800527a:	f003 0310 	and.w	r3, r3, #16
  EXTI->PR = pr;
 800527e:	6153      	str	r3, [r2, #20]
  exti_serve_irq(pr, 4);
 8005280:	b173      	cbz	r3, 80052a0 <Vector68+0x30>
 8005282:	4a0a      	ldr	r2, [pc, #40]	; (80052ac <Vector68+0x3c>)
 8005284:	6c93      	ldr	r3, [r2, #72]	; 0x48
 8005286:	b10b      	cbz	r3, 800528c <Vector68+0x1c>
 8005288:	6cd0      	ldr	r0, [r2, #76]	; 0x4c
 800528a:	4798      	blx	r3
 800528c:	2320      	movs	r3, #32
 800528e:	f383 8811 	msr	BASEPRI, r3
 8005292:	2100      	movs	r1, #0
 8005294:	4806      	ldr	r0, [pc, #24]	; (80052b0 <Vector68+0x40>)
 8005296:	f7fc fdbb 	bl	8001e10 <chThdDequeueAllI>
 800529a:	2300      	movs	r3, #0
 800529c:	f383 8811 	msr	BASEPRI, r3
}
 80052a0:	e8bd 4008 	ldmia.w	sp!, {r3, lr}
  OSAL_IRQ_EPILOGUE();
 80052a4:	f7fc b9f4 	b.w	8001690 <_port_irq_epilogue>
 80052a8:	40010400 	.word	0x40010400
 80052ac:	20001198 	.word	0x20001198
 80052b0:	200011d8 	.word	0x200011d8
	...

080052c0 <Vector64>:
  pr = EXTI->PR;
 80052c0:	4a0d      	ldr	r2, [pc, #52]	; (80052f8 <Vector64+0x38>)
OSAL_IRQ_HANDLER(Vector64) {
 80052c2:	b508      	push	{r3, lr}
  pr = EXTI->PR;
 80052c4:	6951      	ldr	r1, [r2, #20]
  pr &= EXTI->IMR & (1U << 3);
 80052c6:	6813      	ldr	r3, [r2, #0]
 80052c8:	400b      	ands	r3, r1
 80052ca:	f003 0308 	and.w	r3, r3, #8
  EXTI->PR = pr;
 80052ce:	6153      	str	r3, [r2, #20]
  exti_serve_irq(pr, 3);
 80052d0:	b173      	cbz	r3, 80052f0 <Vector64+0x30>
 80052d2:	4a0a      	ldr	r2, [pc, #40]	; (80052fc <Vector64+0x3c>)
 80052d4:	6b93      	ldr	r3, [r2, #56]	; 0x38
 80052d6:	b10b      	cbz	r3, 80052dc <Vector64+0x1c>
 80052d8:	6bd0      	ldr	r0, [r2, #60]	; 0x3c
 80052da:	4798      	blx	r3
 80052dc:	2320      	movs	r3, #32
 80052de:	f383 8811 	msr	BASEPRI, r3
 80052e2:	2100      	movs	r1, #0
 80052e4:	4806      	ldr	r0, [pc, #24]	; (8005300 <Vector64+0x40>)
 80052e6:	f7fc fd93 	bl	8001e10 <chThdDequeueAllI>
 80052ea:	2300      	movs	r3, #0
 80052ec:	f383 8811 	msr	BASEPRI, r3
}
 80052f0:	e8bd 4008 	ldmia.w	sp!, {r3, lr}
  OSAL_IRQ_EPILOGUE();
 80052f4:	f7fc b9cc 	b.w	8001690 <_port_irq_epilogue>
 80052f8:	40010400 	.word	0x40010400
 80052fc:	20001198 	.word	0x20001198
 8005300:	200011c8 	.word	0x200011c8
	...

08005310 <Vector60>:
  pr = EXTI->PR;
 8005310:	4a0d      	ldr	r2, [pc, #52]	; (8005348 <Vector60+0x38>)
OSAL_IRQ_HANDLER(Vector60) {
 8005312:	b508      	push	{r3, lr}
  pr = EXTI->PR;
 8005314:	6951      	ldr	r1, [r2, #20]
  pr &= EXTI->IMR & (1U << 2);
 8005316:	6813      	ldr	r3, [r2, #0]
 8005318:	400b      	ands	r3, r1
 800531a:	f003 0304 	and.w	r3, r3, #4
  EXTI->PR = pr;
 800531e:	6153      	str	r3, [r2, #20]
  exti_serve_irq(pr, 2);
 8005320:	b173      	cbz	r3, 8005340 <Vector60+0x30>
 8005322:	4a0a      	ldr	r2, [pc, #40]	; (800534c <Vector60+0x3c>)
 8005324:	6a93      	ldr	r3, [r2, #40]	; 0x28
 8005326:	b10b      	cbz	r3, 800532c <Vector60+0x1c>
 8005328:	6ad0      	ldr	r0, [r2, #44]	; 0x2c
 800532a:	4798      	blx	r3
 800532c:	2320      	movs	r3, #32
 800532e:	f383 8811 	msr	BASEPRI, r3
 8005332:	2100      	movs	r1, #0
 8005334:	4806      	ldr	r0, [pc, #24]	; (8005350 <Vector60+0x40>)
 8005336:	f7fc fd6b 	bl	8001e10 <chThdDequeueAllI>
 800533a:	2300      	movs	r3, #0
 800533c:	f383 8811 	msr	BASEPRI, r3
}
 8005340:	e8bd 4008 	ldmia.w	sp!, {r3, lr}
  OSAL_IRQ_EPILOGUE();
 8005344:	f7fc b9a4 	b.w	8001690 <_port_irq_epilogue>
 8005348:	40010400 	.word	0x40010400
 800534c:	20001198 	.word	0x20001198
 8005350:	200011b8 	.word	0x200011b8
	...

08005360 <Vector5C>:
  pr = EXTI->PR;
 8005360:	4a0d      	ldr	r2, [pc, #52]	; (8005398 <Vector5C+0x38>)
OSAL_IRQ_HANDLER(Vector5C) {
 8005362:	b508      	push	{r3, lr}
  pr = EXTI->PR;
 8005364:	6951      	ldr	r1, [r2, #20]
  pr &= EXTI->IMR & (1U << 1);
 8005366:	6813      	ldr	r3, [r2, #0]
 8005368:	400b      	ands	r3, r1
 800536a:	f003 0302 	and.w	r3, r3, #2
  EXTI->PR = pr;
 800536e:	6153      	str	r3, [r2, #20]
  exti_serve_irq(pr, 1);
 8005370:	b173      	cbz	r3, 8005390 <Vector5C+0x30>
 8005372:	4a0a      	ldr	r2, [pc, #40]	; (800539c <Vector5C+0x3c>)
 8005374:	6993      	ldr	r3, [r2, #24]
 8005376:	b10b      	cbz	r3, 800537c <Vector5C+0x1c>
 8005378:	69d0      	ldr	r0, [r2, #28]
 800537a:	4798      	blx	r3
 800537c:	2320      	movs	r3, #32
 800537e:	f383 8811 	msr	BASEPRI, r3
 8005382:	2100      	movs	r1, #0
 8005384:	4806      	ldr	r0, [pc, #24]	; (80053a0 <Vector5C+0x40>)
 8005386:	f7fc fd43 	bl	8001e10 <chThdDequeueAllI>
 800538a:	2300      	movs	r3, #0
 800538c:	f383 8811 	msr	BASEPRI, r3
}
 8005390:	e8bd 4008 	ldmia.w	sp!, {r3, lr}
  OSAL_IRQ_EPILOGUE();
 8005394:	f7fc b97c 	b.w	8001690 <_port_irq_epilogue>
 8005398:	40010400 	.word	0x40010400
 800539c:	20001198 	.word	0x20001198
 80053a0:	200011a8 	.word	0x200011a8
	...

080053b0 <Vector58>:
  pr = EXTI->PR;
 80053b0:	4a0d      	ldr	r2, [pc, #52]	; (80053e8 <Vector58+0x38>)
OSAL_IRQ_HANDLER(Vector58) {
 80053b2:	b508      	push	{r3, lr}
  pr = EXTI->PR;
 80053b4:	6951      	ldr	r1, [r2, #20]
  pr &= EXTI->IMR & (1U << 0);
 80053b6:	6813      	ldr	r3, [r2, #0]
 80053b8:	400b      	ands	r3, r1
 80053ba:	f003 0301 	and.w	r3, r3, #1
  EXTI->PR = pr;
 80053be:	6153      	str	r3, [r2, #20]
  exti_serve_irq(pr, 0);
 80053c0:	b173      	cbz	r3, 80053e0 <Vector58+0x30>
 80053c2:	4a0a      	ldr	r2, [pc, #40]	; (80053ec <Vector58+0x3c>)
 80053c4:	6893      	ldr	r3, [r2, #8]
 80053c6:	b10b      	cbz	r3, 80053cc <Vector58+0x1c>
 80053c8:	68d0      	ldr	r0, [r2, #12]
 80053ca:	4798      	blx	r3
 80053cc:	2320      	movs	r3, #32
 80053ce:	f383 8811 	msr	BASEPRI, r3
 80053d2:	2100      	movs	r1, #0
 80053d4:	4805      	ldr	r0, [pc, #20]	; (80053ec <Vector58+0x3c>)
 80053d6:	f7fc fd1b 	bl	8001e10 <chThdDequeueAllI>
 80053da:	2300      	movs	r3, #0
 80053dc:	f383 8811 	msr	BASEPRI, r3
}
 80053e0:	e8bd 4008 	ldmia.w	sp!, {r3, lr}
  OSAL_IRQ_EPILOGUE();
 80053e4:	f7fc b954 	b.w	8001690 <_port_irq_epilogue>
 80053e8:	40010400 	.word	0x40010400
 80053ec:	20001198 	.word	0x20001198

080053f0 <SVC_Handler>:
  __ASM volatile ("MRS %0, psp"  : "=r" (result) );
 80053f0:	f3ef 8309 	mrs	r3, PSP
  ctxp++;
 80053f4:	3320      	adds	r3, #32
  __ASM volatile ("MSR psp, %0" : : "r" (topOfProcStack) : );
 80053f6:	f383 8809 	msr	PSP, r3
  __ASM volatile ("MSR basepri, %0" : : "r" (basePri) : "memory");
 80053fa:	2300      	movs	r3, #0
 80053fc:	f383 8811 	msr	BASEPRI, r3
}
 8005400:	4770      	bx	lr
 8005402:	bf00      	nop
	...

08005410 <chThdExit>:
 8005410:	2320      	movs	r3, #32
 8005412:	f383 8811 	msr	BASEPRI, r3
  chThdExitS(msg);
 8005416:	f7ff b80b 	b.w	8004430 <chThdExitS>
 800541a:	bf00      	nop
 800541c:	0000      	movs	r0, r0
	...

08005420 <bmk_thread3>:
  chThdExit((msg_t)p);
 8005420:	f7ff bff6 	b.w	8005410 <chThdExit>
	...

08005430 <chSchDoReschedule>:
void chSchDoRescheduleAhead(void) {
  thread_t *otp = currp;

  /* Picks the first thread from the ready queue and makes it current.*/
  currp = queue_fifo_remove(&ch.rlist.queue);
  currp->state = CH_STATE_CURRENT;
 8005430:	2101      	movs	r1, #1
void chSchDoRescheduleAhead(void) {
 8005432:	b430      	push	{r4, r5}
  tp->state = CH_STATE_READY;
 8005434:	2500      	movs	r5, #0
  thread_t *otp = currp;
 8005436:	4a0d      	ldr	r2, [pc, #52]	; (800546c <chSchDoReschedule+0x3c>)
  thread_t *tp = tqp->next;
 8005438:	6810      	ldr	r0, [r2, #0]
 800543a:	6994      	ldr	r4, [r2, #24]
  tqp->next             = tp->queue.next;
 800543c:	6803      	ldr	r3, [r0, #0]
  tqp->next->queue.prev = (thread_t *)tqp;
 800543e:	605a      	str	r2, [r3, #4]
  currp->state = CH_STATE_CURRENT;
 8005440:	f880 1020 	strb.w	r1, [r0, #32]

  /* Handling idle-leave hook.*/
  if (otp->prio == IDLEPRIO) {
 8005444:	68a1      	ldr	r1, [r4, #8]
  tqp->next             = tp->queue.next;
 8005446:	6013      	str	r3, [r2, #0]
  currp = queue_fifo_remove(&ch.rlist.queue);
 8005448:	6190      	str	r0, [r2, #24]
  tp->state = CH_STATE_READY;
 800544a:	f884 5020 	strb.w	r5, [r4, #32]
 800544e:	e000      	b.n	8005452 <chSchDoReschedule+0x22>
 8005450:	681b      	ldr	r3, [r3, #0]
  } while (cp->prio > tp->prio);
 8005452:	689a      	ldr	r2, [r3, #8]
 8005454:	4291      	cmp	r1, r2
 8005456:	d3fb      	bcc.n	8005450 <chSchDoReschedule+0x20>
  tp->queue.prev             = cp->queue.prev;
 8005458:	685a      	ldr	r2, [r3, #4]

  /* Placing in ready list ahead of peers.*/
  otp = chSchReadyAheadI(otp);

  /* Swap operation as tail call.*/
  chSysSwitch(currp, otp);
 800545a:	4621      	mov	r1, r4
  tp->queue.prev             = cp->queue.prev;
 800545c:	e9c4 3200 	strd	r3, r2, [r4]
  tp->queue.prev->queue.next = tp;
 8005460:	6014      	str	r4, [r2, #0]
  cp->queue.prev             = tp;
 8005462:	605c      	str	r4, [r3, #4]
}
 8005464:	bc30      	pop	{r4, r5}
  chSysSwitch(currp, otp);
 8005466:	f7fa beeb 	b.w	8000240 <_port_switch>
 800546a:	bf00      	nop
 800546c:	200012d0 	.word	0x200012d0

08005470 <chSchRescheduleS>:
  return firstprio(&ch.rlist.queue) > currp->prio;
 8005470:	4b04      	ldr	r3, [pc, #16]	; (8005484 <chSchRescheduleS+0x14>)
 8005472:	681a      	ldr	r2, [r3, #0]
 8005474:	699b      	ldr	r3, [r3, #24]
  if (chSchIsRescRequiredI()) {
 8005476:	6892      	ldr	r2, [r2, #8]
 8005478:	689b      	ldr	r3, [r3, #8]
 800547a:	429a      	cmp	r2, r3
 800547c:	d800      	bhi.n	8005480 <chSchRescheduleS+0x10>
}
 800547e:	4770      	bx	lr
    chSchDoRescheduleAhead();
 8005480:	f7ff bfd6 	b.w	8005430 <chSchDoReschedule>
 8005484:	200012d0 	.word	0x200012d0
	...

08005490 <chSemSignalWait.constprop.97>:
 *                      semaphore has been signaled.
 * @retval MSG_RESET    if the semaphore has been reset using @p chSemReset().
 *
 * @api
 */
msg_t chSemSignalWait(semaphore_t *sps, semaphore_t *spw) {
 8005490:	b538      	push	{r3, r4, r5, lr}
 8005492:	2320      	movs	r3, #32
 8005494:	f383 8811 	msr	BASEPRI, r3
              ((sps->cnt < (cnt_t)0) && queue_notempty(&sps->queue)),
              "inconsistent semaphore");
  chDbgAssert(((spw->cnt >= (cnt_t)0) && queue_isempty(&spw->queue)) ||
              ((spw->cnt < (cnt_t)0) && queue_notempty(&spw->queue)),
              "inconsistent semaphore");
  if (++sps->cnt <= (cnt_t)0) {
 8005498:	4c15      	ldr	r4, [pc, #84]	; (80054f0 <chSemSignalWait.constprop.97+0x60>)
 800549a:	68a3      	ldr	r3, [r4, #8]
 800549c:	3301      	adds	r3, #1
 800549e:	2b00      	cmp	r3, #0
 80054a0:	60a3      	str	r3, [r4, #8]
 80054a2:	dd1a      	ble.n	80054da <chSemSignalWait.constprop.97+0x4a>
    chSchReadyI(queue_fifo_remove(&sps->queue))->u.rdymsg = MSG_OK;
  }
  if (--spw->cnt < (cnt_t)0) {
 80054a4:	3b01      	subs	r3, #1
 80054a6:	2b00      	cmp	r3, #0
 80054a8:	60a3      	str	r3, [r4, #8]
 80054aa:	db06      	blt.n	80054ba <chSemSignalWait.constprop.97+0x2a>
    ctp->u.wtsemp = spw;
    chSchGoSleepS(CH_STATE_WTSEM);
    msg = ctp->u.rdymsg;
  }
  else {
    chSchRescheduleS();
 80054ac:	f7ff ffe0 	bl	8005470 <chSchRescheduleS>
    msg = MSG_OK;
 80054b0:	2000      	movs	r0, #0
 80054b2:	2300      	movs	r3, #0
 80054b4:	f383 8811 	msr	BASEPRI, r3
  }
  chSysUnlock();

  return msg;
}
 80054b8:	bd38      	pop	{r3, r4, r5, pc}
    thread_t *ctp = currp;
 80054ba:	4a0e      	ldr	r2, [pc, #56]	; (80054f4 <chSemSignalWait.constprop.97+0x64>)
  tp->queue.prev             = tqp->prev;
 80054bc:	6863      	ldr	r3, [r4, #4]
 80054be:	6995      	ldr	r5, [r2, #24]
    chSchGoSleepS(CH_STATE_WTSEM);
 80054c0:	2005      	movs	r0, #5
 80054c2:	e9c5 4300 	strd	r4, r3, [r5]
  tp->queue.prev->queue.next = tp;
 80054c6:	601d      	str	r5, [r3, #0]
    ctp->u.wtsemp = spw;
 80054c8:	626c      	str	r4, [r5, #36]	; 0x24
  tqp->prev                  = tp;
 80054ca:	6065      	str	r5, [r4, #4]
    chSchGoSleepS(CH_STATE_WTSEM);
 80054cc:	f7fd fde8 	bl	80030a0 <chSchGoSleepS>
    msg = ctp->u.rdymsg;
 80054d0:	6a68      	ldr	r0, [r5, #36]	; 0x24
 80054d2:	2300      	movs	r3, #0
 80054d4:	f383 8811 	msr	BASEPRI, r3
}
 80054d8:	bd38      	pop	{r3, r4, r5, pc}
  thread_t *tp = tqp->next;
 80054da:	6820      	ldr	r0, [r4, #0]
  tqp->next             = tp->queue.next;
 80054dc:	6803      	ldr	r3, [r0, #0]
  tqp->next->queue.prev = (thread_t *)tqp;
 80054de:	605c      	str	r4, [r3, #4]
  tqp->next             = tp->queue.next;
 80054e0:	6023      	str	r3, [r4, #0]
    chSchReadyI(queue_fifo_remove(&sps->queue))->u.rdymsg = MSG_OK;
 80054e2:	f7fc fae5 	bl	8001ab0 <chSchReadyI>
 80054e6:	2200      	movs	r2, #0
 80054e8:	68a3      	ldr	r3, [r4, #8]
 80054ea:	6242      	str	r2, [r0, #36]	; 0x24
 80054ec:	e7da      	b.n	80054a4 <chSemSignalWait.constprop.97+0x14>
 80054ee:	bf00      	nop
 80054f0:	20001528 	.word	0x20001528
 80054f4:	200012d0 	.word	0x200012d0
	...

08005500 <rt_test_005_005_execute>:

static void rt_test_005_005_teardown(void) {
  test_wait_threads();
}

static void rt_test_005_005_execute(void) {
 8005500:	b538      	push	{r3, r4, r5, lr}

  /* [5.5.1] An higher priority thread is created that performs
     non-atomical wait and signal operations on a semaphore.*/
  test_set_step(1);
 8005502:	2401      	movs	r4, #1
  return ch.rlist.current;
 8005504:	4b1d      	ldr	r3, [pc, #116]	; (800557c <rt_test_005_005_execute+0x7c>)
 8005506:	4d1e      	ldr	r5, [pc, #120]	; (8005580 <rt_test_005_005_execute+0x80>)
  return chThdGetSelfX()->prio;
 8005508:	699a      	ldr	r2, [r3, #24]
  {
    threads[0] = chThdCreateStatic(wa[0], WA_SIZE, chThdGetPriorityX()+1, thread3, 0);
 800550a:	481e      	ldr	r0, [pc, #120]	; (8005584 <rt_test_005_005_execute+0x84>)
 800550c:	6891      	ldr	r1, [r2, #8]
 800550e:	2300      	movs	r3, #0
 8005510:	4421      	add	r1, r4
 8005512:	4a1d      	ldr	r2, [pc, #116]	; (8005588 <rt_test_005_005_execute+0x88>)
  test_set_step(1);
 8005514:	602c      	str	r4, [r5, #0]
    threads[0] = chThdCreateStatic(wa[0], WA_SIZE, chThdGetPriorityX()+1, thread3, 0);
 8005516:	f7fd fd13 	bl	8002f40 <chThdCreateStatic.constprop.103>
  }

  /* [5.5.2] The function chSemSignalWait() is invoked by specifying
     the same semaphore for the wait and signal phases. The counter
     value must be one on exit.*/
  test_set_step(2);
 800551a:	2302      	movs	r3, #2
    threads[0] = chThdCreateStatic(wa[0], WA_SIZE, chThdGetPriorityX()+1, thread3, 0);
 800551c:	4a1b      	ldr	r2, [pc, #108]	; (800558c <rt_test_005_005_execute+0x8c>)
  return (bool)(tqp->next == (const thread_t *)tqp);
 800551e:	4c1c      	ldr	r4, [pc, #112]	; (8005590 <rt_test_005_005_execute+0x90>)
 8005520:	6010      	str	r0, [r2, #0]
  test_set_step(2);
 8005522:	602b      	str	r3, [r5, #0]
  {
    chSemSignalWait(&sem1, &sem1);
 8005524:	f7ff ffb4 	bl	8005490 <chSemSignalWait.constprop.97>
 8005528:	6820      	ldr	r0, [r4, #0]
    test_assert(queue_isempty(&sem1.queue), "queue not empty");
 800552a:	491a      	ldr	r1, [pc, #104]	; (8005594 <rt_test_005_005_execute+0x94>)
 800552c:	1b00      	subs	r0, r0, r4
 800552e:	fab0 f080 	clz	r0, r0
 8005532:	0940      	lsrs	r0, r0, #5
 8005534:	f7fb fa0c 	bl	8000950 <_test_assert>
 8005538:	b100      	cbz	r0, 800553c <rt_test_005_005_execute+0x3c>
  {
    chSemSignalWait(&sem1, &sem1);
    test_assert(queue_isempty(&sem1.queue), "queue not empty");
    test_assert(sem1.cnt == 0, "counter not zero");
  }
}
 800553a:	bd38      	pop	{r3, r4, r5, pc}
    test_assert(sem1.cnt == 0, "counter not zero");
 800553c:	68a0      	ldr	r0, [r4, #8]
 800553e:	4916      	ldr	r1, [pc, #88]	; (8005598 <rt_test_005_005_execute+0x98>)
 8005540:	fab0 f080 	clz	r0, r0
 8005544:	0940      	lsrs	r0, r0, #5
 8005546:	f7fb fa03 	bl	8000950 <_test_assert>
 800554a:	2800      	cmp	r0, #0
 800554c:	d1f5      	bne.n	800553a <rt_test_005_005_execute+0x3a>
  test_set_step(3);
 800554e:	2303      	movs	r3, #3
 8005550:	602b      	str	r3, [r5, #0]
    chSemSignalWait(&sem1, &sem1);
 8005552:	f7ff ff9d 	bl	8005490 <chSemSignalWait.constprop.97>
 8005556:	6820      	ldr	r0, [r4, #0]
    test_assert(queue_isempty(&sem1.queue), "queue not empty");
 8005558:	490e      	ldr	r1, [pc, #56]	; (8005594 <rt_test_005_005_execute+0x94>)
 800555a:	1b00      	subs	r0, r0, r4
 800555c:	fab0 f080 	clz	r0, r0
 8005560:	0940      	lsrs	r0, r0, #5
 8005562:	f7fb f9f5 	bl	8000950 <_test_assert>
 8005566:	2800      	cmp	r0, #0
 8005568:	d1e7      	bne.n	800553a <rt_test_005_005_execute+0x3a>
    test_assert(sem1.cnt == 0, "counter not zero");
 800556a:	68a0      	ldr	r0, [r4, #8]
 800556c:	490a      	ldr	r1, [pc, #40]	; (8005598 <rt_test_005_005_execute+0x98>)
 800556e:	fab0 f080 	clz	r0, r0
}
 8005572:	e8bd 4038 	ldmia.w	sp!, {r3, r4, r5, lr}
    test_assert(sem1.cnt == 0, "counter not zero");
 8005576:	0940      	lsrs	r0, r0, #5
 8005578:	f7fb b9ea 	b.w	8000950 <_test_assert>
 800557c:	200012d0 	.word	0x200012d0
 8005580:	20001c5c 	.word	0x20001c5c
 8005584:	20001548 	.word	0x20001548
 8005588:	080043f1 	.word	0x080043f1
 800558c:	20001c74 	.word	0x20001c74
 8005590:	20001528 	.word	0x20001528
 8005594:	0800b3b4 	.word	0x0800b3b4
 8005598:	0800b3c4 	.word	0x0800b3c4
 800559c:	00000000 	.word	0x00000000

080055a0 <chMBReset.constprop.72>:
void chMBReset(mailbox_t *mbp) {
 80055a0:	b538      	push	{r3, r4, r5, lr}
 80055a2:	2320      	movs	r3, #32
 80055a4:	f383 8811 	msr	BASEPRI, r3
  mbp->reset = true;
 80055a8:	2201      	movs	r2, #1
  mbp->cnt   = (size_t)0;
 80055aa:	2500      	movs	r5, #0
  mbp->wrptr = mbp->buffer;
 80055ac:	4c0b      	ldr	r4, [pc, #44]	; (80055dc <chMBReset.constprop.72+0x3c>)
  chThdDequeueAllI(&mbp->qw, MSG_RESET);
 80055ae:	f06f 0101 	mvn.w	r1, #1
  mbp->wrptr = mbp->buffer;
 80055b2:	6823      	ldr	r3, [r4, #0]
  chThdDequeueAllI(&mbp->qw, MSG_RESET);
 80055b4:	f104 0018 	add.w	r0, r4, #24
  mbp->reset = true;
 80055b8:	7522      	strb	r2, [r4, #20]
  mbp->rdptr = mbp->buffer;
 80055ba:	e9c4 3302 	strd	r3, r3, [r4, #8]
  mbp->cnt   = (size_t)0;
 80055be:	6125      	str	r5, [r4, #16]
  chThdDequeueAllI(&mbp->qw, MSG_RESET);
 80055c0:	f7fc fc26 	bl	8001e10 <chThdDequeueAllI>
  chThdDequeueAllI(&mbp->qr, MSG_RESET);
 80055c4:	f104 0020 	add.w	r0, r4, #32
 80055c8:	f06f 0101 	mvn.w	r1, #1
 80055cc:	f7fc fc20 	bl	8001e10 <chThdDequeueAllI>
  chSchRescheduleS();
 80055d0:	f7ff ff4e 	bl	8005470 <chSchRescheduleS>
 80055d4:	f385 8811 	msr	BASEPRI, r5
}
 80055d8:	bd38      	pop	{r3, r4, r5, pc}
 80055da:	bf00      	nop
 80055dc:	20000860 	.word	0x20000860

080055e0 <oslib_test_001_003_teardown>:

static void oslib_test_001_003_teardown(void) {
  chMBReset(&mb1);
 80055e0:	f7ff bfde 	b.w	80055a0 <chMBReset.constprop.72>
	...

080055f0 <oslib_test_001_002_teardown>:
 80055f0:	f7ff bff6 	b.w	80055e0 <oslib_test_001_003_teardown>
	...

08005600 <oslib_test_001_001_teardown>:
 8005600:	f7ff bfee 	b.w	80055e0 <oslib_test_001_003_teardown>
	...

08005610 <chMBPostTimeout.constprop.70>:
msg_t chMBPostTimeout(mailbox_t *mbp, msg_t msg, sysinterval_t timeout) {
 8005610:	b5f8      	push	{r3, r4, r5, r6, r7, lr}
 8005612:	4607      	mov	r7, r0
 8005614:	460e      	mov	r6, r1
 8005616:	2320      	movs	r3, #32
 8005618:	f383 8811 	msr	BASEPRI, r3
 800561c:	4c15      	ldr	r4, [pc, #84]	; (8005674 <chMBPostTimeout.constprop.70+0x64>)
    rdymsg = chThdEnqueueTimeoutS(&mbp->qw, timeout);
 800561e:	f104 0518 	add.w	r5, r4, #24
 8005622:	e00b      	b.n	800563c <chMBPostTimeout.constprop.70+0x2c>
 8005624:	6923      	ldr	r3, [r4, #16]
 8005626:	e9d4 1200 	ldrd	r1, r2, [r4]
 800562a:	1a50      	subs	r0, r2, r1
    if (chMBGetFreeCountI(mbp) > (size_t)0) {
 800562c:	ebb3 0fa0 	cmp.w	r3, r0, asr #2
 8005630:	d10d      	bne.n	800564e <chMBPostTimeout.constprop.70+0x3e>
    rdymsg = chThdEnqueueTimeoutS(&mbp->qw, timeout);
 8005632:	4631      	mov	r1, r6
 8005634:	4628      	mov	r0, r5
 8005636:	f7fd ff13 	bl	8003460 <chThdEnqueueTimeoutS>
  } while (rdymsg == MSG_OK);
 800563a:	b920      	cbnz	r0, 8005646 <chMBPostTimeout.constprop.70+0x36>
    if (mbp->reset) {
 800563c:	7d23      	ldrb	r3, [r4, #20]
 800563e:	2b00      	cmp	r3, #0
 8005640:	d0f0      	beq.n	8005624 <chMBPostTimeout.constprop.70+0x14>
      return MSG_RESET;
 8005642:	f06f 0001 	mvn.w	r0, #1
 8005646:	2300      	movs	r3, #0
 8005648:	f383 8811 	msr	BASEPRI, r3
}
 800564c:	bdf8      	pop	{r3, r4, r5, r6, r7, pc}
      *mbp->wrptr++ = msg;
 800564e:	68a5      	ldr	r5, [r4, #8]
      mbp->cnt++;
 8005650:	3301      	adds	r3, #1
      *mbp->wrptr++ = msg;
 8005652:	1d28      	adds	r0, r5, #4
 8005654:	60a0      	str	r0, [r4, #8]
      if (mbp->wrptr >= mbp->top) {
 8005656:	4282      	cmp	r2, r0
      *mbp->wrptr++ = msg;
 8005658:	602f      	str	r7, [r5, #0]
      chThdDequeueNextI(&mbp->qr, MSG_OK);
 800565a:	4807      	ldr	r0, [pc, #28]	; (8005678 <chMBPostTimeout.constprop.70+0x68>)
        mbp->wrptr = mbp->buffer;
 800565c:	bf98      	it	ls
 800565e:	60a1      	strls	r1, [r4, #8]
      mbp->cnt++;
 8005660:	6123      	str	r3, [r4, #16]
      chThdDequeueNextI(&mbp->qr, MSG_OK);
 8005662:	f7fc fa3d 	bl	8001ae0 <chThdDequeueNextI.constprop.101>
      chSchRescheduleS();
 8005666:	f7ff ff03 	bl	8005470 <chSchRescheduleS>
      return MSG_OK;
 800566a:	2000      	movs	r0, #0
 800566c:	2300      	movs	r3, #0
 800566e:	f383 8811 	msr	BASEPRI, r3
}
 8005672:	bdf8      	pop	{r3, r4, r5, r6, r7, pc}
 8005674:	20000860 	.word	0x20000860
 8005678:	20000880 	.word	0x20000880
 800567c:	00000000 	.word	0x00000000

08005680 <chMBPostAheadTimeout.constprop.67>:
msg_t chMBPostAheadTimeout(mailbox_t *mbp, msg_t msg, sysinterval_t timeout) {
 8005680:	b5f8      	push	{r3, r4, r5, r6, r7, lr}
 8005682:	4607      	mov	r7, r0
 8005684:	460e      	mov	r6, r1
 8005686:	2320      	movs	r3, #32
 8005688:	f383 8811 	msr	BASEPRI, r3
 800568c:	4c15      	ldr	r4, [pc, #84]	; (80056e4 <chMBPostAheadTimeout.constprop.67+0x64>)
    rdymsg = chThdEnqueueTimeoutS(&mbp->qw, timeout);
 800568e:	f104 0518 	add.w	r5, r4, #24
 8005692:	e00b      	b.n	80056ac <chMBPostAheadTimeout.constprop.67+0x2c>
 8005694:	6923      	ldr	r3, [r4, #16]
 8005696:	e9d4 2100 	ldrd	r2, r1, [r4]
 800569a:	1a88      	subs	r0, r1, r2
    if (chMBGetFreeCountI(mbp) > (size_t)0) {
 800569c:	ebb3 0fa0 	cmp.w	r3, r0, asr #2
 80056a0:	d10d      	bne.n	80056be <chMBPostAheadTimeout.constprop.67+0x3e>
    rdymsg = chThdEnqueueTimeoutS(&mbp->qw, timeout);
 80056a2:	4631      	mov	r1, r6
 80056a4:	4628      	mov	r0, r5
 80056a6:	f7fd fedb 	bl	8003460 <chThdEnqueueTimeoutS>
  } while (rdymsg == MSG_OK);
 80056aa:	b920      	cbnz	r0, 80056b6 <chMBPostAheadTimeout.constprop.67+0x36>
    if (mbp->reset) {
 80056ac:	7d23      	ldrb	r3, [r4, #20]
 80056ae:	2b00      	cmp	r3, #0
 80056b0:	d0f0      	beq.n	8005694 <chMBPostAheadTimeout.constprop.67+0x14>
      return MSG_RESET;
 80056b2:	f06f 0001 	mvn.w	r0, #1
 80056b6:	2300      	movs	r3, #0
 80056b8:	f383 8811 	msr	BASEPRI, r3
}
 80056bc:	bdf8      	pop	{r3, r4, r5, r6, r7, pc}
      if (--mbp->rdptr < mbp->buffer) {
 80056be:	68e0      	ldr	r0, [r4, #12]
      mbp->cnt++;
 80056c0:	3301      	adds	r3, #1
      if (--mbp->rdptr < mbp->buffer) {
 80056c2:	3804      	subs	r0, #4
 80056c4:	4282      	cmp	r2, r0
        mbp->rdptr = mbp->top - 1;
 80056c6:	bf88      	it	hi
 80056c8:	1f08      	subhi	r0, r1, #4
 80056ca:	60e0      	str	r0, [r4, #12]
      *mbp->rdptr = msg;
 80056cc:	6007      	str	r7, [r0, #0]
      chThdDequeueNextI(&mbp->qr, MSG_OK);
 80056ce:	4806      	ldr	r0, [pc, #24]	; (80056e8 <chMBPostAheadTimeout.constprop.67+0x68>)
      mbp->cnt++;
 80056d0:	6123      	str	r3, [r4, #16]
      chThdDequeueNextI(&mbp->qr, MSG_OK);
 80056d2:	f7fc fa05 	bl	8001ae0 <chThdDequeueNextI.constprop.101>
      chSchRescheduleS();
 80056d6:	f7ff fecb 	bl	8005470 <chSchRescheduleS>
      return MSG_OK;
 80056da:	2000      	movs	r0, #0
 80056dc:	2300      	movs	r3, #0
 80056de:	f383 8811 	msr	BASEPRI, r3
}
 80056e2:	bdf8      	pop	{r3, r4, r5, r6, r7, pc}
 80056e4:	20000860 	.word	0x20000860
 80056e8:	20000880 	.word	0x20000880
 80056ec:	00000000 	.word	0x00000000

080056f0 <chMBFetchTimeout.constprop.64>:
msg_t chMBFetchTimeout(mailbox_t *mbp, msg_t *msgp, sysinterval_t timeout) {
 80056f0:	b5f8      	push	{r3, r4, r5, r6, r7, lr}
 80056f2:	4607      	mov	r7, r0
 80056f4:	460e      	mov	r6, r1
 80056f6:	2320      	movs	r3, #32
 80056f8:	f383 8811 	msr	BASEPRI, r3
 80056fc:	4c15      	ldr	r4, [pc, #84]	; (8005754 <chMBFetchTimeout.constprop.64+0x64>)
    rdymsg = chThdEnqueueTimeoutS(&mbp->qr, timeout);
 80056fe:	18e5      	adds	r5, r4, r3
 8005700:	e006      	b.n	8005710 <chMBFetchTimeout.constprop.64+0x20>
 8005702:	6923      	ldr	r3, [r4, #16]
    if (chMBGetUsedCountI(mbp) > (size_t)0) {
 8005704:	b96b      	cbnz	r3, 8005722 <chMBFetchTimeout.constprop.64+0x32>
    rdymsg = chThdEnqueueTimeoutS(&mbp->qr, timeout);
 8005706:	4631      	mov	r1, r6
 8005708:	4628      	mov	r0, r5
 800570a:	f7fd fea9 	bl	8003460 <chThdEnqueueTimeoutS>
  } while (rdymsg == MSG_OK);
 800570e:	b920      	cbnz	r0, 800571a <chMBFetchTimeout.constprop.64+0x2a>
    if (mbp->reset) {
 8005710:	7d23      	ldrb	r3, [r4, #20]
 8005712:	2b00      	cmp	r3, #0
 8005714:	d0f5      	beq.n	8005702 <chMBFetchTimeout.constprop.64+0x12>
      return MSG_RESET;
 8005716:	f06f 0001 	mvn.w	r0, #1
 800571a:	2300      	movs	r3, #0
 800571c:	f383 8811 	msr	BASEPRI, r3
}
 8005720:	bdf8      	pop	{r3, r4, r5, r6, r7, pc}
      *msgp = *mbp->rdptr++;
 8005722:	68e1      	ldr	r1, [r4, #12]
      if (mbp->rdptr >= mbp->top) {
 8005724:	6860      	ldr	r0, [r4, #4]
      *msgp = *mbp->rdptr++;
 8005726:	1d0a      	adds	r2, r1, #4
      if (mbp->rdptr >= mbp->top) {
 8005728:	4282      	cmp	r2, r0
      *msgp = *mbp->rdptr++;
 800572a:	6809      	ldr	r1, [r1, #0]
 800572c:	60e2      	str	r2, [r4, #12]
        mbp->rdptr = mbp->buffer;
 800572e:	bf28      	it	cs
 8005730:	6822      	ldrcs	r2, [r4, #0]
      *msgp = *mbp->rdptr++;
 8005732:	6039      	str	r1, [r7, #0]
      mbp->cnt--;
 8005734:	f103 33ff 	add.w	r3, r3, #4294967295	; 0xffffffff
      chThdDequeueNextI(&mbp->qw, MSG_OK);
 8005738:	4807      	ldr	r0, [pc, #28]	; (8005758 <chMBFetchTimeout.constprop.64+0x68>)
        mbp->rdptr = mbp->buffer;
 800573a:	bf28      	it	cs
 800573c:	60e2      	strcs	r2, [r4, #12]
      mbp->cnt--;
 800573e:	6123      	str	r3, [r4, #16]
      chThdDequeueNextI(&mbp->qw, MSG_OK);
 8005740:	f7fc f9ce 	bl	8001ae0 <chThdDequeueNextI.constprop.101>
      chSchRescheduleS();
 8005744:	f7ff fe94 	bl	8005470 <chSchRescheduleS>
      return MSG_OK;
 8005748:	2000      	movs	r0, #0
 800574a:	2300      	movs	r3, #0
 800574c:	f383 8811 	msr	BASEPRI, r3
}
 8005750:	bdf8      	pop	{r3, r4, r5, r6, r7, pc}
 8005752:	bf00      	nop
 8005754:	20000860 	.word	0x20000860
 8005758:	20000878 	.word	0x20000878
 800575c:	00000000 	.word	0x00000000

08005760 <oslib_test_001_003_execute>:
static void oslib_test_001_003_execute(void) {
  msg_t msg1, msg2;
  unsigned i;

  /* [1.3.1] Filling the mailbox.*/
  test_set_step(1);
 8005760:	2301      	movs	r3, #1
static void oslib_test_001_003_execute(void) {
 8005762:	b570      	push	{r4, r5, r6, lr}
  test_set_step(1);
 8005764:	2442      	movs	r4, #66	; 0x42
 8005766:	4e40      	ldr	r6, [pc, #256]	; (8005868 <oslib_test_001_003_execute+0x108>)
  {
    for (i = 0; i < MB_SIZE; i++) {
      msg1 = chMBPostTimeout(&mb1, 'B' + i, TIME_INFINITE);
      test_assert(msg1 == MSG_OK, "wrong wake-up message");
 8005768:	4d40      	ldr	r5, [pc, #256]	; (800586c <oslib_test_001_003_execute+0x10c>)
static void oslib_test_001_003_execute(void) {
 800576a:	b082      	sub	sp, #8
  test_set_step(1);
 800576c:	6033      	str	r3, [r6, #0]
      msg1 = chMBPostTimeout(&mb1, 'B' + i, TIME_INFINITE);
 800576e:	f04f 31ff 	mov.w	r1, #4294967295	; 0xffffffff
 8005772:	4620      	mov	r0, r4
 8005774:	f7ff ff4c 	bl	8005610 <chMBPostTimeout.constprop.70>
      test_assert(msg1 == MSG_OK, "wrong wake-up message");
 8005778:	fab0 f080 	clz	r0, r0
 800577c:	4629      	mov	r1, r5
 800577e:	0940      	lsrs	r0, r0, #5
 8005780:	f7fb f8e6 	bl	8000950 <_test_assert>
 8005784:	3401      	adds	r4, #1
 8005786:	b988      	cbnz	r0, 80057ac <oslib_test_001_003_execute+0x4c>
    for (i = 0; i < MB_SIZE; i++) {
 8005788:	2c46      	cmp	r4, #70	; 0x46
 800578a:	d1f0      	bne.n	800576e <oslib_test_001_003_execute+0xe>
    }
  }

  /* [1.3.2] Testing chMBPostTimeout(), chMBPostI(),
     chMBPostAheadTimeout() and chMBPostAheadI() timeout.*/
  test_set_step(2);
 800578c:	2302      	movs	r3, #2
  {
    msg1 = chMBPostTimeout(&mb1, 'X', 1);
 800578e:	2101      	movs	r1, #1
 8005790:	2058      	movs	r0, #88	; 0x58
  test_set_step(2);
 8005792:	6033      	str	r3, [r6, #0]
    msg1 = chMBPostTimeout(&mb1, 'X', 1);
 8005794:	f7ff ff3c 	bl	8005610 <chMBPostTimeout.constprop.70>
    test_assert(msg1 == MSG_TIMEOUT, "wrong wake-up message");
 8005798:	f1a0 30ff 	sub.w	r0, r0, #4294967295	; 0xffffffff
 800579c:	fab0 f080 	clz	r0, r0
 80057a0:	4932      	ldr	r1, [pc, #200]	; (800586c <oslib_test_001_003_execute+0x10c>)
 80057a2:	0940      	lsrs	r0, r0, #5
 80057a4:	f7fb f8d4 	bl	8000950 <_test_assert>
 80057a8:	4604      	mov	r4, r0
 80057aa:	b108      	cbz	r0, 80057b0 <oslib_test_001_003_execute+0x50>
    chSysLock();
    msg1 = chMBFetchI(&mb1, &msg2);
    chSysUnlock();
    test_assert(msg1 == MSG_TIMEOUT, "wrong wake-up message");
  }
}
 80057ac:	b002      	add	sp, #8
 80057ae:	bd70      	pop	{r4, r5, r6, pc}
 80057b0:	2520      	movs	r5, #32
 80057b2:	f385 8811 	msr	BASEPRI, r5
    msg1 = chMBPostI(&mb1, 'X');
 80057b6:	2058      	movs	r0, #88	; 0x58
 80057b8:	f7fc f9a2 	bl	8001b00 <chMBPostI.constprop.69>
 80057bc:	f384 8811 	msr	BASEPRI, r4
    test_assert(msg1 == MSG_TIMEOUT, "wrong wake-up message");
 80057c0:	f1a0 30ff 	sub.w	r0, r0, #4294967295	; 0xffffffff
 80057c4:	fab0 f080 	clz	r0, r0
 80057c8:	4928      	ldr	r1, [pc, #160]	; (800586c <oslib_test_001_003_execute+0x10c>)
 80057ca:	0940      	lsrs	r0, r0, #5
 80057cc:	f7fb f8c0 	bl	8000950 <_test_assert>
 80057d0:	2800      	cmp	r0, #0
 80057d2:	d1eb      	bne.n	80057ac <oslib_test_001_003_execute+0x4c>
    msg1 = chMBPostAheadTimeout(&mb1, 'X', 1);
 80057d4:	2101      	movs	r1, #1
 80057d6:	2058      	movs	r0, #88	; 0x58
 80057d8:	f7ff ff52 	bl	8005680 <chMBPostAheadTimeout.constprop.67>
    test_assert(msg1 == MSG_TIMEOUT, "wrong wake-up message");
 80057dc:	f1a0 30ff 	sub.w	r0, r0, #4294967295	; 0xffffffff
 80057e0:	fab0 f080 	clz	r0, r0
 80057e4:	4921      	ldr	r1, [pc, #132]	; (800586c <oslib_test_001_003_execute+0x10c>)
 80057e6:	0940      	lsrs	r0, r0, #5
 80057e8:	f7fb f8b2 	bl	8000950 <_test_assert>
 80057ec:	4604      	mov	r4, r0
 80057ee:	2800      	cmp	r0, #0
 80057f0:	d1dc      	bne.n	80057ac <oslib_test_001_003_execute+0x4c>
 80057f2:	f385 8811 	msr	BASEPRI, r5
    msg1 = chMBPostAheadI(&mb1, 'X');
 80057f6:	2058      	movs	r0, #88	; 0x58
 80057f8:	f7fc f9aa 	bl	8001b50 <chMBPostAheadI.constprop.66>
 80057fc:	f384 8811 	msr	BASEPRI, r4
    test_assert(msg1 == MSG_TIMEOUT, "wrong wake-up message");
 8005800:	f1a0 30ff 	sub.w	r0, r0, #4294967295	; 0xffffffff
 8005804:	fab0 f080 	clz	r0, r0
 8005808:	4918      	ldr	r1, [pc, #96]	; (800586c <oslib_test_001_003_execute+0x10c>)
 800580a:	0940      	lsrs	r0, r0, #5
 800580c:	f7fb f8a0 	bl	8000950 <_test_assert>
 8005810:	4604      	mov	r4, r0
 8005812:	2800      	cmp	r0, #0
 8005814:	d1ca      	bne.n	80057ac <oslib_test_001_003_execute+0x4c>
  test_set_step(3);
 8005816:	2303      	movs	r3, #3
 8005818:	6033      	str	r3, [r6, #0]
    chMBReset(&mb1);
 800581a:	f7ff fec1 	bl	80055a0 <chMBReset.constprop.72>
  test_set_step(4);
 800581e:	2204      	movs	r2, #4
 *
 * @xclass
 */
static inline void chMBResumeX(mailbox_t *mbp) {

  mbp->reset = false;
 8005820:	4b13      	ldr	r3, [pc, #76]	; (8005870 <oslib_test_001_003_execute+0x110>)
    msg1 = chMBFetchTimeout(&mb1, &msg2, 1);
 8005822:	eb0d 0002 	add.w	r0, sp, r2
 8005826:	751c      	strb	r4, [r3, #20]
 8005828:	2101      	movs	r1, #1
  test_set_step(4);
 800582a:	6032      	str	r2, [r6, #0]
    msg1 = chMBFetchTimeout(&mb1, &msg2, 1);
 800582c:	f7ff ff60 	bl	80056f0 <chMBFetchTimeout.constprop.64>
    test_assert(msg1 == MSG_TIMEOUT, "wrong wake-up message");
 8005830:	f1a0 30ff 	sub.w	r0, r0, #4294967295	; 0xffffffff
 8005834:	fab0 f080 	clz	r0, r0
 8005838:	490c      	ldr	r1, [pc, #48]	; (800586c <oslib_test_001_003_execute+0x10c>)
 800583a:	0940      	lsrs	r0, r0, #5
 800583c:	f7fb f888 	bl	8000950 <_test_assert>
 8005840:	4604      	mov	r4, r0
 8005842:	2800      	cmp	r0, #0
 8005844:	d1b2      	bne.n	80057ac <oslib_test_001_003_execute+0x4c>
 8005846:	f385 8811 	msr	BASEPRI, r5
    msg1 = chMBFetchI(&mb1, &msg2);
 800584a:	a801      	add	r0, sp, #4
 800584c:	f7fc f9a8 	bl	8001ba0 <chMBFetchI.constprop.63>
 8005850:	f384 8811 	msr	BASEPRI, r4
    test_assert(msg1 == MSG_TIMEOUT, "wrong wake-up message");
 8005854:	f1a0 30ff 	sub.w	r0, r0, #4294967295	; 0xffffffff
 8005858:	fab0 f080 	clz	r0, r0
 800585c:	4903      	ldr	r1, [pc, #12]	; (800586c <oslib_test_001_003_execute+0x10c>)
 800585e:	0940      	lsrs	r0, r0, #5
 8005860:	f7fb f876 	bl	8000950 <_test_assert>
 8005864:	e7a2      	b.n	80057ac <oslib_test_001_003_execute+0x4c>
 8005866:	bf00      	nop
 8005868:	20001c5c 	.word	0x20001c5c
 800586c:	0800a478 	.word	0x0800a478
 8005870:	20000860 	.word	0x20000860
	...

08005880 <oslib_test_001_002_execute>:
static void oslib_test_001_002_execute(void) {
 8005880:	e92d 47f0 	stmdb	sp!, {r4, r5, r6, r7, r8, r9, sl, lr}
  test_set_step(1);
 8005884:	f04f 0801 	mov.w	r8, #1
 8005888:	4fae      	ldr	r7, [pc, #696]	; (8005b44 <oslib_test_001_002_execute+0x2c4>)
static void oslib_test_001_002_execute(void) {
 800588a:	b082      	sub	sp, #8
 800588c:	2620      	movs	r6, #32
  test_set_step(1);
 800588e:	f8c7 8000 	str.w	r8, [r7]
 8005892:	f386 8811 	msr	BASEPRI, r6
  return (size_t)(mbp->top - mbp->buffer);
 8005896:	4cac      	ldr	r4, [pc, #688]	; (8005b48 <oslib_test_001_002_execute+0x2c8>)
    test_assert_lock(chMBGetFreeCountI(&mb1) == MB_SIZE, "wrong size");
 8005898:	49ac      	ldr	r1, [pc, #688]	; (8005b4c <oslib_test_001_002_execute+0x2cc>)
  return chMBGetSizeI(mbp) - chMBGetUsedCountI(mbp);
 800589a:	6920      	ldr	r0, [r4, #16]
  return (size_t)(mbp->top - mbp->buffer);
 800589c:	e9d4 2300 	ldrd	r2, r3, [r4]
 80058a0:	1a9b      	subs	r3, r3, r2
  return chMBGetSizeI(mbp) - chMBGetUsedCountI(mbp);
 80058a2:	ebc0 00a3 	rsb	r0, r0, r3, asr #2
 80058a6:	f1a0 0004 	sub.w	r0, r0, #4
 80058aa:	fab0 f080 	clz	r0, r0
 80058ae:	0940      	lsrs	r0, r0, #5
 80058b0:	f7fb f84e 	bl	8000950 <_test_assert>
 80058b4:	b128      	cbz	r0, 80058c2 <oslib_test_001_002_execute+0x42>
 80058b6:	2300      	movs	r3, #0
 80058b8:	f383 8811 	msr	BASEPRI, r3
}
 80058bc:	b002      	add	sp, #8
 80058be:	e8bd 87f0 	ldmia.w	sp!, {r4, r5, r6, r7, r8, r9, sl, pc}
 80058c2:	4605      	mov	r5, r0
 80058c4:	f380 8811 	msr	BASEPRI, r0
  test_set_step(2);
 80058c8:	2302      	movs	r3, #2
 80058ca:	603b      	str	r3, [r7, #0]
 80058cc:	f386 8811 	msr	BASEPRI, r6
  mbp->wrptr = mbp->buffer;
 80058d0:	6823      	ldr	r3, [r4, #0]
  chThdDequeueAllI(&mbp->qw, MSG_RESET);
 80058d2:	f104 0018 	add.w	r0, r4, #24
 80058d6:	f06f 0101 	mvn.w	r1, #1
  mbp->rdptr = mbp->buffer;
 80058da:	e9c4 3302 	strd	r3, r3, [r4, #8]
  mbp->cnt   = (size_t)0;
 80058de:	6125      	str	r5, [r4, #16]
  mbp->reset = true;
 80058e0:	f884 8014 	strb.w	r8, [r4, #20]
  chThdDequeueAllI(&mbp->qw, MSG_RESET);
 80058e4:	f7fc fa94 	bl	8001e10 <chThdDequeueAllI>
  chThdDequeueAllI(&mbp->qr, MSG_RESET);
 80058e8:	f104 0020 	add.w	r0, r4, #32
 80058ec:	f06f 0101 	mvn.w	r1, #1
 80058f0:	f7fc fa8e 	bl	8001e10 <chThdDequeueAllI>
 80058f4:	f385 8811 	msr	BASEPRI, r5
 80058f8:	f386 8811 	msr	BASEPRI, r6
  return (size_t)(mbp->top - mbp->buffer);
 80058fc:	e9d4 2300 	ldrd	r2, r3, [r4]
  return chMBGetSizeI(mbp) - chMBGetUsedCountI(mbp);
 8005900:	6920      	ldr	r0, [r4, #16]
  return (size_t)(mbp->top - mbp->buffer);
 8005902:	1a9b      	subs	r3, r3, r2
  return chMBGetSizeI(mbp) - chMBGetUsedCountI(mbp);
 8005904:	ebc0 00a3 	rsb	r0, r0, r3, asr #2
    test_assert_lock(chMBGetFreeCountI(&mb1) == MB_SIZE, "not empty");
 8005908:	f1a0 0004 	sub.w	r0, r0, #4
 800590c:	fab0 f080 	clz	r0, r0
 8005910:	498f      	ldr	r1, [pc, #572]	; (8005b50 <oslib_test_001_002_execute+0x2d0>)
 8005912:	0940      	lsrs	r0, r0, #5
 8005914:	f7fb f81c 	bl	8000950 <_test_assert>
 8005918:	4680      	mov	r8, r0
 800591a:	b120      	cbz	r0, 8005926 <oslib_test_001_002_execute+0xa6>
 800591c:	f385 8811 	msr	BASEPRI, r5
}
 8005920:	b002      	add	sp, #8
 8005922:	e8bd 87f0 	ldmia.w	sp!, {r4, r5, r6, r7, r8, r9, sl, pc}
 8005926:	f380 8811 	msr	BASEPRI, r0
 800592a:	f386 8811 	msr	BASEPRI, r6
    test_assert_lock(chMBGetUsedCountI(&mb1) == 0, "still full");
 800592e:	6920      	ldr	r0, [r4, #16]
 8005930:	4988      	ldr	r1, [pc, #544]	; (8005b54 <oslib_test_001_002_execute+0x2d4>)
 8005932:	fab0 f080 	clz	r0, r0
 8005936:	0940      	lsrs	r0, r0, #5
 8005938:	f7fb f80a 	bl	8000950 <_test_assert>
 800593c:	4605      	mov	r5, r0
 800593e:	b110      	cbz	r0, 8005946 <oslib_test_001_002_execute+0xc6>
 8005940:	f388 8811 	msr	BASEPRI, r8
 8005944:	e7ba      	b.n	80058bc <oslib_test_001_002_execute+0x3c>
 8005946:	f380 8811 	msr	BASEPRI, r0
 800594a:	f386 8811 	msr	BASEPRI, r6
    test_assert_lock(mb1.buffer == mb1.wrptr, "write pointer not aligned to base");
 800594e:	6820      	ldr	r0, [r4, #0]
 8005950:	68a3      	ldr	r3, [r4, #8]
 8005952:	4981      	ldr	r1, [pc, #516]	; (8005b58 <oslib_test_001_002_execute+0x2d8>)
 8005954:	1ac0      	subs	r0, r0, r3
 8005956:	fab0 f080 	clz	r0, r0
 800595a:	0940      	lsrs	r0, r0, #5
 800595c:	f7fa fff8 	bl	8000950 <_test_assert>
 8005960:	4680      	mov	r8, r0
 8005962:	2800      	cmp	r0, #0
 8005964:	d1da      	bne.n	800591c <oslib_test_001_002_execute+0x9c>
 8005966:	f380 8811 	msr	BASEPRI, r0
 800596a:	f386 8811 	msr	BASEPRI, r6
    test_assert_lock(mb1.buffer == mb1.rdptr, "read pointer not aligned to base");
 800596e:	6820      	ldr	r0, [r4, #0]
 8005970:	68e3      	ldr	r3, [r4, #12]
 8005972:	497a      	ldr	r1, [pc, #488]	; (8005b5c <oslib_test_001_002_execute+0x2dc>)
 8005974:	1ac0      	subs	r0, r0, r3
 8005976:	fab0 f080 	clz	r0, r0
 800597a:	0940      	lsrs	r0, r0, #5
 800597c:	f7fa ffe8 	bl	8000950 <_test_assert>
 8005980:	2800      	cmp	r0, #0
 8005982:	d1dd      	bne.n	8005940 <oslib_test_001_002_execute+0xc0>
 8005984:	f380 8811 	msr	BASEPRI, r0
  test_set_step(3);
 8005988:	2303      	movs	r3, #3
 800598a:	4681      	mov	r9, r0
 800598c:	2542      	movs	r5, #66	; 0x42
      test_assert(msg1 == MSG_OK, "wrong wake-up message");
 800598e:	f8df a1d0 	ldr.w	sl, [pc, #464]	; 8005b60 <oslib_test_001_002_execute+0x2e0>
  mbp->reset = false;
 8005992:	7520      	strb	r0, [r4, #20]
  test_set_step(3);
 8005994:	603b      	str	r3, [r7, #0]
 8005996:	f386 8811 	msr	BASEPRI, r6
      msg1 = chMBPostI(&mb1, 'B' + i);
 800599a:	4628      	mov	r0, r5
 800599c:	f7fc f8b0 	bl	8001b00 <chMBPostI.constprop.69>
 80059a0:	f389 8811 	msr	BASEPRI, r9
      test_assert(msg1 == MSG_OK, "wrong wake-up message");
 80059a4:	fab0 f080 	clz	r0, r0
 80059a8:	4651      	mov	r1, sl
 80059aa:	0940      	lsrs	r0, r0, #5
 80059ac:	f7fa ffd0 	bl	8000950 <_test_assert>
 80059b0:	3501      	adds	r5, #1
 80059b2:	4680      	mov	r8, r0
 80059b4:	2800      	cmp	r0, #0
 80059b6:	d181      	bne.n	80058bc <oslib_test_001_002_execute+0x3c>
    for (i = 0; i < MB_SIZE - 1; i++) {
 80059b8:	2d45      	cmp	r5, #69	; 0x45
 80059ba:	d1ec      	bne.n	8005996 <oslib_test_001_002_execute+0x116>
 80059bc:	f386 8811 	msr	BASEPRI, r6
    msg1 = chMBPostAheadI(&mb1, 'A');
 80059c0:	2041      	movs	r0, #65	; 0x41
 80059c2:	f7fc f8c5 	bl	8001b50 <chMBPostAheadI.constprop.66>
 80059c6:	f388 8811 	msr	BASEPRI, r8
    test_assert(msg1 == MSG_OK, "wrong wake-up message");
 80059ca:	fab0 f080 	clz	r0, r0
 80059ce:	4964      	ldr	r1, [pc, #400]	; (8005b60 <oslib_test_001_002_execute+0x2e0>)
 80059d0:	0940      	lsrs	r0, r0, #5
 80059d2:	f7fa ffbd 	bl	8000950 <_test_assert>
 80059d6:	4605      	mov	r5, r0
 80059d8:	2800      	cmp	r0, #0
 80059da:	f47f af6f 	bne.w	80058bc <oslib_test_001_002_execute+0x3c>
  test_set_step(4);
 80059de:	f04f 0804 	mov.w	r8, #4
 80059e2:	f8c7 8000 	str.w	r8, [r7]
 80059e6:	f386 8811 	msr	BASEPRI, r6
    test_assert_lock(chMBGetFreeCountI(&mb1) == 0, "still empty");
 80059ea:	6922      	ldr	r2, [r4, #16]
  return (size_t)(mbp->top - mbp->buffer);
 80059ec:	e9d4 1300 	ldrd	r1, r3, [r4]
 80059f0:	1a5b      	subs	r3, r3, r1
 80059f2:	ebb2 0fa3 	cmp.w	r2, r3, asr #2
 80059f6:	bf0c      	ite	eq
 80059f8:	2001      	moveq	r0, #1
 80059fa:	2000      	movne	r0, #0
 80059fc:	4959      	ldr	r1, [pc, #356]	; (8005b64 <oslib_test_001_002_execute+0x2e4>)
 80059fe:	f7fa ffa7 	bl	8000950 <_test_assert>
 8005a02:	4681      	mov	r9, r0
 8005a04:	2800      	cmp	r0, #0
 8005a06:	d189      	bne.n	800591c <oslib_test_001_002_execute+0x9c>
 8005a08:	f380 8811 	msr	BASEPRI, r0
 8005a0c:	f386 8811 	msr	BASEPRI, r6
    test_assert_lock(chMBGetUsedCountI(&mb1) == MB_SIZE, "not full");
 8005a10:	6920      	ldr	r0, [r4, #16]
 8005a12:	4955      	ldr	r1, [pc, #340]	; (8005b68 <oslib_test_001_002_execute+0x2e8>)
 8005a14:	f1a0 0004 	sub.w	r0, r0, #4
 8005a18:	fab0 f080 	clz	r0, r0
 8005a1c:	0940      	lsrs	r0, r0, #5
 8005a1e:	f7fa ff97 	bl	8000950 <_test_assert>
 8005a22:	4605      	mov	r5, r0
 8005a24:	b110      	cbz	r0, 8005a2c <oslib_test_001_002_execute+0x1ac>
 8005a26:	f389 8811 	msr	BASEPRI, r9
 8005a2a:	e747      	b.n	80058bc <oslib_test_001_002_execute+0x3c>
 8005a2c:	f380 8811 	msr	BASEPRI, r0
 8005a30:	f386 8811 	msr	BASEPRI, r6
    test_assert_lock(mb1.rdptr == mb1.wrptr, "pointers not aligned");
 8005a34:	e9d4 3002 	ldrd	r3, r0, [r4, #8]
 8005a38:	1ac6      	subs	r6, r0, r3
 8005a3a:	4270      	negs	r0, r6
 8005a3c:	4170      	adcs	r0, r6
 8005a3e:	494b      	ldr	r1, [pc, #300]	; (8005b6c <oslib_test_001_002_execute+0x2ec>)
 8005a40:	f7fa ff86 	bl	8000950 <_test_assert>
 8005a44:	2800      	cmp	r0, #0
 8005a46:	f47f af69 	bne.w	800591c <oslib_test_001_002_execute+0x9c>
 8005a4a:	f380 8811 	msr	BASEPRI, r0
  test_set_step(5);
 8005a4e:	2305      	movs	r3, #5
 8005a50:	4645      	mov	r5, r8
 8005a52:	4606      	mov	r6, r0
 8005a54:	f04f 0820 	mov.w	r8, #32
      test_assert(msg1 == MSG_OK, "wrong wake-up message");
 8005a58:	f8df 9104 	ldr.w	r9, [pc, #260]	; 8005b60 <oslib_test_001_002_execute+0x2e0>
  test_set_step(5);
 8005a5c:	603b      	str	r3, [r7, #0]
 8005a5e:	f388 8811 	msr	BASEPRI, r8
      msg1 = chMBFetchI(&mb1, &msg2);
 8005a62:	a801      	add	r0, sp, #4
 8005a64:	f7fc f89c 	bl	8001ba0 <chMBFetchI.constprop.63>
 8005a68:	f386 8811 	msr	BASEPRI, r6
      test_assert(msg1 == MSG_OK, "wrong wake-up message");
 8005a6c:	fab0 f080 	clz	r0, r0
 8005a70:	4649      	mov	r1, r9
 8005a72:	0940      	lsrs	r0, r0, #5
 8005a74:	f7fa ff6c 	bl	8000950 <_test_assert>
 8005a78:	2800      	cmp	r0, #0
 8005a7a:	f47f af1f 	bne.w	80058bc <oslib_test_001_002_execute+0x3c>
      test_emit_token(msg2);
 8005a7e:	f89d 0004 	ldrb.w	r0, [sp, #4]
 8005a82:	f7fb f805 	bl	8000a90 <test_emit_token>
    for (i = 0; i < MB_SIZE; i++) {
 8005a86:	3d01      	subs	r5, #1
 8005a88:	d1e9      	bne.n	8005a5e <oslib_test_001_002_execute+0x1de>
    test_assert_sequence("ABCD", "wrong get sequence");
 8005a8a:	4939      	ldr	r1, [pc, #228]	; (8005b70 <oslib_test_001_002_execute+0x2f0>)
 8005a8c:	4839      	ldr	r0, [pc, #228]	; (8005b74 <oslib_test_001_002_execute+0x2f4>)
 8005a8e:	f7fb f877 	bl	8000b80 <_test_assert_sequence>
 8005a92:	2800      	cmp	r0, #0
 8005a94:	f47f af12 	bne.w	80058bc <oslib_test_001_002_execute+0x3c>
  test_set_step(6);
 8005a98:	2306      	movs	r3, #6
    msg1 = chMBPostTimeout(&mb1, 'B' + i, TIME_INFINITE);
 8005a9a:	f04f 31ff 	mov.w	r1, #4294967295	; 0xffffffff
 8005a9e:	2046      	movs	r0, #70	; 0x46
  test_set_step(6);
 8005aa0:	603b      	str	r3, [r7, #0]
    msg1 = chMBPostTimeout(&mb1, 'B' + i, TIME_INFINITE);
 8005aa2:	f7ff fdb5 	bl	8005610 <chMBPostTimeout.constprop.70>
    test_assert(msg1 == MSG_OK, "wrong wake-up message");
 8005aa6:	fab0 f080 	clz	r0, r0
 8005aaa:	492d      	ldr	r1, [pc, #180]	; (8005b60 <oslib_test_001_002_execute+0x2e0>)
 8005aac:	0940      	lsrs	r0, r0, #5
 8005aae:	f7fa ff4f 	bl	8000950 <_test_assert>
 8005ab2:	2800      	cmp	r0, #0
 8005ab4:	f47f af02 	bne.w	80058bc <oslib_test_001_002_execute+0x3c>
    msg1 = chMBFetchTimeout(&mb1, &msg2, TIME_INFINITE);
 8005ab8:	f04f 31ff 	mov.w	r1, #4294967295	; 0xffffffff
 8005abc:	a801      	add	r0, sp, #4
 8005abe:	f7ff fe17 	bl	80056f0 <chMBFetchTimeout.constprop.64>
    test_assert(msg1 == MSG_OK, "wrong wake-up message");
 8005ac2:	fab0 f080 	clz	r0, r0
 8005ac6:	4926      	ldr	r1, [pc, #152]	; (8005b60 <oslib_test_001_002_execute+0x2e0>)
 8005ac8:	0940      	lsrs	r0, r0, #5
 8005aca:	f7fa ff41 	bl	8000950 <_test_assert>
 8005ace:	2800      	cmp	r0, #0
 8005ad0:	f47f aef4 	bne.w	80058bc <oslib_test_001_002_execute+0x3c>
  test_set_step(7);
 8005ad4:	2307      	movs	r3, #7
 8005ad6:	603b      	str	r3, [r7, #0]
 8005ad8:	f388 8811 	msr	BASEPRI, r8
  return chMBGetSizeI(mbp) - chMBGetUsedCountI(mbp);
 8005adc:	6923      	ldr	r3, [r4, #16]
  return (size_t)(mbp->top - mbp->buffer);
 8005ade:	e9d4 1200 	ldrd	r1, r2, [r4]
 8005ae2:	1a52      	subs	r2, r2, r1
  return chMBGetSizeI(mbp) - chMBGetUsedCountI(mbp);
 8005ae4:	ebc3 03a2 	rsb	r3, r3, r2, asr #2
    test_assert_lock(chMBGetFreeCountI(&mb1) == MB_SIZE, "not empty");
 8005ae8:	1f19      	subs	r1, r3, #4
 8005aea:	4248      	negs	r0, r1
 8005aec:	4148      	adcs	r0, r1
 8005aee:	4918      	ldr	r1, [pc, #96]	; (8005b50 <oslib_test_001_002_execute+0x2d0>)
 8005af0:	f7fa ff2e 	bl	8000950 <_test_assert>
 8005af4:	2800      	cmp	r0, #0
 8005af6:	f47f af11 	bne.w	800591c <oslib_test_001_002_execute+0x9c>
 8005afa:	f385 8811 	msr	BASEPRI, r5
 8005afe:	f388 8811 	msr	BASEPRI, r8
    test_assert_lock(chMBGetUsedCountI(&mb1) == 0, "still full");
 8005b02:	6920      	ldr	r0, [r4, #16]
 8005b04:	4913      	ldr	r1, [pc, #76]	; (8005b54 <oslib_test_001_002_execute+0x2d4>)
 8005b06:	fab0 f080 	clz	r0, r0
 8005b0a:	0940      	lsrs	r0, r0, #5
 8005b0c:	f7fa ff20 	bl	8000950 <_test_assert>
 8005b10:	2800      	cmp	r0, #0
 8005b12:	f47f af03 	bne.w	800591c <oslib_test_001_002_execute+0x9c>
 8005b16:	f385 8811 	msr	BASEPRI, r5
    test_assert(mb1.buffer == mb1.wrptr, "write pointer not aligned to base");
 8005b1a:	6820      	ldr	r0, [r4, #0]
 8005b1c:	68a3      	ldr	r3, [r4, #8]
 8005b1e:	490e      	ldr	r1, [pc, #56]	; (8005b58 <oslib_test_001_002_execute+0x2d8>)
 8005b20:	1ac2      	subs	r2, r0, r3
 8005b22:	4250      	negs	r0, r2
 8005b24:	4150      	adcs	r0, r2
 8005b26:	f7fa ff13 	bl	8000950 <_test_assert>
 8005b2a:	2800      	cmp	r0, #0
 8005b2c:	f47f aec6 	bne.w	80058bc <oslib_test_001_002_execute+0x3c>
    test_assert(mb1.buffer == mb1.rdptr, "read pointer not aligned to base");
 8005b30:	6820      	ldr	r0, [r4, #0]
 8005b32:	68e3      	ldr	r3, [r4, #12]
 8005b34:	4909      	ldr	r1, [pc, #36]	; (8005b5c <oslib_test_001_002_execute+0x2dc>)
 8005b36:	1ac3      	subs	r3, r0, r3
 8005b38:	4258      	negs	r0, r3
 8005b3a:	4158      	adcs	r0, r3
 8005b3c:	f7fa ff08 	bl	8000950 <_test_assert>
 8005b40:	e6bc      	b.n	80058bc <oslib_test_001_002_execute+0x3c>
 8005b42:	bf00      	nop
 8005b44:	20001c5c 	.word	0x20001c5c
 8005b48:	20000860 	.word	0x20000860
 8005b4c:	0800a3b0 	.word	0x0800a3b0
 8005b50:	0800a3bc 	.word	0x0800a3bc
 8005b54:	0800a3c8 	.word	0x0800a3c8
 8005b58:	0800a3d4 	.word	0x0800a3d4
 8005b5c:	0800a3f8 	.word	0x0800a3f8
 8005b60:	0800a478 	.word	0x0800a478
 8005b64:	0800a41c 	.word	0x0800a41c
 8005b68:	0800a428 	.word	0x0800a428
 8005b6c:	0800a434 	.word	0x0800a434
 8005b70:	0800a44c 	.word	0x0800a44c
 8005b74:	0800a460 	.word	0x0800a460
	...

08005b80 <oslib_test_001_001_execute>:
  test_set_step(1);
 8005b80:	2301      	movs	r3, #1
static void oslib_test_001_001_execute(void) {
 8005b82:	e92d 41f0 	stmdb	sp!, {r4, r5, r6, r7, r8, lr}
  test_set_step(1);
 8005b86:	4fb3      	ldr	r7, [pc, #716]	; (8005e54 <oslib_test_001_001_execute+0x2d4>)
static void oslib_test_001_001_execute(void) {
 8005b88:	b082      	sub	sp, #8
 8005b8a:	2620      	movs	r6, #32
  test_set_step(1);
 8005b8c:	603b      	str	r3, [r7, #0]
 8005b8e:	f386 8811 	msr	BASEPRI, r6
  return (size_t)(mbp->top - mbp->buffer);
 8005b92:	4cb1      	ldr	r4, [pc, #708]	; (8005e58 <oslib_test_001_001_execute+0x2d8>)
    test_assert_lock(chMBGetFreeCountI(&mb1) == MB_SIZE, "wrong size");
 8005b94:	49b1      	ldr	r1, [pc, #708]	; (8005e5c <oslib_test_001_001_execute+0x2dc>)
  return chMBGetSizeI(mbp) - chMBGetUsedCountI(mbp);
 8005b96:	6920      	ldr	r0, [r4, #16]
  return (size_t)(mbp->top - mbp->buffer);
 8005b98:	e9d4 2300 	ldrd	r2, r3, [r4]
 8005b9c:	1a9b      	subs	r3, r3, r2
  return chMBGetSizeI(mbp) - chMBGetUsedCountI(mbp);
 8005b9e:	ebc0 00a3 	rsb	r0, r0, r3, asr #2
 8005ba2:	f1a0 0004 	sub.w	r0, r0, #4
 8005ba6:	fab0 f080 	clz	r0, r0
 8005baa:	0940      	lsrs	r0, r0, #5
 8005bac:	f7fa fed0 	bl	8000950 <_test_assert>
 8005bb0:	b128      	cbz	r0, 8005bbe <oslib_test_001_001_execute+0x3e>
 8005bb2:	2300      	movs	r3, #0
 8005bb4:	f383 8811 	msr	BASEPRI, r3
}
 8005bb8:	b002      	add	sp, #8
 8005bba:	e8bd 81f0 	ldmia.w	sp!, {r4, r5, r6, r7, r8, pc}
 8005bbe:	4605      	mov	r5, r0
 8005bc0:	f380 8811 	msr	BASEPRI, r0
  test_set_step(2);
 8005bc4:	2302      	movs	r3, #2
 8005bc6:	603b      	str	r3, [r7, #0]
    chMBReset(&mb1);
 8005bc8:	f7ff fcea 	bl	80055a0 <chMBReset.constprop.72>
 8005bcc:	f386 8811 	msr	BASEPRI, r6
  return (size_t)(mbp->top - mbp->buffer);
 8005bd0:	e9d4 2300 	ldrd	r2, r3, [r4]
  return chMBGetSizeI(mbp) - chMBGetUsedCountI(mbp);
 8005bd4:	6920      	ldr	r0, [r4, #16]
  return (size_t)(mbp->top - mbp->buffer);
 8005bd6:	1a9b      	subs	r3, r3, r2
  return chMBGetSizeI(mbp) - chMBGetUsedCountI(mbp);
 8005bd8:	ebc0 00a3 	rsb	r0, r0, r3, asr #2
    test_assert_lock(chMBGetFreeCountI(&mb1) == MB_SIZE, "not empty");
 8005bdc:	f1a0 0004 	sub.w	r0, r0, #4
 8005be0:	fab0 f080 	clz	r0, r0
 8005be4:	499e      	ldr	r1, [pc, #632]	; (8005e60 <oslib_test_001_001_execute+0x2e0>)
 8005be6:	0940      	lsrs	r0, r0, #5
 8005be8:	f7fa feb2 	bl	8000950 <_test_assert>
 8005bec:	4680      	mov	r8, r0
 8005bee:	b120      	cbz	r0, 8005bfa <oslib_test_001_001_execute+0x7a>
 8005bf0:	f385 8811 	msr	BASEPRI, r5
}
 8005bf4:	b002      	add	sp, #8
 8005bf6:	e8bd 81f0 	ldmia.w	sp!, {r4, r5, r6, r7, r8, pc}
 8005bfa:	f380 8811 	msr	BASEPRI, r0
 8005bfe:	f386 8811 	msr	BASEPRI, r6
    test_assert_lock(chMBGetUsedCountI(&mb1) == 0, "still full");
 8005c02:	6920      	ldr	r0, [r4, #16]
 8005c04:	4997      	ldr	r1, [pc, #604]	; (8005e64 <oslib_test_001_001_execute+0x2e4>)
 8005c06:	fab0 f080 	clz	r0, r0
 8005c0a:	0940      	lsrs	r0, r0, #5
 8005c0c:	f7fa fea0 	bl	8000950 <_test_assert>
 8005c10:	4605      	mov	r5, r0
 8005c12:	b110      	cbz	r0, 8005c1a <oslib_test_001_001_execute+0x9a>
 8005c14:	f388 8811 	msr	BASEPRI, r8
 8005c18:	e7ce      	b.n	8005bb8 <oslib_test_001_001_execute+0x38>
 8005c1a:	f380 8811 	msr	BASEPRI, r0
 8005c1e:	f386 8811 	msr	BASEPRI, r6
    test_assert_lock(mb1.buffer == mb1.wrptr, "write pointer not aligned to base");
 8005c22:	6820      	ldr	r0, [r4, #0]
 8005c24:	68a3      	ldr	r3, [r4, #8]
 8005c26:	4990      	ldr	r1, [pc, #576]	; (8005e68 <oslib_test_001_001_execute+0x2e8>)
 8005c28:	1ac0      	subs	r0, r0, r3
 8005c2a:	fab0 f080 	clz	r0, r0
 8005c2e:	0940      	lsrs	r0, r0, #5
 8005c30:	f7fa fe8e 	bl	8000950 <_test_assert>
 8005c34:	4680      	mov	r8, r0
 8005c36:	2800      	cmp	r0, #0
 8005c38:	d1da      	bne.n	8005bf0 <oslib_test_001_001_execute+0x70>
 8005c3a:	f380 8811 	msr	BASEPRI, r0
 8005c3e:	f386 8811 	msr	BASEPRI, r6
    test_assert_lock(mb1.buffer == mb1.rdptr, "read pointer not aligned to base");
 8005c42:	6820      	ldr	r0, [r4, #0]
 8005c44:	68e3      	ldr	r3, [r4, #12]
 8005c46:	4989      	ldr	r1, [pc, #548]	; (8005e6c <oslib_test_001_001_execute+0x2ec>)
 8005c48:	1ac0      	subs	r0, r0, r3
 8005c4a:	fab0 f080 	clz	r0, r0
 8005c4e:	0940      	lsrs	r0, r0, #5
 8005c50:	f7fa fe7e 	bl	8000950 <_test_assert>
 8005c54:	2800      	cmp	r0, #0
 8005c56:	d1dd      	bne.n	8005c14 <oslib_test_001_001_execute+0x94>
 8005c58:	f380 8811 	msr	BASEPRI, r0
  test_set_step(3);
 8005c5c:	2303      	movs	r3, #3
    msg1 = chMBPostTimeout(&mb1, (msg_t)0, TIME_INFINITE);
 8005c5e:	f04f 31ff 	mov.w	r1, #4294967295	; 0xffffffff
  test_set_step(3);
 8005c62:	603b      	str	r3, [r7, #0]
    msg1 = chMBPostTimeout(&mb1, (msg_t)0, TIME_INFINITE);
 8005c64:	f7ff fcd4 	bl	8005610 <chMBPostTimeout.constprop.70>
    test_assert(msg1 == MSG_RESET, "not in reset state");
 8005c68:	1c85      	adds	r5, r0, #2
 8005c6a:	bf14      	ite	ne
 8005c6c:	2000      	movne	r0, #0
 8005c6e:	2001      	moveq	r0, #1
 8005c70:	497f      	ldr	r1, [pc, #508]	; (8005e70 <oslib_test_001_001_execute+0x2f0>)
 8005c72:	f7fa fe6d 	bl	8000950 <_test_assert>
 8005c76:	2800      	cmp	r0, #0
 8005c78:	d19e      	bne.n	8005bb8 <oslib_test_001_001_execute+0x38>
    msg1 = chMBPostAheadTimeout(&mb1, (msg_t)0, TIME_INFINITE);
 8005c7a:	f04f 31ff 	mov.w	r1, #4294967295	; 0xffffffff
 8005c7e:	f7ff fcff 	bl	8005680 <chMBPostAheadTimeout.constprop.67>
    test_assert(msg1 == MSG_RESET, "not in reset state");
 8005c82:	1c82      	adds	r2, r0, #2
 8005c84:	bf14      	ite	ne
 8005c86:	2000      	movne	r0, #0
 8005c88:	2001      	moveq	r0, #1
 8005c8a:	4979      	ldr	r1, [pc, #484]	; (8005e70 <oslib_test_001_001_execute+0x2f0>)
 8005c8c:	f7fa fe60 	bl	8000950 <_test_assert>
 8005c90:	2800      	cmp	r0, #0
 8005c92:	d191      	bne.n	8005bb8 <oslib_test_001_001_execute+0x38>
    msg1 = chMBFetchTimeout(&mb1, &msg2, TIME_INFINITE);
 8005c94:	f04f 31ff 	mov.w	r1, #4294967295	; 0xffffffff
 8005c98:	a801      	add	r0, sp, #4
 8005c9a:	f7ff fd29 	bl	80056f0 <chMBFetchTimeout.constprop.64>
    test_assert(msg1 == MSG_RESET, "not in reset state");
 8005c9e:	1c83      	adds	r3, r0, #2
 8005ca0:	bf14      	ite	ne
 8005ca2:	2000      	movne	r0, #0
 8005ca4:	2001      	moveq	r0, #1
 8005ca6:	4972      	ldr	r1, [pc, #456]	; (8005e70 <oslib_test_001_001_execute+0x2f0>)
 8005ca8:	f7fa fe52 	bl	8000950 <_test_assert>
 8005cac:	2800      	cmp	r0, #0
 8005cae:	d183      	bne.n	8005bb8 <oslib_test_001_001_execute+0x38>
  test_set_step(4);
 8005cb0:	2304      	movs	r3, #4
 8005cb2:	2542      	movs	r5, #66	; 0x42
      test_assert(msg1 == MSG_OK, "wrong wake-up message");
 8005cb4:	4e6f      	ldr	r6, [pc, #444]	; (8005e74 <oslib_test_001_001_execute+0x2f4>)
  mbp->reset = false;
 8005cb6:	7520      	strb	r0, [r4, #20]
  test_set_step(4);
 8005cb8:	603b      	str	r3, [r7, #0]
      msg1 = chMBPostTimeout(&mb1, 'B' + i, TIME_INFINITE);
 8005cba:	f04f 31ff 	mov.w	r1, #4294967295	; 0xffffffff
 8005cbe:	4628      	mov	r0, r5
 8005cc0:	f7ff fca6 	bl	8005610 <chMBPostTimeout.constprop.70>
      test_assert(msg1 == MSG_OK, "wrong wake-up message");
 8005cc4:	fab0 f080 	clz	r0, r0
 8005cc8:	4631      	mov	r1, r6
 8005cca:	0940      	lsrs	r0, r0, #5
 8005ccc:	f7fa fe40 	bl	8000950 <_test_assert>
 8005cd0:	3501      	adds	r5, #1
 8005cd2:	2800      	cmp	r0, #0
 8005cd4:	f47f af70 	bne.w	8005bb8 <oslib_test_001_001_execute+0x38>
    for (i = 0; i < MB_SIZE - 1; i++) {
 8005cd8:	2d45      	cmp	r5, #69	; 0x45
 8005cda:	d1ee      	bne.n	8005cba <oslib_test_001_001_execute+0x13a>
    msg1 = chMBPostAheadTimeout(&mb1, 'A', TIME_INFINITE);
 8005cdc:	f04f 31ff 	mov.w	r1, #4294967295	; 0xffffffff
 8005ce0:	2041      	movs	r0, #65	; 0x41
 8005ce2:	f7ff fccd 	bl	8005680 <chMBPostAheadTimeout.constprop.67>
    test_assert(msg1 == MSG_OK, "wrong wake-up message");
 8005ce6:	fab0 f080 	clz	r0, r0
 8005cea:	4962      	ldr	r1, [pc, #392]	; (8005e74 <oslib_test_001_001_execute+0x2f4>)
 8005cec:	0940      	lsrs	r0, r0, #5
 8005cee:	f7fa fe2f 	bl	8000950 <_test_assert>
 8005cf2:	4605      	mov	r5, r0
 8005cf4:	2800      	cmp	r0, #0
 8005cf6:	f47f af5f 	bne.w	8005bb8 <oslib_test_001_001_execute+0x38>
  test_set_step(5);
 8005cfa:	2305      	movs	r3, #5
 8005cfc:	2620      	movs	r6, #32
 8005cfe:	603b      	str	r3, [r7, #0]
 8005d00:	f386 8811 	msr	BASEPRI, r6
    test_assert_lock(chMBGetFreeCountI(&mb1) == 0, "still empty");
 8005d04:	6922      	ldr	r2, [r4, #16]
  return (size_t)(mbp->top - mbp->buffer);
 8005d06:	e9d4 1300 	ldrd	r1, r3, [r4]
 8005d0a:	1a5b      	subs	r3, r3, r1
 8005d0c:	ebb2 0fa3 	cmp.w	r2, r3, asr #2
 8005d10:	bf0c      	ite	eq
 8005d12:	2001      	moveq	r0, #1
 8005d14:	2000      	movne	r0, #0
 8005d16:	4958      	ldr	r1, [pc, #352]	; (8005e78 <oslib_test_001_001_execute+0x2f8>)
 8005d18:	f7fa fe1a 	bl	8000950 <_test_assert>
 8005d1c:	4680      	mov	r8, r0
 8005d1e:	2800      	cmp	r0, #0
 8005d20:	f47f af66 	bne.w	8005bf0 <oslib_test_001_001_execute+0x70>
 8005d24:	f380 8811 	msr	BASEPRI, r0
 8005d28:	f386 8811 	msr	BASEPRI, r6
    test_assert_lock(chMBGetUsedCountI(&mb1) == MB_SIZE, "not full");
 8005d2c:	6920      	ldr	r0, [r4, #16]
 8005d2e:	4953      	ldr	r1, [pc, #332]	; (8005e7c <oslib_test_001_001_execute+0x2fc>)
 8005d30:	f1a0 0c04 	sub.w	ip, r0, #4
 8005d34:	f1dc 0000 	rsbs	r0, ip, #0
 8005d38:	eb40 000c 	adc.w	r0, r0, ip
 8005d3c:	f7fa fe08 	bl	8000950 <_test_assert>
 8005d40:	4605      	mov	r5, r0
 8005d42:	2800      	cmp	r0, #0
 8005d44:	f47f af66 	bne.w	8005c14 <oslib_test_001_001_execute+0x94>
 8005d48:	f380 8811 	msr	BASEPRI, r0
 8005d4c:	f386 8811 	msr	BASEPRI, r6
    test_assert_lock(mb1.rdptr == mb1.wrptr, "pointers not aligned");
 8005d50:	e9d4 3002 	ldrd	r3, r0, [r4, #8]
 8005d54:	1ac6      	subs	r6, r0, r3
 8005d56:	4270      	negs	r0, r6
 8005d58:	4170      	adcs	r0, r6
 8005d5a:	4949      	ldr	r1, [pc, #292]	; (8005e80 <oslib_test_001_001_execute+0x300>)
 8005d5c:	f7fa fdf8 	bl	8000950 <_test_assert>
 8005d60:	2800      	cmp	r0, #0
 8005d62:	f47f af45 	bne.w	8005bf0 <oslib_test_001_001_execute+0x70>
 8005d66:	f380 8811 	msr	BASEPRI, r0
  test_set_step(6);
 8005d6a:	2306      	movs	r3, #6
 8005d6c:	2504      	movs	r5, #4
      test_assert(msg1 == MSG_OK, "wrong wake-up message");
 8005d6e:	4e41      	ldr	r6, [pc, #260]	; (8005e74 <oslib_test_001_001_execute+0x2f4>)
  test_set_step(6);
 8005d70:	603b      	str	r3, [r7, #0]
      msg1 = chMBFetchTimeout(&mb1, &msg2, TIME_INFINITE);
 8005d72:	f04f 31ff 	mov.w	r1, #4294967295	; 0xffffffff
 8005d76:	a801      	add	r0, sp, #4
 8005d78:	f7ff fcba 	bl	80056f0 <chMBFetchTimeout.constprop.64>
      test_assert(msg1 == MSG_OK, "wrong wake-up message");
 8005d7c:	fab0 f080 	clz	r0, r0
 8005d80:	4631      	mov	r1, r6
 8005d82:	0940      	lsrs	r0, r0, #5
 8005d84:	f7fa fde4 	bl	8000950 <_test_assert>
 8005d88:	2800      	cmp	r0, #0
 8005d8a:	f47f af15 	bne.w	8005bb8 <oslib_test_001_001_execute+0x38>
      test_emit_token(msg2);
 8005d8e:	f89d 0004 	ldrb.w	r0, [sp, #4]
 8005d92:	f7fa fe7d 	bl	8000a90 <test_emit_token>
    for (i = 0; i < MB_SIZE; i++) {
 8005d96:	3d01      	subs	r5, #1
 8005d98:	d1eb      	bne.n	8005d72 <oslib_test_001_001_execute+0x1f2>
    test_assert_sequence("ABCD", "wrong get sequence");
 8005d9a:	493a      	ldr	r1, [pc, #232]	; (8005e84 <oslib_test_001_001_execute+0x304>)
 8005d9c:	483a      	ldr	r0, [pc, #232]	; (8005e88 <oslib_test_001_001_execute+0x308>)
 8005d9e:	f7fa feef 	bl	8000b80 <_test_assert_sequence>
 8005da2:	2800      	cmp	r0, #0
 8005da4:	f47f af08 	bne.w	8005bb8 <oslib_test_001_001_execute+0x38>
  test_set_step(7);
 8005da8:	2307      	movs	r3, #7
    msg1 = chMBPostTimeout(&mb1, 'B' + i, TIME_INFINITE);
 8005daa:	f04f 31ff 	mov.w	r1, #4294967295	; 0xffffffff
 8005dae:	2046      	movs	r0, #70	; 0x46
  test_set_step(7);
 8005db0:	603b      	str	r3, [r7, #0]
    msg1 = chMBPostTimeout(&mb1, 'B' + i, TIME_INFINITE);
 8005db2:	f7ff fc2d 	bl	8005610 <chMBPostTimeout.constprop.70>
    test_assert(msg1 == MSG_OK, "wrong wake-up message");
 8005db6:	fab0 f080 	clz	r0, r0
 8005dba:	492e      	ldr	r1, [pc, #184]	; (8005e74 <oslib_test_001_001_execute+0x2f4>)
 8005dbc:	0940      	lsrs	r0, r0, #5
 8005dbe:	f7fa fdc7 	bl	8000950 <_test_assert>
 8005dc2:	2800      	cmp	r0, #0
 8005dc4:	f47f aef8 	bne.w	8005bb8 <oslib_test_001_001_execute+0x38>
    msg1 = chMBFetchTimeout(&mb1, &msg2, TIME_INFINITE);
 8005dc8:	f04f 31ff 	mov.w	r1, #4294967295	; 0xffffffff
 8005dcc:	a801      	add	r0, sp, #4
 8005dce:	f7ff fc8f 	bl	80056f0 <chMBFetchTimeout.constprop.64>
    test_assert(msg1 == MSG_OK, "wrong wake-up message");
 8005dd2:	fab0 f080 	clz	r0, r0
 8005dd6:	4927      	ldr	r1, [pc, #156]	; (8005e74 <oslib_test_001_001_execute+0x2f4>)
 8005dd8:	0940      	lsrs	r0, r0, #5
 8005dda:	f7fa fdb9 	bl	8000950 <_test_assert>
 8005dde:	2800      	cmp	r0, #0
 8005de0:	f47f aeea 	bne.w	8005bb8 <oslib_test_001_001_execute+0x38>
  test_set_step(8);
 8005de4:	2308      	movs	r3, #8
 8005de6:	2620      	movs	r6, #32
 8005de8:	603b      	str	r3, [r7, #0]
 8005dea:	f386 8811 	msr	BASEPRI, r6
  return chMBGetSizeI(mbp) - chMBGetUsedCountI(mbp);
 8005dee:	6923      	ldr	r3, [r4, #16]
  return (size_t)(mbp->top - mbp->buffer);
 8005df0:	e9d4 1200 	ldrd	r1, r2, [r4]
 8005df4:	1a52      	subs	r2, r2, r1
  return chMBGetSizeI(mbp) - chMBGetUsedCountI(mbp);
 8005df6:	ebc3 03a2 	rsb	r3, r3, r2, asr #2
    test_assert_lock(chMBGetFreeCountI(&mb1) == MB_SIZE, "not empty");
 8005dfa:	1f19      	subs	r1, r3, #4
 8005dfc:	4248      	negs	r0, r1
 8005dfe:	4148      	adcs	r0, r1
 8005e00:	4917      	ldr	r1, [pc, #92]	; (8005e60 <oslib_test_001_001_execute+0x2e0>)
 8005e02:	f7fa fda5 	bl	8000950 <_test_assert>
 8005e06:	2800      	cmp	r0, #0
 8005e08:	f47f aef2 	bne.w	8005bf0 <oslib_test_001_001_execute+0x70>
 8005e0c:	f385 8811 	msr	BASEPRI, r5
 8005e10:	f386 8811 	msr	BASEPRI, r6
    test_assert_lock(chMBGetUsedCountI(&mb1) == 0, "still full");
 8005e14:	6920      	ldr	r0, [r4, #16]
 8005e16:	4913      	ldr	r1, [pc, #76]	; (8005e64 <oslib_test_001_001_execute+0x2e4>)
 8005e18:	fab0 f080 	clz	r0, r0
 8005e1c:	0940      	lsrs	r0, r0, #5
 8005e1e:	f7fa fd97 	bl	8000950 <_test_assert>
 8005e22:	2800      	cmp	r0, #0
 8005e24:	f47f aee4 	bne.w	8005bf0 <oslib_test_001_001_execute+0x70>
 8005e28:	f385 8811 	msr	BASEPRI, r5
    test_assert(mb1.buffer == mb1.wrptr, "write pointer not aligned to base");
 8005e2c:	6820      	ldr	r0, [r4, #0]
 8005e2e:	68a3      	ldr	r3, [r4, #8]
 8005e30:	490d      	ldr	r1, [pc, #52]	; (8005e68 <oslib_test_001_001_execute+0x2e8>)
 8005e32:	1ac2      	subs	r2, r0, r3
 8005e34:	4250      	negs	r0, r2
 8005e36:	4150      	adcs	r0, r2
 8005e38:	f7fa fd8a 	bl	8000950 <_test_assert>
 8005e3c:	2800      	cmp	r0, #0
 8005e3e:	f47f aebb 	bne.w	8005bb8 <oslib_test_001_001_execute+0x38>
    test_assert(mb1.buffer == mb1.rdptr, "read pointer not aligned to base");
 8005e42:	6820      	ldr	r0, [r4, #0]
 8005e44:	68e3      	ldr	r3, [r4, #12]
 8005e46:	4909      	ldr	r1, [pc, #36]	; (8005e6c <oslib_test_001_001_execute+0x2ec>)
 8005e48:	1ac3      	subs	r3, r0, r3
 8005e4a:	4258      	negs	r0, r3
 8005e4c:	4158      	adcs	r0, r3
 8005e4e:	f7fa fd7f 	bl	8000950 <_test_assert>
 8005e52:	e6b1      	b.n	8005bb8 <oslib_test_001_001_execute+0x38>
 8005e54:	20001c5c 	.word	0x20001c5c
 8005e58:	20000860 	.word	0x20000860
 8005e5c:	0800a3b0 	.word	0x0800a3b0
 8005e60:	0800a3bc 	.word	0x0800a3bc
 8005e64:	0800a3c8 	.word	0x0800a3c8
 8005e68:	0800a3d4 	.word	0x0800a3d4
 8005e6c:	0800a3f8 	.word	0x0800a3f8
 8005e70:	0800a38c 	.word	0x0800a38c
 8005e74:	0800a478 	.word	0x0800a478
 8005e78:	0800a41c 	.word	0x0800a41c
 8005e7c:	0800a428 	.word	0x0800a428
 8005e80:	0800a434 	.word	0x0800a434
 8005e84:	0800a44c 	.word	0x0800a44c
 8005e88:	0800a460 	.word	0x0800a460
 8005e8c:	00000000 	.word	0x00000000

08005e90 <oslib_test_002_002_execute>:
static void oslib_test_002_002_execute(void) {
 8005e90:	e92d 47f0 	stmdb	sp!, {r4, r5, r6, r7, r8, r9, sl, lr}
 8005e94:	4d39      	ldr	r5, [pc, #228]	; (8005f7c <oslib_test_002_002_execute+0xec>)
  test_set_step(1);
 8005e96:	2301      	movs	r3, #1
 * @iclass
 */
void chGuardedPoolFreeI(guarded_memory_pool_t *gmp, void *objp) {

  chPoolFreeI(&gmp->pool, objp);
  chSemSignalI(&gmp->sem);
 8005e98:	46a9      	mov	r9, r5
 8005e9a:	2604      	movs	r6, #4
 8005e9c:	f04f 0820 	mov.w	r8, #32
 8005ea0:	2700      	movs	r7, #0
 8005ea2:	f8df a0e8 	ldr.w	sl, [pc, #232]	; 8005f8c <oslib_test_002_002_execute+0xfc>
 8005ea6:	4c36      	ldr	r4, [pc, #216]	; (8005f80 <oslib_test_002_002_execute+0xf0>)
 8005ea8:	f8ca 3000 	str.w	r3, [sl]
 8005eac:	f388 8811 	msr	BASEPRI, r8
  php->next = mp->next;
 8005eb0:	68eb      	ldr	r3, [r5, #12]
  chSemSignalI(&gmp->sem);
 8005eb2:	4648      	mov	r0, r9
  php->next = mp->next;
 8005eb4:	6023      	str	r3, [r4, #0]
  mp->next = php;
 8005eb6:	60ec      	str	r4, [r5, #12]
  chSemSignalI(&gmp->sem);
 8005eb8:	f7fb ff92 	bl	8001de0 <chSemSignalI>
 */
void chGuardedPoolFree(guarded_memory_pool_t *gmp, void *objp) {

  chSysLock();
  chGuardedPoolFreeI(gmp, objp);
  chSchRescheduleS();
 8005ebc:	f7ff fad8 	bl	8005470 <chSchRescheduleS>
 8005ec0:	f387 8811 	msr	BASEPRI, r7
    p = (void *)(((uint8_t *)p) + gmp->pool.object_size);
 8005ec4:	692b      	ldr	r3, [r5, #16]
  while (n != 0U) {
 8005ec6:	3e01      	subs	r6, #1
    p = (void *)(((uint8_t *)p) + gmp->pool.object_size);
 8005ec8:	441c      	add	r4, r3
  while (n != 0U) {
 8005eca:	d1ef      	bne.n	8005eac <oslib_test_002_002_execute+0x1c>
  test_set_step(2);
 8005ecc:	2302      	movs	r3, #2
 8005ece:	2404      	movs	r4, #4
      test_assert(chGuardedPoolAllocTimeout(&gmp1, TIME_IMMEDIATE) != NULL, "list empty");
 8005ed0:	4e2c      	ldr	r6, [pc, #176]	; (8005f84 <oslib_test_002_002_execute+0xf4>)
  test_set_step(2);
 8005ed2:	f8ca 3000 	str.w	r3, [sl]
      test_assert(chGuardedPoolAllocTimeout(&gmp1, TIME_IMMEDIATE) != NULL, "list empty");
 8005ed6:	2000      	movs	r0, #0
 8005ed8:	f7fd f9ba 	bl	8003250 <chGuardedPoolAllocTimeout.constprop.58>
 8005edc:	3000      	adds	r0, #0
 8005ede:	bf18      	it	ne
 8005ee0:	2001      	movne	r0, #1
 8005ee2:	4631      	mov	r1, r6
 8005ee4:	f7fa fd34 	bl	8000950 <_test_assert>
 8005ee8:	2800      	cmp	r0, #0
 8005eea:	d145      	bne.n	8005f78 <oslib_test_002_002_execute+0xe8>
    for (i = 0; i < MEMORY_POOL_SIZE; i++)
 8005eec:	3c01      	subs	r4, #1
 8005eee:	d1f2      	bne.n	8005ed6 <oslib_test_002_002_execute+0x46>
  test_set_step(3);
 8005ef0:	2303      	movs	r3, #3
 8005ef2:	f8ca 3000 	str.w	r3, [sl]
    test_assert(chGuardedPoolAllocTimeout(&gmp1, TIME_IMMEDIATE) == NULL, "list not empty");
 8005ef6:	f7fd f9ab 	bl	8003250 <chGuardedPoolAllocTimeout.constprop.58>
 8005efa:	fab0 f080 	clz	r0, r0
 8005efe:	4922      	ldr	r1, [pc, #136]	; (8005f88 <oslib_test_002_002_execute+0xf8>)
 8005f00:	0940      	lsrs	r0, r0, #5
 8005f02:	f7fa fd25 	bl	8000950 <_test_assert>
 8005f06:	bbb8      	cbnz	r0, 8005f78 <oslib_test_002_002_execute+0xe8>
  test_set_step(4);
 8005f08:	2304      	movs	r3, #4
 8005f0a:	f04f 0920 	mov.w	r9, #32
 8005f0e:	4e1c      	ldr	r6, [pc, #112]	; (8005f80 <oslib_test_002_002_execute+0xf0>)
  chSemSignalI(&gmp->sem);
 8005f10:	f8df 8068 	ldr.w	r8, [pc, #104]	; 8005f7c <oslib_test_002_002_execute+0xec>
 8005f14:	f8ca 3000 	str.w	r3, [sl]
 8005f18:	f106 0710 	add.w	r7, r6, #16
      chGuardedPoolFree(&gmp1, &objects[i]);
 8005f1c:	4632      	mov	r2, r6
 8005f1e:	f389 8811 	msr	BASEPRI, r9
  php->next = mp->next;
 8005f22:	68eb      	ldr	r3, [r5, #12]
  chSemSignalI(&gmp->sem);
 8005f24:	4640      	mov	r0, r8
  php->next = mp->next;
 8005f26:	f846 3b04 	str.w	r3, [r6], #4
  mp->next = php;
 8005f2a:	60ea      	str	r2, [r5, #12]
  chSemSignalI(&gmp->sem);
 8005f2c:	f7fb ff58 	bl	8001de0 <chSemSignalI>
  chSchRescheduleS();
 8005f30:	f7ff fa9e 	bl	8005470 <chSchRescheduleS>
 8005f34:	f384 8811 	msr	BASEPRI, r4
    for (i = 0; i < MEMORY_POOL_SIZE; i++)
 8005f38:	42b7      	cmp	r7, r6
 8005f3a:	d1ef      	bne.n	8005f1c <oslib_test_002_002_execute+0x8c>
  test_set_step(5);
 8005f3c:	2305      	movs	r3, #5
 8005f3e:	2404      	movs	r4, #4
      test_assert(chGuardedPoolAllocTimeout(&gmp1, TIME_IMMEDIATE) != NULL, "list empty");
 8005f40:	4d10      	ldr	r5, [pc, #64]	; (8005f84 <oslib_test_002_002_execute+0xf4>)
  test_set_step(5);
 8005f42:	f8ca 3000 	str.w	r3, [sl]
      test_assert(chGuardedPoolAllocTimeout(&gmp1, TIME_IMMEDIATE) != NULL, "list empty");
 8005f46:	2000      	movs	r0, #0
 8005f48:	f7fd f982 	bl	8003250 <chGuardedPoolAllocTimeout.constprop.58>
 8005f4c:	3000      	adds	r0, #0
 8005f4e:	bf18      	it	ne
 8005f50:	2001      	movne	r0, #1
 8005f52:	4629      	mov	r1, r5
 8005f54:	f7fa fcfc 	bl	8000950 <_test_assert>
 8005f58:	b970      	cbnz	r0, 8005f78 <oslib_test_002_002_execute+0xe8>
    for (i = 0; i < MEMORY_POOL_SIZE; i++)
 8005f5a:	3c01      	subs	r4, #1
 8005f5c:	d1f3      	bne.n	8005f46 <oslib_test_002_002_execute+0xb6>
  test_set_step(6);
 8005f5e:	2306      	movs	r3, #6
 8005f60:	f8ca 3000 	str.w	r3, [sl]
    test_assert(chGuardedPoolAllocTimeout(&gmp1, TIME_IMMEDIATE) == NULL, "list not empty");
 8005f64:	f7fd f974 	bl	8003250 <chGuardedPoolAllocTimeout.constprop.58>
}
 8005f68:	e8bd 47f0 	ldmia.w	sp!, {r4, r5, r6, r7, r8, r9, sl, lr}
    test_assert(chGuardedPoolAllocTimeout(&gmp1, TIME_IMMEDIATE) == NULL, "list not empty");
 8005f6c:	fab0 f080 	clz	r0, r0
 8005f70:	4905      	ldr	r1, [pc, #20]	; (8005f88 <oslib_test_002_002_execute+0xf8>)
 8005f72:	0940      	lsrs	r0, r0, #5
 8005f74:	f7fa bcec 	b.w	8000950 <_test_assert>
}
 8005f78:	e8bd 87f0 	ldmia.w	sp!, {r4, r5, r6, r7, r8, r9, sl, pc}
 8005f7c:	2000081c 	.word	0x2000081c
 8005f80:	20001518 	.word	0x20001518
 8005f84:	0800a4a0 	.word	0x0800a4a0
 8005f88:	0800a4ac 	.word	0x0800a4ac
 8005f8c:	20001c5c 	.word	0x20001c5c

08005f90 <evt_thread7>:
static THD_FUNCTION(evt_thread7, p) {
 8005f90:	b538      	push	{r3, r4, r5, lr}
 8005f92:	2520      	movs	r5, #32
 8005f94:	f385 8811 	msr	BASEPRI, r5
  chEvtBroadcastFlagsI(esp, flags);
 8005f98:	2100      	movs	r1, #0
 8005f9a:	480b      	ldr	r0, [pc, #44]	; (8005fc8 <evt_thread7+0x38>)
 8005f9c:	f7fb fe58 	bl	8001c50 <chEvtBroadcastFlagsI>
 8005fa0:	2400      	movs	r4, #0
  chSchRescheduleS();
 8005fa2:	f7ff fa65 	bl	8005470 <chSchRescheduleS>
 8005fa6:	f384 8811 	msr	BASEPRI, r4
  chThdSleepMilliseconds(50);
 8005faa:	2064      	movs	r0, #100	; 0x64
 8005fac:	f7fd fdd0 	bl	8003b50 <chThdSleep>
 8005fb0:	f385 8811 	msr	BASEPRI, r5
  chEvtBroadcastFlagsI(esp, flags);
 8005fb4:	4805      	ldr	r0, [pc, #20]	; (8005fcc <evt_thread7+0x3c>)
 8005fb6:	4621      	mov	r1, r4
 8005fb8:	f7fb fe4a 	bl	8001c50 <chEvtBroadcastFlagsI>
  chSchRescheduleS();
 8005fbc:	f7ff fa58 	bl	8005470 <chSchRescheduleS>
 8005fc0:	f384 8811 	msr	BASEPRI, r4
}
 8005fc4:	bd38      	pop	{r3, r4, r5, pc}
 8005fc6:	bf00      	nop
 8005fc8:	20000814 	.word	0x20000814
 8005fcc:	20000818 	.word	0x20000818

08005fd0 <evt_thread3>:
static THD_FUNCTION(evt_thread3, p) {
 8005fd0:	b510      	push	{r4, lr}
 8005fd2:	4604      	mov	r4, r0
  chThdSleepMilliseconds(50);
 8005fd4:	2064      	movs	r0, #100	; 0x64
 8005fd6:	f7fd fdbb 	bl	8003b50 <chThdSleep>
 8005fda:	2320      	movs	r3, #32
 8005fdc:	f383 8811 	msr	BASEPRI, r3
  chEvtSignalI(tp, events);
 8005fe0:	2101      	movs	r1, #1
 8005fe2:	4620      	mov	r0, r4
 8005fe4:	f7fb fe1c 	bl	8001c20 <chEvtSignalI>
  chSchRescheduleS();
 8005fe8:	f7ff fa42 	bl	8005470 <chSchRescheduleS>
 8005fec:	2300      	movs	r3, #0
 8005fee:	f383 8811 	msr	BASEPRI, r3
}
 8005ff2:	bd10      	pop	{r4, pc}
	...

08006000 <thread4B>:
static THD_FUNCTION(thread4B, p) {
 8006000:	b510      	push	{r4, lr}
  chThdSleepMilliseconds(150);
 8006002:	f44f 7096 	mov.w	r0, #300	; 0x12c
 8006006:	f7fd fda3 	bl	8003b50 <chThdSleep>
 800600a:	2320      	movs	r3, #32
 800600c:	f383 8811 	msr	BASEPRI, r3
  chMtxLockS(&m2);   /* For coverage of the chMtxLockS() function variant.*/
 8006010:	4c06      	ldr	r4, [pc, #24]	; (800602c <thread4B+0x2c>)
 8006012:	4620      	mov	r0, r4
 8006014:	f7fe f8dc 	bl	80041d0 <chMtxLockS>
  chMtxUnlockS(&m2); /* For coverage of the chMtxUnlockS() function variant.*/
 8006018:	4620      	mov	r0, r4
 800601a:	f7fb feb9 	bl	8001d90 <chMtxUnlockS>
  chSchRescheduleS();
 800601e:	f7ff fa27 	bl	8005470 <chSchRescheduleS>
 8006022:	2300      	movs	r3, #0
 8006024:	f383 8811 	msr	BASEPRI, r3
}
 8006028:	bd10      	pop	{r4, pc}
 800602a:	bf00      	nop
 800602c:	20000850 	.word	0x20000850

08006030 <thread2>:
static THD_FUNCTION(thread2, p) {
 8006030:	b508      	push	{r3, lr}
  chThdSleepMilliseconds(50);
 8006032:	2064      	movs	r0, #100	; 0x64
 8006034:	f7fd fd8c 	bl	8003b50 <chThdSleep>
 8006038:	2320      	movs	r3, #32
 800603a:	f383 8811 	msr	BASEPRI, r3
  chSemSignalI(&sem1); /* For coverage reasons */
 800603e:	4804      	ldr	r0, [pc, #16]	; (8006050 <thread2+0x20>)
 8006040:	f7fb fece 	bl	8001de0 <chSemSignalI>
  chSchRescheduleS();
 8006044:	f7ff fa14 	bl	8005470 <chSchRescheduleS>
 8006048:	2300      	movs	r3, #0
 800604a:	f383 8811 	msr	BASEPRI, r3
}
 800604e:	bd08      	pop	{r3, pc}
 8006050:	20001528 	.word	0x20001528
	...

08006060 <thread4>:
static THD_FUNCTION(thread4, p) {
 8006060:	b508      	push	{r3, lr}
 8006062:	2220      	movs	r2, #32
 8006064:	f382 8811 	msr	BASEPRI, r2
 */
static inline void chBSemSignalI(binary_semaphore_t *bsp) {

  chDbgCheckClassI();

  if (bsp->sem.cnt < (cnt_t)1) {
 8006068:	6883      	ldr	r3, [r0, #8]
 800606a:	2b00      	cmp	r3, #0
 800606c:	dd05      	ble.n	800607a <thread4+0x1a>
 */
static inline void chBSemSignal(binary_semaphore_t *bsp) {

  chSysLock();
  chBSemSignalI(bsp);
  chSchRescheduleS();
 800606e:	f7ff f9ff 	bl	8005470 <chSchRescheduleS>
 8006072:	2300      	movs	r3, #0
 8006074:	f383 8811 	msr	BASEPRI, r3
}
 8006078:	bd08      	pop	{r3, pc}
    chSemSignalI(&bsp->sem);
 800607a:	f7fb feb1 	bl	8001de0 <chSemSignalI>
  chSchRescheduleS();
 800607e:	f7ff f9f7 	bl	8005470 <chSchRescheduleS>
 8006082:	2300      	movs	r3, #0
 8006084:	f383 8811 	msr	BASEPRI, r3
 8006088:	bd08      	pop	{r3, pc}
 800608a:	bf00      	nop
 800608c:	0000      	movs	r0, r0
	...

08006090 <thread1.lto_priv.113>:
static THD_FUNCTION(thread1, p) {
 8006090:	b510      	push	{r4, lr}
 8006092:	2320      	movs	r3, #32
 8006094:	4604      	mov	r4, r0
 8006096:	f383 8811 	msr	BASEPRI, r3
  if (*trp != NULL) {
 800609a:	4a09      	ldr	r2, [pc, #36]	; (80060c0 <thread1.lto_priv.113+0x30>)
 800609c:	6813      	ldr	r3, [r2, #0]
 800609e:	b12b      	cbz	r3, 80060ac <thread1.lto_priv.113+0x1c>
    *trp = NULL;
 80060a0:	2100      	movs	r1, #0
    (void) chSchReadyI(tp);
 80060a2:	4618      	mov	r0, r3
    tp->u.rdymsg = msg;
 80060a4:	6259      	str	r1, [r3, #36]	; 0x24
    *trp = NULL;
 80060a6:	6011      	str	r1, [r2, #0]
    (void) chSchReadyI(tp);
 80060a8:	f7fb fd02 	bl	8001ab0 <chSchReadyI>
  chSchRescheduleS();
 80060ac:	f7ff f9e0 	bl	8005470 <chSchRescheduleS>
 80060b0:	2300      	movs	r3, #0
 80060b2:	f383 8811 	msr	BASEPRI, r3
  test_emit_token(*(char *)p);
 80060b6:	7820      	ldrb	r0, [r4, #0]
}
 80060b8:	e8bd 4010 	ldmia.w	sp!, {r4, lr}
  test_emit_token(*(char *)p);
 80060bc:	f7fa bce8 	b.w	8000a90 <test_emit_token>
 80060c0:	20001c88 	.word	0x20001c88
	...

080060d0 <chMtxUnlock>:
  thread_t *ctp = currp;
 80060d0:	4b17      	ldr	r3, [pc, #92]	; (8006130 <chMtxUnlock+0x60>)
void chMtxUnlock(mutex_t *mp) {
 80060d2:	b570      	push	{r4, r5, r6, lr}
  thread_t *ctp = currp;
 80060d4:	699d      	ldr	r5, [r3, #24]
 80060d6:	2320      	movs	r3, #32
 80060d8:	f383 8811 	msr	BASEPRI, r3
  return (bool)(tqp->next != (const thread_t *)tqp);
 80060dc:	6804      	ldr	r4, [r0, #0]
    ctp->mtxlist = mp->next;
 80060de:	68c3      	ldr	r3, [r0, #12]
    if (chMtxQueueNotEmptyS(mp)) {
 80060e0:	4284      	cmp	r4, r0
    ctp->mtxlist = mp->next;
 80060e2:	63ab      	str	r3, [r5, #56]	; 0x38
    if (chMtxQueueNotEmptyS(mp)) {
 80060e4:	d01d      	beq.n	8006122 <chMtxUnlock+0x52>
      tprio_t newprio = ctp->realprio;
 80060e6:	6be9      	ldr	r1, [r5, #60]	; 0x3c
      while (lmp != NULL) {
 80060e8:	b14b      	cbz	r3, 80060fe <chMtxUnlock+0x2e>
 80060ea:	681a      	ldr	r2, [r3, #0]
        if (chMtxQueueNotEmptyS(lmp) &&
 80060ec:	4293      	cmp	r3, r2
 80060ee:	d003      	beq.n	80060f8 <chMtxUnlock+0x28>
 80060f0:	6892      	ldr	r2, [r2, #8]
 80060f2:	4291      	cmp	r1, r2
 80060f4:	bf38      	it	cc
 80060f6:	4611      	movcc	r1, r2
        lmp = lmp->next;
 80060f8:	68db      	ldr	r3, [r3, #12]
      while (lmp != NULL) {
 80060fa:	2b00      	cmp	r3, #0
 80060fc:	d1f5      	bne.n	80060ea <chMtxUnlock+0x1a>
 80060fe:	4603      	mov	r3, r0
  tqp->next             = tp->queue.next;
 8006100:	6822      	ldr	r2, [r4, #0]
      mp->next = tp->mtxlist;
 8006102:	6ba6      	ldr	r6, [r4, #56]	; 0x38
      (void) chSchReadyI(tp);
 8006104:	4620      	mov	r0, r4
      ctp->prio = newprio;
 8006106:	60a9      	str	r1, [r5, #8]
 8006108:	601a      	str	r2, [r3, #0]
  tqp->next->queue.prev = (thread_t *)tqp;
 800610a:	6053      	str	r3, [r2, #4]
      mp->next = tp->mtxlist;
 800610c:	e9c3 4602 	strd	r4, r6, [r3, #8]
      tp->mtxlist = mp;
 8006110:	63a3      	str	r3, [r4, #56]	; 0x38
      (void) chSchReadyI(tp);
 8006112:	f7fb fccd 	bl	8001ab0 <chSchReadyI>
      chSchRescheduleS();
 8006116:	f7ff f9ab 	bl	8005470 <chSchRescheduleS>
 800611a:	2300      	movs	r3, #0
 800611c:	f383 8811 	msr	BASEPRI, r3
}
 8006120:	bd70      	pop	{r4, r5, r6, pc}
      mp->owner = NULL;
 8006122:	2300      	movs	r3, #0
 8006124:	60a3      	str	r3, [r4, #8]
 8006126:	2300      	movs	r3, #0
 8006128:	f383 8811 	msr	BASEPRI, r3
}
 800612c:	bd70      	pop	{r4, r5, r6, pc}
 800612e:	bf00      	nop
 8006130:	200012d0 	.word	0x200012d0
	...

08006140 <chHeapAllocAligned.constprop.75>:
 * @return              A pointer to the aligned allocated block.
 * @retval NULL         if the block cannot be allocated.
 *
 * @api
 */
void *chHeapAllocAligned(memory_heap_t *heapp, size_t size, unsigned align) {
 8006140:	e92d 47f0 	stmdb	sp!, {r4, r5, r6, r7, r8, r9, sl, lr}

  chDbgCheck((size > 0U) && MEM_IS_VALID_ALIGNMENT(align));

  /* If an heap is not specified then the default system header is used.*/
  if (heapp == NULL) {
    heapp = &default_heap;
 8006144:	4d38      	ldr	r5, [pc, #224]	; (8006228 <chHeapAllocAligned.constprop.75+0xe8>)
  if (align < CH_HEAP_ALIGNMENT) {
    align = CH_HEAP_ALIGNMENT;
  }

  /* Size is converted in number of elementary allocation units.*/
  pages = MEM_ALIGN_NEXT(size, CH_HEAP_ALIGNMENT) / CH_HEAP_ALIGNMENT;
 8006146:	f101 0807 	add.w	r8, r1, #7
    heapp = &default_heap;
 800614a:	2800      	cmp	r0, #0
 800614c:	bf18      	it	ne
 800614e:	4605      	movne	r5, r0

  /* Taking heap mutex/semaphore.*/
  H_LOCK(heapp);
 8006150:	f105 070c 	add.w	r7, r5, #12
 8006154:	4638      	mov	r0, r7
void *chHeapAllocAligned(memory_heap_t *heapp, size_t size, unsigned align) {
 8006156:	460e      	mov	r6, r1
  pages = MEM_ALIGN_NEXT(size, CH_HEAP_ALIGNMENT) / CH_HEAP_ALIGNMENT;
 8006158:	ea4f 08d8 	mov.w	r8, r8, lsr #3
  H_LOCK(heapp);
 800615c:	f7fe f8b0 	bl	80042c0 <chMtxLock>

  /* Start of the free blocks list.*/
  qp = &heapp->header;
 8006160:	f105 0c04 	add.w	ip, r5, #4
  while (H_NEXT(qp) != NULL) {
 8006164:	f8dc 3000 	ldr.w	r3, [ip]

    /* Next free block.*/
    hp = H_NEXT(qp);

    /* Pointer aligned to the requested alignment.*/
    ahp = (heap_header_t *)MEM_ALIGN_NEXT(H_BLOCK(hp), align) - 1U;
 8006168:	f103 000f 	add.w	r0, r3, #15
 800616c:	f020 0007 	bic.w	r0, r0, #7
 8006170:	f1a0 0e08 	sub.w	lr, r0, #8
 8006174:	f103 0a08 	add.w	sl, r3, #8
  while (H_NEXT(qp) != NULL) {
 8006178:	b173      	cbz	r3, 8006198 <chHeapAllocAligned.constprop.75+0x58>

    if ((ahp < H_LIMIT(hp)) && (pages <= NPAGES(H_LIMIT(hp), ahp + 1U))) {
 800617a:	f8d3 9004 	ldr.w	r9, [r3, #4]
 800617e:	f109 0201 	add.w	r2, r9, #1
 8006182:	eb03 02c2 	add.w	r2, r3, r2, lsl #3
 8006186:	4596      	cmp	lr, r2
 8006188:	d204      	bcs.n	8006194 <chHeapAllocAligned.constprop.75+0x54>
 800618a:	1a11      	subs	r1, r2, r0
 800618c:	10c9      	asrs	r1, r1, #3
 800618e:	4588      	cmp	r8, r1
 8006190:	4604      	mov	r4, r0
 8006192:	d913      	bls.n	80061bc <chHeapAllocAligned.constprop.75+0x7c>
          heap_header_t *fp;

          fp = H_BLOCK(hp) + pages;
          H_NEXT(fp) = H_NEXT(hp);
          H_PAGES(fp) = NPAGES(H_LIMIT(hp), H_BLOCK(fp));
          H_NEXT(qp) = fp;
 8006194:	469c      	mov	ip, r3
 8006196:	e7e5      	b.n	8006164 <chHeapAllocAligned.constprop.75+0x24>
    /* Next in the free blocks list.*/
    qp = hp;
  }

  /* Releasing heap mutex/semaphore.*/
  H_UNLOCK(heapp);
 8006198:	4638      	mov	r0, r7
 800619a:	f7ff ff99 	bl	80060d0 <chMtxUnlock>

  /* More memory is required, tries to get it from the associated provider
     else fails.*/
  if (heapp->provider != NULL) {
 800619e:	682c      	ldr	r4, [r5, #0]
 80061a0:	b14c      	cbz	r4, 80061b6 <chHeapAllocAligned.constprop.75+0x76>
    ahp = heapp->provider((pages + 1U) * CH_HEAP_ALIGNMENT,
 80061a2:	2208      	movs	r2, #8
 80061a4:	f108 0001 	add.w	r0, r8, #1
 80061a8:	00c0      	lsls	r0, r0, #3
 80061aa:	4611      	mov	r1, r2
 80061ac:	47a0      	blx	r4
                          align,
                          sizeof (heap_header_t));
    if (ahp != NULL) {
 80061ae:	4604      	mov	r4, r0
 80061b0:	b108      	cbz	r0, 80061b6 <chHeapAllocAligned.constprop.75+0x76>
      hp = ahp - 1U;
      H_HEAP(hp) = heapp;
      H_SIZE(hp) = size;
 80061b2:	e940 5602 	strd	r5, r6, [r0, #-8]
      /*lint -restore*/
    }
  }

  return NULL;
}
 80061b6:	4620      	mov	r0, r4
 80061b8:	e8bd 87f0 	ldmia.w	sp!, {r4, r5, r6, r7, r8, r9, sl, pc}
      if (ahp > hp) {
 80061bc:	4573      	cmp	r3, lr
 80061be:	d319      	bcc.n	80061f4 <chHeapAllocAligned.constprop.75+0xb4>
        if (H_PAGES(hp) == pages) {
 80061c0:	45c8      	cmp	r8, r9
 80061c2:	6818      	ldr	r0, [r3, #0]
 80061c4:	d02a      	beq.n	800621c <chHeapAllocAligned.constprop.75+0xdc>
    ahp = (heap_header_t *)MEM_ALIGN_NEXT(H_BLOCK(hp), align) - 1U;
 80061c6:	4654      	mov	r4, sl
          fp = H_BLOCK(hp) + pages;
 80061c8:	f108 0801 	add.w	r8, r8, #1
 80061cc:	eb03 01c8 	add.w	r1, r3, r8, lsl #3
          H_NEXT(fp) = H_NEXT(hp);
 80061d0:	f843 0038 	str.w	r0, [r3, r8, lsl #3]
          H_NEXT(qp) = fp;
 80061d4:	469e      	mov	lr, r3
          H_PAGES(fp) = NPAGES(H_LIMIT(hp), H_BLOCK(fp));
 80061d6:	f101 0308 	add.w	r3, r1, #8
 80061da:	1ad3      	subs	r3, r2, r3
 80061dc:	10db      	asrs	r3, r3, #3
 80061de:	604b      	str	r3, [r1, #4]
          H_NEXT(qp) = fp;
 80061e0:	f8cc 1000 	str.w	r1, [ip]
      H_UNLOCK(heapp);
 80061e4:	4638      	mov	r0, r7
      H_HEAP(hp) = heapp;
 80061e6:	e9ce 5600 	strd	r5, r6, [lr]
      H_UNLOCK(heapp);
 80061ea:	f7ff ff71 	bl	80060d0 <chMtxUnlock>
}
 80061ee:	4620      	mov	r0, r4
 80061f0:	e8bd 87f0 	ldmia.w	sp!, {r4, r5, r6, r7, r8, r9, sl, pc}
        H_PAGES(hp) = NPAGES(ahp, H_BLOCK(hp));
 80061f4:	ebae 0a0a 	sub.w	sl, lr, sl
 80061f8:	ea4f 02ea 	mov.w	r2, sl, asr #3
        if (bpages > pages) {
 80061fc:	4588      	cmp	r8, r1
        H_PAGES(hp) = NPAGES(ahp, H_BLOCK(hp));
 80061fe:	605a      	str	r2, [r3, #4]
        if (bpages > pages) {
 8006200:	d2f0      	bcs.n	80061e4 <chHeapAllocAligned.constprop.75+0xa4>
          H_PAGES(fp) = (bpages - pages) - 1U;
 8006202:	ea6f 0208 	mvn.w	r2, r8
          H_NEXT(fp) = H_NEXT(hp);
 8006206:	6818      	ldr	r0, [r3, #0]
          fp = H_BLOCK(ahp) + pages;
 8006208:	f108 0801 	add.w	r8, r8, #1
          H_PAGES(fp) = (bpages - pages) - 1U;
 800620c:	4411      	add	r1, r2
          fp = H_BLOCK(ahp) + pages;
 800620e:	eb0e 02c8 	add.w	r2, lr, r8, lsl #3
          H_PAGES(fp) = (bpages - pages) - 1U;
 8006212:	6051      	str	r1, [r2, #4]
          H_NEXT(fp) = H_NEXT(hp);
 8006214:	f84e 0038 	str.w	r0, [lr, r8, lsl #3]
          H_NEXT(hp) = fp;
 8006218:	601a      	str	r2, [r3, #0]
 800621a:	e7e3      	b.n	80061e4 <chHeapAllocAligned.constprop.75+0xa4>
          H_NEXT(qp) = H_NEXT(hp);
 800621c:	f8cc 0000 	str.w	r0, [ip]
    ahp = (heap_header_t *)MEM_ALIGN_NEXT(H_BLOCK(hp), align) - 1U;
 8006220:	4654      	mov	r4, sl
          H_NEXT(qp) = H_NEXT(hp);
 8006222:	469e      	mov	lr, r3
 8006224:	e7de      	b.n	80061e4 <chHeapAllocAligned.constprop.75+0xa4>
 8006226:	bf00      	nop
 8006228:	20001468 	.word	0x20001468
 800622c:	00000000 	.word	0x00000000

08006230 <dyn_create_object_heap>:
                                             size_t size) {
 8006230:	b5f8      	push	{r3, r4, r5, r6, r7, lr}
  dyn_element_t *p = dlp->next;
 8006232:	680c      	ldr	r4, [r1, #0]
                                             size_t size) {
 8006234:	460d      	mov	r5, r1
  while (p != (dyn_element_t *)dlp) {
 8006236:	42a1      	cmp	r1, r4
                                             size_t size) {
 8006238:	4606      	mov	r6, r0
 800623a:	4617      	mov	r7, r2
  while (p != (dyn_element_t *)dlp) {
 800623c:	d103      	bne.n	8006246 <dyn_create_object_heap+0x16>
 800623e:	e00d      	b.n	800625c <dyn_create_object_heap+0x2c>
    p = p->next;
 8006240:	6824      	ldr	r4, [r4, #0]
  while (p != (dyn_element_t *)dlp) {
 8006242:	42a5      	cmp	r5, r4
 8006244:	d00a      	beq.n	800625c <dyn_create_object_heap+0x2c>
    if (strncmp(p->name, name, CH_CFG_FACTORY_MAX_NAMES_LENGTH) == 0) {
 8006246:	2208      	movs	r2, #8
 8006248:	4631      	mov	r1, r6
 800624a:	18a0      	adds	r0, r4, r2
 800624c:	f003 fda0 	bl	8009d90 <strncmp>
 8006250:	2800      	cmp	r0, #0
 8006252:	d1f5      	bne.n	8006240 <dyn_create_object_heap+0x10>
  if (dep != NULL) {
 8006254:	b114      	cbz	r4, 800625c <dyn_create_object_heap+0x2c>
    return NULL;
 8006256:	4604      	mov	r4, r0
}
 8006258:	4620      	mov	r0, r4
 800625a:	bdf8      	pop	{r3, r4, r5, r6, r7, pc}
 *
 * @api
 */
static inline void *chHeapAlloc(memory_heap_t *heapp, size_t size) {

  return chHeapAllocAligned(heapp, size, CH_HEAP_ALIGNMENT);
 800625c:	4639      	mov	r1, r7
 800625e:	2000      	movs	r0, #0
 8006260:	f7ff ff6e 	bl	8006140 <chHeapAllocAligned.constprop.75>
  if (dep == NULL) {
 8006264:	4604      	mov	r4, r0
 8006266:	b148      	cbz	r0, 800627c <dyn_create_object_heap+0x4c>
  strncpy(dep->name, name, CH_CFG_FACTORY_MAX_NAMES_LENGTH);
 8006268:	2208      	movs	r2, #8
 800626a:	4631      	mov	r1, r6
 800626c:	4410      	add	r0, r2
 800626e:	f003 fdd9 	bl	8009e24 <strncpy>
  dep->refs = (ucnt_t)1;
 8006272:	2201      	movs	r2, #1
  dep->next = dlp->next;
 8006274:	682b      	ldr	r3, [r5, #0]
 8006276:	e9c4 3200 	strd	r3, r2, [r4]
  dlp->next = dep;
 800627a:	602c      	str	r4, [r5, #0]
}
 800627c:	4620      	mov	r0, r4
 800627e:	bdf8      	pop	{r3, r4, r5, r6, r7, pc}

08006280 <chThdCreateFromHeap>:
                              tfunc_t pf, void *arg) {
 8006280:	b570      	push	{r4, r5, r6, lr}
 8006282:	b086      	sub	sp, #24
 8006284:	4616      	mov	r6, r2
 8006286:	461d      	mov	r5, r3
 8006288:	460c      	mov	r4, r1
  wsp = chHeapAllocAligned(heapp, size, PORT_WORKING_AREA_ALIGN);
 800628a:	f7ff ff59 	bl	8006140 <chHeapAllocAligned.constprop.75>
  if (wsp == NULL) {
 800628e:	b1d8      	cbz	r0, 80062c8 <chThdCreateFromHeap+0x48>
  thread_descriptor_t td = {
 8006290:	9b0a      	ldr	r3, [sp, #40]	; 0x28
    (stkalign_t *)((uint8_t *)wsp + size),
 8006292:	4404      	add	r4, r0
  thread_descriptor_t td = {
 8006294:	9304      	str	r3, [sp, #16]
 8006296:	9b0b      	ldr	r3, [sp, #44]	; 0x2c
 8006298:	9402      	str	r4, [sp, #8]
 800629a:	9305      	str	r3, [sp, #20]
 800629c:	e9cd 6000 	strd	r6, r0, [sp]
 80062a0:	9503      	str	r5, [sp, #12]
 80062a2:	2320      	movs	r3, #32
 80062a4:	f383 8811 	msr	BASEPRI, r3
  tp = chThdCreateSuspendedI(&td);
 80062a8:	4668      	mov	r0, sp
 80062aa:	f7fb fb89 	bl	80019c0 <chThdCreateSuspendedI>
  tp->flags = CH_FLAG_MODE_HEAP;
 80062ae:	2301      	movs	r3, #1
  chSchWakeupS(tp, MSG_OK);
 80062b0:	2100      	movs	r1, #0
  tp->flags = CH_FLAG_MODE_HEAP;
 80062b2:	f880 3021 	strb.w	r3, [r0, #33]	; 0x21
  tp = chThdCreateSuspendedI(&td);
 80062b6:	4604      	mov	r4, r0
  chSchWakeupS(tp, MSG_OK);
 80062b8:	f7fc fe12 	bl	8002ee0 <chSchWakeupS>
 80062bc:	2300      	movs	r3, #0
 80062be:	f383 8811 	msr	BASEPRI, r3
}
 80062c2:	4620      	mov	r0, r4
 80062c4:	b006      	add	sp, #24
 80062c6:	bd70      	pop	{r4, r5, r6, pc}
    return NULL;
 80062c8:	4604      	mov	r4, r0
 80062ca:	e7fa      	b.n	80062c2 <chThdCreateFromHeap+0x42>
 80062cc:	0000      	movs	r0, r0
	...

080062d0 <chFactoryRegisterObject.constprop.55>:
 * @retval NULL         if the object to be registered cannot be allocated or
 *                      a registered object with the same name exists.
 *
 * @api
 */
registered_object_t *chFactoryRegisterObject(const char *name,
 80062d0:	b538      	push	{r3, r4, r5, lr}
 80062d2:	4605      	mov	r5, r0
                                             void *objp) {
  registered_object_t *rop;

  F_LOCK();
 80062d4:	4807      	ldr	r0, [pc, #28]	; (80062f4 <chFactoryRegisterObject.constprop.55+0x24>)
 80062d6:	f7fd fff3 	bl	80042c0 <chMtxLock>

  rop = (registered_object_t *)dyn_create_object_pool(name,
 80062da:	4a07      	ldr	r2, [pc, #28]	; (80062f8 <chFactoryRegisterObject.constprop.55+0x28>)
 80062dc:	4807      	ldr	r0, [pc, #28]	; (80062fc <chFactoryRegisterObject.constprop.55+0x2c>)
 80062de:	1f11      	subs	r1, r2, #4
 80062e0:	f7fc fd8e 	bl	8002e00 <dyn_create_object_pool>
                                                      &ch_factory.obj_list,
                                                      &ch_factory.obj_pool);
  if (rop != NULL) {
 80062e4:	4604      	mov	r4, r0
 80062e6:	b100      	cbz	r0, 80062ea <chFactoryRegisterObject.constprop.55+0x1a>
    /* Initializing registered object data.*/
    rop->objp = objp;
 80062e8:	6105      	str	r5, [r0, #16]
  }

  F_UNLOCK();
 80062ea:	4802      	ldr	r0, [pc, #8]	; (80062f4 <chFactoryRegisterObject.constprop.55+0x24>)
 80062ec:	f7ff fef0 	bl	80060d0 <chMtxUnlock>

  return rop;
}
 80062f0:	4620      	mov	r0, r4
 80062f2:	bd38      	pop	{r3, r4, r5, pc}
 80062f4:	20001344 	.word	0x20001344
 80062f8:	20001358 	.word	0x20001358
 80062fc:	08009fdc 	.word	0x08009fdc

08006300 <chFactoryFindObject.constprop.54>:
 * @retval NULL         if a registered object with the specified name
 *                      does not exist.
 *
 * @api
 */
registered_object_t *chFactoryFindObject(const char *name) {
 8006300:	b538      	push	{r3, r4, r5, lr}
  registered_object_t *rop;

  F_LOCK();
 8006302:	4c07      	ldr	r4, [pc, #28]	; (8006320 <chFactoryFindObject.constprop.54+0x20>)
 8006304:	4620      	mov	r0, r4
 8006306:	f7fd ffdb 	bl	80042c0 <chMtxLock>

  rop = (registered_object_t *)dyn_find_object(name, &ch_factory.obj_list);
 800630a:	f104 0110 	add.w	r1, r4, #16
 800630e:	4805      	ldr	r0, [pc, #20]	; (8006324 <chFactoryFindObject.constprop.54+0x24>)
 8006310:	f7fc fd56 	bl	8002dc0 <dyn_find_object>
 8006314:	4605      	mov	r5, r0

  F_UNLOCK();
 8006316:	4620      	mov	r0, r4
 8006318:	f7ff feda 	bl	80060d0 <chMtxUnlock>

  return rop;
}
 800631c:	4628      	mov	r0, r5
 800631e:	bd38      	pop	{r3, r4, r5, pc}
 8006320:	20001344 	.word	0x20001344
 8006324:	08009fdc 	.word	0x08009fdc
	...

08006330 <chFactoryCreateBuffer.constprop.53>:
 * @retval NULL         if the dynamic buffer object cannot be allocated or
 *                      a dynamic buffer object with the same name exists.
 *
 * @api
 */
dyn_buffer_t *chFactoryCreateBuffer(const char *name, size_t size) {
 8006330:	b510      	push	{r4, lr}
  dyn_buffer_t *dbp;

  F_LOCK();
 8006332:	480a      	ldr	r0, [pc, #40]	; (800635c <chFactoryCreateBuffer.constprop.53+0x2c>)
 8006334:	f7fd ffc4 	bl	80042c0 <chMtxLock>

  dbp = (dyn_buffer_t *)dyn_create_object_heap(name,
 8006338:	2280      	movs	r2, #128	; 0x80
 800633a:	4909      	ldr	r1, [pc, #36]	; (8006360 <chFactoryCreateBuffer.constprop.53+0x30>)
 800633c:	4809      	ldr	r0, [pc, #36]	; (8006364 <chFactoryCreateBuffer.constprop.53+0x34>)
 800633e:	f7ff ff77 	bl	8006230 <dyn_create_object_heap>
                                               &ch_factory.buf_list,
                                               size);
  if (dbp != NULL) {
 8006342:	4604      	mov	r4, r0
 8006344:	b120      	cbz	r0, 8006350 <chFactoryCreateBuffer.constprop.53+0x20>
    /* Initializing buffer object data.*/
    memset((void *)dbp->buffer, 0, size);
 8006346:	2280      	movs	r2, #128	; 0x80
 8006348:	2100      	movs	r1, #0
 800634a:	3010      	adds	r0, #16
 800634c:	f003 fc62 	bl	8009c14 <memset>
  }

  F_UNLOCK();
 8006350:	4802      	ldr	r0, [pc, #8]	; (800635c <chFactoryCreateBuffer.constprop.53+0x2c>)
 8006352:	f7ff febd 	bl	80060d0 <chMtxUnlock>

  return dbp;
}
 8006356:	4620      	mov	r0, r4
 8006358:	bd10      	pop	{r4, pc}
 800635a:	bf00      	nop
 800635c:	20001344 	.word	0x20001344
 8006360:	20001368 	.word	0x20001368
 8006364:	08009fbc 	.word	0x08009fbc
	...

08006370 <chFactoryFindBuffer.constprop.52>:
 * @retval NULL         if a dynamic buffer object with the specified name
 *                      does not exist.
 *
 * @api
 */
dyn_buffer_t *chFactoryFindBuffer(const char *name) {
 8006370:	b538      	push	{r3, r4, r5, lr}
  dyn_buffer_t *dbp;

  F_LOCK();
 8006372:	4c07      	ldr	r4, [pc, #28]	; (8006390 <chFactoryFindBuffer.constprop.52+0x20>)
 8006374:	4620      	mov	r0, r4
 8006376:	f7fd ffa3 	bl	80042c0 <chMtxLock>

  dbp = (dyn_buffer_t *)dyn_find_object(name, &ch_factory.buf_list);
 800637a:	f104 0124 	add.w	r1, r4, #36	; 0x24
 800637e:	4805      	ldr	r0, [pc, #20]	; (8006394 <chFactoryFindBuffer.constprop.52+0x24>)
 8006380:	f7fc fd1e 	bl	8002dc0 <dyn_find_object>
 8006384:	4605      	mov	r5, r0

  F_UNLOCK();
 8006386:	4620      	mov	r0, r4
 8006388:	f7ff fea2 	bl	80060d0 <chMtxUnlock>

  return dbp;
}
 800638c:	4628      	mov	r0, r5
 800638e:	bd38      	pop	{r3, r4, r5, pc}
 8006390:	20001344 	.word	0x20001344
 8006394:	08009fbc 	.word	0x08009fbc
	...

080063a0 <chFactoryCreateSemaphore.constprop.51>:
 * @retval NULL         if the dynamic semaphore object cannot be allocated or
 *                      a dynamic semaphore with the same name exists.
 *
 * @api
 */
dyn_semaphore_t *chFactoryCreateSemaphore(const char *name, cnt_t n) {
 80063a0:	b510      	push	{r4, lr}
  dyn_semaphore_t *dsp;

  F_LOCK();
 80063a2:	480a      	ldr	r0, [pc, #40]	; (80063cc <chFactoryCreateSemaphore.constprop.51+0x2c>)
 80063a4:	f7fd ff8c 	bl	80042c0 <chMtxLock>

  dsp = (dyn_semaphore_t *)dyn_create_object_pool(name,
 80063a8:	4a09      	ldr	r2, [pc, #36]	; (80063d0 <chFactoryCreateSemaphore.constprop.51+0x30>)
 80063aa:	480a      	ldr	r0, [pc, #40]	; (80063d4 <chFactoryCreateSemaphore.constprop.51+0x34>)
 80063ac:	1f11      	subs	r1, r2, #4
 80063ae:	f7fc fd27 	bl	8002e00 <dyn_create_object_pool>
                                                  &ch_factory.sem_list,
                                                  &ch_factory.sem_pool);
  if (dsp != NULL) {
 80063b2:	4604      	mov	r4, r0
 80063b4:	b128      	cbz	r0, 80063c2 <chFactoryCreateSemaphore.constprop.51+0x22>
  sp->cnt = n;
 80063b6:	2200      	movs	r2, #0
    /* Initializing semaphore object dataa.*/
    chSemObjectInit(&dsp->sem, n);
 80063b8:	f100 0310 	add.w	r3, r0, #16
  tqp->prev = (thread_t *)tqp;
 80063bc:	e9c0 3304 	strd	r3, r3, [r0, #16]
 80063c0:	6182      	str	r2, [r0, #24]
  }

  F_UNLOCK();
 80063c2:	4802      	ldr	r0, [pc, #8]	; (80063cc <chFactoryCreateSemaphore.constprop.51+0x2c>)
 80063c4:	f7ff fe84 	bl	80060d0 <chMtxUnlock>

  return dsp;
}
 80063c8:	4620      	mov	r0, r4
 80063ca:	bd10      	pop	{r4, pc}
 80063cc:	20001344 	.word	0x20001344
 80063d0:	20001370 	.word	0x20001370
 80063d4:	08009fd4 	.word	0x08009fd4
	...

080063e0 <chFactoryFindSemaphore.constprop.50>:
 * @retval NULL         if a dynamic semaphore object with the specified name
 *                      does not exist.
 *
 * @api
 */
dyn_semaphore_t *chFactoryFindSemaphore(const char *name) {
 80063e0:	b538      	push	{r3, r4, r5, lr}
  dyn_semaphore_t *dsp;

  F_LOCK();
 80063e2:	4c07      	ldr	r4, [pc, #28]	; (8006400 <chFactoryFindSemaphore.constprop.50+0x20>)
 80063e4:	4620      	mov	r0, r4
 80063e6:	f7fd ff6b 	bl	80042c0 <chMtxLock>

  dsp = (dyn_semaphore_t *)dyn_find_object(name, &ch_factory.sem_list);
 80063ea:	f104 0128 	add.w	r1, r4, #40	; 0x28
 80063ee:	4805      	ldr	r0, [pc, #20]	; (8006404 <chFactoryFindSemaphore.constprop.50+0x24>)
 80063f0:	f7fc fce6 	bl	8002dc0 <dyn_find_object>
 80063f4:	4605      	mov	r5, r0

  F_UNLOCK();
 80063f6:	4620      	mov	r0, r4
 80063f8:	f7ff fe6a 	bl	80060d0 <chMtxUnlock>

  return dsp;
}
 80063fc:	4628      	mov	r0, r5
 80063fe:	bd38      	pop	{r3, r4, r5, pc}
 8006400:	20001344 	.word	0x20001344
 8006404:	08009fd4 	.word	0x08009fd4
	...

08006410 <chFactoryCreateMailbox.constprop.49>:
 * @retval NULL         if the dynamic mailbox object cannot be allocated or
 *                      a dynamic mailbox object with the same name exists.
 *
 * @api
 */
dyn_mailbox_t *chFactoryCreateMailbox(const char *name, size_t n) {
 8006410:	b538      	push	{r3, r4, r5, lr}
  dyn_mailbox_t *dmp;

  F_LOCK();
 8006412:	4811      	ldr	r0, [pc, #68]	; (8006458 <chFactoryCreateMailbox.constprop.49+0x48>)
 8006414:	f7fd ff54 	bl	80042c0 <chMtxLock>

  dmp = (dyn_mailbox_t *)dyn_create_object_heap(name,
 8006418:	2278      	movs	r2, #120	; 0x78
 800641a:	4910      	ldr	r1, [pc, #64]	; (800645c <chFactoryCreateMailbox.constprop.49+0x4c>)
 800641c:	4810      	ldr	r0, [pc, #64]	; (8006460 <chFactoryCreateMailbox.constprop.49+0x50>)
 800641e:	f7ff ff07 	bl	8006230 <dyn_create_object_heap>
                                                &ch_factory.mbx_list,
                                                sizeof (dyn_mailbox_t) +
                                                (n * sizeof (msg_t)));
  if (dmp != NULL) {
 8006422:	4604      	mov	r4, r0
 8006424:	b198      	cbz	r0, 800644e <chFactoryCreateMailbox.constprop.49+0x3e>
  mbp->cnt    = (size_t)0;
 8006426:	2000      	movs	r0, #0
    /* Initializing mailbox object data.*/
    chMBObjectInit(&dmp->mbx, dmp->msgbuf, n);
 8006428:	f104 0338 	add.w	r3, r4, #56	; 0x38
  chThdQueueObjectInit(&mbp->qw);
 800642c:	f104 0128 	add.w	r1, r4, #40	; 0x28
  chThdQueueObjectInit(&mbp->qr);
 8006430:	f104 0230 	add.w	r2, r4, #48	; 0x30
  mbp->wrptr  = buf;
 8006434:	e9c4 3306 	strd	r3, r3, [r4, #24]
 8006438:	e9c4 110a 	strd	r1, r1, [r4, #40]	; 0x28
 800643c:	e9c4 220c 	strd	r2, r2, [r4, #48]	; 0x30
  mbp->top    = &buf[n];
 8006440:	f104 0578 	add.w	r5, r4, #120	; 0x78
  mbp->cnt    = (size_t)0;
 8006444:	6220      	str	r0, [r4, #32]
  mbp->reset  = false;
 8006446:	f884 0024 	strb.w	r0, [r4, #36]	; 0x24
  mbp->buffer = buf;
 800644a:	6123      	str	r3, [r4, #16]
  mbp->top    = &buf[n];
 800644c:	6165      	str	r5, [r4, #20]
  }

  F_UNLOCK();
 800644e:	4802      	ldr	r0, [pc, #8]	; (8006458 <chFactoryCreateMailbox.constprop.49+0x48>)
 8006450:	f7ff fe3e 	bl	80060d0 <chMtxUnlock>

  return dmp;
}
 8006454:	4620      	mov	r0, r4
 8006456:	bd38      	pop	{r3, r4, r5, pc}
 8006458:	20001344 	.word	0x20001344
 800645c:	20001380 	.word	0x20001380
 8006460:	08009fc4 	.word	0x08009fc4
	...

08006470 <chFactoryFindMailbox.constprop.48>:
 * @retval NULL         if a dynamic mailbox object with the specified name
 *                      does not exist.
 *
 * @api
 */
dyn_mailbox_t *chFactoryFindMailbox(const char *name) {
 8006470:	b538      	push	{r3, r4, r5, lr}
  dyn_mailbox_t *dmp;

  F_LOCK();
 8006472:	4c07      	ldr	r4, [pc, #28]	; (8006490 <chFactoryFindMailbox.constprop.48+0x20>)
 8006474:	4620      	mov	r0, r4
 8006476:	f7fd ff23 	bl	80042c0 <chMtxLock>

  dmp = (dyn_mailbox_t *)dyn_find_object(name, &ch_factory.mbx_list);
 800647a:	f104 013c 	add.w	r1, r4, #60	; 0x3c
 800647e:	4805      	ldr	r0, [pc, #20]	; (8006494 <chFactoryFindMailbox.constprop.48+0x24>)
 8006480:	f7fc fc9e 	bl	8002dc0 <dyn_find_object>
 8006484:	4605      	mov	r5, r0

  F_UNLOCK();
 8006486:	4620      	mov	r0, r4
 8006488:	f7ff fe22 	bl	80060d0 <chMtxUnlock>

  return dmp;
}
 800648c:	4628      	mov	r0, r5
 800648e:	bd38      	pop	{r3, r4, r5, pc}
 8006490:	20001344 	.word	0x20001344
 8006494:	08009fc4 	.word	0x08009fc4
	...

080064a0 <chFactoryCreateObjectsFIFO.constprop.47>:
 *                      allocated or a dynamic "objects FIFO" object with
 *                      the same name exists.
 *
 * @api
 */
dyn_objects_fifo_t *chFactoryCreateObjectsFIFO(const char *name,
 80064a0:	e92d 4ff8 	stmdb	sp!, {r3, r4, r5, r6, r7, r8, r9, sl, fp, lr}
                                               size_t objsize,
                                               size_t objn,
                                               unsigned objalign) {
  dyn_objects_fifo_t *dofp;

  F_LOCK();
 80064a4:	4823      	ldr	r0, [pc, #140]	; (8006534 <chFactoryCreateObjectsFIFO.constprop.47+0x94>)
 80064a6:	f7fd ff0b 	bl	80042c0 <chMtxLock>

  dofp = (dyn_objects_fifo_t *)dyn_create_object_heap(name,
 80064aa:	f44f 72ca 	mov.w	r2, #404	; 0x194
 80064ae:	4922      	ldr	r1, [pc, #136]	; (8006538 <chFactoryCreateObjectsFIFO.constprop.47+0x98>)
 80064b0:	4822      	ldr	r0, [pc, #136]	; (800653c <chFactoryCreateObjectsFIFO.constprop.47+0x9c>)
 80064b2:	f7ff febd 	bl	8006230 <dyn_create_object_heap>
                                                      &ch_factory.fifo_list,
                                                      sizeof (dyn_objects_fifo_t) +
                                                      (objn * sizeof (msg_t)) +
                                                      (objn * objsize));
  if (dofp != NULL) {
 80064b6:	4604      	mov	r4, r0
 80064b8:	b3a8      	cbz	r0, 8006526 <chFactoryCreateObjectsFIFO.constprop.47+0x86>
  mp->next = NULL;
 80064ba:	2300      	movs	r3, #0
  mp->object_size = size;
 80064bc:	2210      	movs	r2, #16
  mp->align = align;
 80064be:	2104      	movs	r1, #4
    /* Initializing mailbox object data.*/
    chFifoObjectInit(&dofp->fifo, objsize, objn, objalign,
                     (void *)&dofp->msgbuf[objn], dofp->msgbuf);
 80064c0:	f100 0a94 	add.w	sl, r0, #148	; 0x94
 80064c4:	4698      	mov	r8, r3
 80064c6:	4693      	mov	fp, r2
 80064c8:	4655      	mov	r5, sl
 80064ca:	2720      	movs	r7, #32
 */
static inline void chFifoObjectInit(objects_fifo_t *ofp, size_t objsize,
                                    size_t objn, unsigned objalign,
                                    void *objbuf, msg_t *msgbuf) {

  chGuardedPoolObjectInitAligned(&ofp->free, objsize, objalign);
 80064cc:	1886      	adds	r6, r0, r2
 80064ce:	e9c0 2108 	strd	r2, r1, [r0, #32]
 80064d2:	e9c0 6604 	strd	r6, r6, [r0, #16]
  mp->next = NULL;
 80064d6:	61c3      	str	r3, [r0, #28]
  mp->provider = provider;
 80064d8:	6283      	str	r3, [r0, #40]	; 0x28
 80064da:	6183      	str	r3, [r0, #24]
 80064dc:	f100 0954 	add.w	r9, r0, #84	; 0x54
 80064e0:	f387 8811 	msr	BASEPRI, r7
  php->next = mp->next;
 80064e4:	69e3      	ldr	r3, [r4, #28]
  chSemSignalI(&gmp->sem);
 80064e6:	4630      	mov	r0, r6
  php->next = mp->next;
 80064e8:	602b      	str	r3, [r5, #0]
  mp->next = php;
 80064ea:	61e5      	str	r5, [r4, #28]
  chSemSignalI(&gmp->sem);
 80064ec:	f7fb fc78 	bl	8001de0 <chSemSignalI>
  chSchRescheduleS();
 80064f0:	f7fe ffbe 	bl	8005470 <chSchRescheduleS>
 80064f4:	f388 8811 	msr	BASEPRI, r8
    p = (void *)(((uint8_t *)p) + gmp->pool.object_size);
 80064f8:	6a23      	ldr	r3, [r4, #32]
  while (n != 0U) {
 80064fa:	f1bb 0b01 	subs.w	fp, fp, #1
    p = (void *)(((uint8_t *)p) + gmp->pool.object_size);
 80064fe:	441d      	add	r5, r3
  while (n != 0U) {
 8006500:	d1ee      	bne.n	80064e0 <chFactoryCreateObjectsFIFO.constprop.47+0x40>
  chThdQueueObjectInit(&mbp->qw);
 8006502:	f104 0244 	add.w	r2, r4, #68	; 0x44
  chThdQueueObjectInit(&mbp->qr);
 8006506:	f104 034c 	add.w	r3, r4, #76	; 0x4c
  mbp->wrptr  = buf;
 800650a:	e9c4 990d 	strd	r9, r9, [r4, #52]	; 0x34
 800650e:	e9c4 2211 	strd	r2, r2, [r4, #68]	; 0x44
 8006512:	e9c4 3313 	strd	r3, r3, [r4, #76]	; 0x4c
  mbp->buffer = buf;
 8006516:	f8c4 902c 	str.w	r9, [r4, #44]	; 0x2c
  mbp->top    = &buf[n];
 800651a:	f8c4 a030 	str.w	sl, [r4, #48]	; 0x30
  mbp->cnt    = (size_t)0;
 800651e:	f8c4 b03c 	str.w	fp, [r4, #60]	; 0x3c
  mbp->reset  = false;
 8006522:	f884 b040 	strb.w	fp, [r4, #64]	; 0x40
  }

  F_UNLOCK();
 8006526:	4803      	ldr	r0, [pc, #12]	; (8006534 <chFactoryCreateObjectsFIFO.constprop.47+0x94>)
 8006528:	f7ff fdd2 	bl	80060d0 <chMtxUnlock>

  return dofp;
}
 800652c:	4620      	mov	r0, r4
 800652e:	e8bd 8ff8 	ldmia.w	sp!, {r3, r4, r5, r6, r7, r8, r9, sl, fp, pc}
 8006532:	bf00      	nop
 8006534:	20001344 	.word	0x20001344
 8006538:	20001384 	.word	0x20001384
 800653c:	08009fcc 	.word	0x08009fcc

08006540 <chFactoryFindObjectsFIFO.constprop.46>:
 * @retval NULL         if a dynamic "objects FIFO" object with the specified
 *                      name does not exist.
 *
 * @api
 */
dyn_objects_fifo_t *chFactoryFindObjectsFIFO(const char *name) {
 8006540:	b538      	push	{r3, r4, r5, lr}
  dyn_objects_fifo_t *dofp;

  F_LOCK();
 8006542:	4c07      	ldr	r4, [pc, #28]	; (8006560 <chFactoryFindObjectsFIFO.constprop.46+0x20>)
 8006544:	4620      	mov	r0, r4
 8006546:	f7fd febb 	bl	80042c0 <chMtxLock>

  dofp = (dyn_objects_fifo_t *)dyn_find_object(name, &ch_factory.fifo_list);
 800654a:	f104 0140 	add.w	r1, r4, #64	; 0x40
 800654e:	4805      	ldr	r0, [pc, #20]	; (8006564 <chFactoryFindObjectsFIFO.constprop.46+0x24>)
 8006550:	f7fc fc36 	bl	8002dc0 <dyn_find_object>
 8006554:	4605      	mov	r5, r0

  F_UNLOCK();
 8006556:	4620      	mov	r0, r4
 8006558:	f7ff fdba 	bl	80060d0 <chMtxUnlock>

  return dofp;
}
 800655c:	4628      	mov	r0, r5
 800655e:	bd38      	pop	{r3, r4, r5, pc}
 8006560:	20001344 	.word	0x20001344
 8006564:	08009fcc 	.word	0x08009fcc
	...

08006570 <rt_test_010_011_execute>:
static void rt_test_010_011_execute(void) {
 8006570:	e92d 43f8 	stmdb	sp!, {r3, r4, r5, r6, r7, r8, r9, lr}
  test_set_step(1);
 8006574:	2301      	movs	r3, #1
 8006576:	f8df 9084 	ldr.w	r9, [pc, #132]	; 80065fc <rt_test_010_011_execute+0x8c>
    n = 0;
 800657a:	2500      	movs	r5, #0
  test_set_step(1);
 800657c:	f8c9 3000 	str.w	r3, [r9]
    start = test_wait_tick();
 8006580:	f7fd fb86 	bl	8003c90 <test_wait_tick>
  return (systime_t)STM32_ST_TIM->CNT;
 8006584:	f04f 4880 	mov.w	r8, #1073741824	; 0x40000000
 8006588:	4607      	mov	r7, r0
 800658a:	f500 66fa 	add.w	r6, r0, #2000	; 0x7d0
 800658e:	b2b6      	uxth	r6, r6
      chMtxLock(&mtx1);
 8006590:	4c17      	ldr	r4, [pc, #92]	; (80065f0 <rt_test_010_011_execute+0x80>)
 8006592:	1a36      	subs	r6, r6, r0
 8006594:	4620      	mov	r0, r4
 8006596:	f7fd fe93 	bl	80042c0 <chMtxLock>
      chMtxUnlock(&mtx1);
 800659a:	4620      	mov	r0, r4
 800659c:	f7ff fd98 	bl	80060d0 <chMtxUnlock>
      chMtxLock(&mtx1);
 80065a0:	4620      	mov	r0, r4
 80065a2:	f7fd fe8d 	bl	80042c0 <chMtxLock>
      chMtxUnlock(&mtx1);
 80065a6:	4620      	mov	r0, r4
 80065a8:	f7ff fd92 	bl	80060d0 <chMtxUnlock>
      chMtxLock(&mtx1);
 80065ac:	4620      	mov	r0, r4
 80065ae:	f7fd fe87 	bl	80042c0 <chMtxLock>
      chMtxUnlock(&mtx1);
 80065b2:	4620      	mov	r0, r4
 80065b4:	f7ff fd8c 	bl	80060d0 <chMtxUnlock>
      chMtxLock(&mtx1);
 80065b8:	4620      	mov	r0, r4
 80065ba:	f7fd fe81 	bl	80042c0 <chMtxLock>
      chMtxUnlock(&mtx1);
 80065be:	4620      	mov	r0, r4
 80065c0:	f7ff fd86 	bl	80060d0 <chMtxUnlock>
 80065c4:	f8d8 3024 	ldr.w	r3, [r8, #36]	; 0x24
      n++;
 80065c8:	3501      	adds	r5, #1
  return (bool)((time - start) < (end - start));
 80065ca:	b29b      	uxth	r3, r3
 80065cc:	1bdb      	subs	r3, r3, r7
    } while (chVTIsSystemTimeWithinX(start, end));
 80065ce:	42b3      	cmp	r3, r6
 80065d0:	dbe0      	blt.n	8006594 <rt_test_010_011_execute+0x24>
  test_set_step(2);
 80065d2:	2302      	movs	r3, #2
    test_print("--- Score : ");
 80065d4:	4807      	ldr	r0, [pc, #28]	; (80065f4 <rt_test_010_011_execute+0x84>)
  test_set_step(2);
 80065d6:	f8c9 3000 	str.w	r3, [r9]
    test_print("--- Score : ");
 80065da:	f7fa fab9 	bl	8000b50 <test_print>
    test_printn(n * 4);
 80065de:	00a8      	lsls	r0, r5, #2
 80065e0:	f7fa fa46 	bl	8000a70 <test_printn>
}
 80065e4:	e8bd 43f8 	ldmia.w	sp!, {r3, r4, r5, r6, r7, r8, r9, lr}
    test_println(" lock+unlock/S");
 80065e8:	4803      	ldr	r0, [pc, #12]	; (80065f8 <rt_test_010_011_execute+0x88>)
 80065ea:	f7fa ba91 	b.w	8000b10 <test_println>
 80065ee:	bf00      	nop
 80065f0:	20001508 	.word	0x20001508
 80065f4:	0800b7c0 	.word	0x0800b7c0
 80065f8:	0800b80c 	.word	0x0800b80c
 80065fc:	20001c5c 	.word	0x20001c5c

08006600 <thread8>:
static THD_FUNCTION(thread8, p) {
 8006600:	b5f8      	push	{r3, r4, r5, r6, r7, lr}
 8006602:	4607      	mov	r7, r0
  chMtxLock(&m2);
 8006604:	481c      	ldr	r0, [pc, #112]	; (8006678 <thread8+0x78>)
 8006606:	f7fd fe5b 	bl	80042c0 <chMtxLock>
  chMtxLock(&m1);
 800660a:	481c      	ldr	r0, [pc, #112]	; (800667c <thread8+0x7c>)
 800660c:	f7fd fe58 	bl	80042c0 <chMtxLock>
 8006610:	2320      	movs	r3, #32
 8006612:	f383 8811 	msr	BASEPRI, r3
  return ch.rlist.current;
 8006616:	4d1a      	ldr	r5, [pc, #104]	; (8006680 <thread8+0x80>)
 *
 * @sclass
 */
static inline mutex_t *chMtxGetNextMutexS(void) {

  return chThdGetSelfX()->mtxlist;
 8006618:	69ab      	ldr	r3, [r5, #24]
 800661a:	6b9e      	ldr	r6, [r3, #56]	; 0x38
  chDbgCheck((cp != NULL) && (timeout != TIME_IMMEDIATE));
  chDbgAssert(currp->mtxlist != NULL, "not owning a mutex");

  /* Getting "current" mutex and releasing it.*/
  mp = chMtxGetNextMutexS();
  chMtxUnlockS(mp);
 800661c:	4630      	mov	r0, r6
 800661e:	f7fb fbb7 	bl	8001d90 <chMtxUnlockS>

  /* Start waiting on the condition variable, on exit the mutex is taken
     again.*/
  currp->u.wtobjp = cp;
 8006622:	4a18      	ldr	r2, [pc, #96]	; (8006684 <thread8+0x84>)
 8006624:	69ac      	ldr	r4, [r5, #24]
  thread_t *cp = (thread_t *)tqp;
 8006626:	4610      	mov	r0, r2
 8006628:	4613      	mov	r3, r2
 800662a:	6262      	str	r2, [r4, #36]	; 0x24
 800662c:	e003      	b.n	8006636 <thread8+0x36>
  } while ((cp != (thread_t *)tqp) && (cp->prio >= tp->prio));
 800662e:	6899      	ldr	r1, [r3, #8]
 8006630:	68a2      	ldr	r2, [r4, #8]
 8006632:	4291      	cmp	r1, r2
 8006634:	d302      	bcc.n	800663c <thread8+0x3c>
    cp = cp->queue.next;
 8006636:	681b      	ldr	r3, [r3, #0]
  } while ((cp != (thread_t *)tqp) && (cp->prio >= tp->prio));
 8006638:	4283      	cmp	r3, r0
 800663a:	d1f8      	bne.n	800662e <thread8+0x2e>
  tp->queue.prev             = cp->queue.prev;
 800663c:	685a      	ldr	r2, [r3, #4]
    chSchGoSleepS(newstate);
 800663e:	2007      	movs	r0, #7
 8006640:	e9c4 3200 	strd	r3, r2, [r4]
  tp->queue.prev->queue.next = tp;
 8006644:	6014      	str	r4, [r2, #0]
  cp->queue.prev             = tp;
 8006646:	605c      	str	r4, [r3, #4]
 8006648:	f7fc fd2a 	bl	80030a0 <chSchGoSleepS>
  return currp->u.rdymsg;
 800664c:	69ab      	ldr	r3, [r5, #24]
  queue_prio_insert(currp, &cp->queue);
  msg = chSchGoSleepTimeoutS(CH_STATE_WTCOND, timeout);
  if (msg != MSG_TIMEOUT) {
 800664e:	6a5b      	ldr	r3, [r3, #36]	; 0x24
 8006650:	3301      	adds	r3, #1
 8006652:	d002      	beq.n	800665a <thread8+0x5a>
    chMtxLockS(mp);
 8006654:	4630      	mov	r0, r6
 8006656:	f7fd fdbb 	bl	80041d0 <chMtxLockS>
 800665a:	2300      	movs	r3, #0
 800665c:	f383 8811 	msr	BASEPRI, r3
  test_emit_token(*(char *)p);
 8006660:	7838      	ldrb	r0, [r7, #0]
 8006662:	f7fa fa15 	bl	8000a90 <test_emit_token>
  chMtxUnlock(&m1);
 8006666:	4805      	ldr	r0, [pc, #20]	; (800667c <thread8+0x7c>)
 8006668:	f7ff fd32 	bl	80060d0 <chMtxUnlock>
}
 800666c:	e8bd 40f8 	ldmia.w	sp!, {r3, r4, r5, r6, r7, lr}
  chMtxUnlock(&m2);
 8006670:	4801      	ldr	r0, [pc, #4]	; (8006678 <thread8+0x78>)
 8006672:	f7ff bd2d 	b.w	80060d0 <chMtxUnlock>
 8006676:	bf00      	nop
 8006678:	20000850 	.word	0x20000850
 800667c:	20000840 	.word	0x20000840
 8006680:	200012d0 	.word	0x200012d0
 8006684:	2000080c 	.word	0x2000080c
	...

08006690 <thread6>:
static THD_FUNCTION(thread6, p) {
 8006690:	b570      	push	{r4, r5, r6, lr}
 8006692:	4606      	mov	r6, r0
  chMtxLock(&m1);
 8006694:	4816      	ldr	r0, [pc, #88]	; (80066f0 <thread6+0x60>)
 8006696:	f7fd fe13 	bl	80042c0 <chMtxLock>
 800669a:	2320      	movs	r3, #32
 800669c:	f383 8811 	msr	BASEPRI, r3
  thread_t *ctp = currp;
 80066a0:	4b14      	ldr	r3, [pc, #80]	; (80066f4 <thread6+0x64>)
 80066a2:	699c      	ldr	r4, [r3, #24]
 80066a4:	6ba5      	ldr	r5, [r4, #56]	; 0x38
  chMtxUnlockS(mp);
 80066a6:	4628      	mov	r0, r5
 80066a8:	f7fb fb72 	bl	8001d90 <chMtxUnlockS>
  ctp->u.wtobjp = cp;
 80066ac:	4a12      	ldr	r2, [pc, #72]	; (80066f8 <thread6+0x68>)
  thread_t *cp = (thread_t *)tqp;
 80066ae:	4610      	mov	r0, r2
 80066b0:	4613      	mov	r3, r2
 80066b2:	6262      	str	r2, [r4, #36]	; 0x24
 80066b4:	e003      	b.n	80066be <thread6+0x2e>
  } while ((cp != (thread_t *)tqp) && (cp->prio >= tp->prio));
 80066b6:	6899      	ldr	r1, [r3, #8]
 80066b8:	68a2      	ldr	r2, [r4, #8]
 80066ba:	4291      	cmp	r1, r2
 80066bc:	d302      	bcc.n	80066c4 <thread6+0x34>
    cp = cp->queue.next;
 80066be:	681b      	ldr	r3, [r3, #0]
  } while ((cp != (thread_t *)tqp) && (cp->prio >= tp->prio));
 80066c0:	4283      	cmp	r3, r0
 80066c2:	d1f8      	bne.n	80066b6 <thread6+0x26>
  tp->queue.prev             = cp->queue.prev;
 80066c4:	685a      	ldr	r2, [r3, #4]
  chSchGoSleepS(CH_STATE_WTCOND);
 80066c6:	2007      	movs	r0, #7
 80066c8:	e9c4 3200 	strd	r3, r2, [r4]
  tp->queue.prev->queue.next = tp;
 80066cc:	6014      	str	r4, [r2, #0]
  cp->queue.prev             = tp;
 80066ce:	605c      	str	r4, [r3, #4]
 80066d0:	f7fc fce6 	bl	80030a0 <chSchGoSleepS>
  chMtxLockS(mp);
 80066d4:	4628      	mov	r0, r5
 80066d6:	f7fd fd7b 	bl	80041d0 <chMtxLockS>
 80066da:	2300      	movs	r3, #0
 80066dc:	f383 8811 	msr	BASEPRI, r3
  test_emit_token(*(char *)p);
 80066e0:	7830      	ldrb	r0, [r6, #0]
 80066e2:	f7fa f9d5 	bl	8000a90 <test_emit_token>
}
 80066e6:	e8bd 4070 	ldmia.w	sp!, {r4, r5, r6, lr}
  chMtxUnlock(&m1);
 80066ea:	4801      	ldr	r0, [pc, #4]	; (80066f0 <thread6+0x60>)
 80066ec:	f7ff bcf0 	b.w	80060d0 <chMtxUnlock>
 80066f0:	20000840 	.word	0x20000840
 80066f4:	200012d0 	.word	0x200012d0
 80066f8:	2000080c 	.word	0x2000080c
 80066fc:	00000000 	.word	0x00000000

08006700 <thread9>:
static THD_FUNCTION(thread9, p) {
 8006700:	b538      	push	{r3, r4, r5, lr}
 8006702:	4605      	mov	r5, r0
  chMtxLock(&m2);
 8006704:	4c05      	ldr	r4, [pc, #20]	; (800671c <thread9+0x1c>)
 8006706:	4620      	mov	r0, r4
 8006708:	f7fd fdda 	bl	80042c0 <chMtxLock>
  test_emit_token(*(char *)p);
 800670c:	7828      	ldrb	r0, [r5, #0]
 800670e:	f7fa f9bf 	bl	8000a90 <test_emit_token>
  chMtxUnlock(&m2);
 8006712:	4620      	mov	r0, r4
}
 8006714:	e8bd 4038 	ldmia.w	sp!, {r3, r4, r5, lr}
  chMtxUnlock(&m2);
 8006718:	f7ff bcda 	b.w	80060d0 <chMtxUnlock>
 800671c:	20000850 	.word	0x20000850

08006720 <rt_test_006_005_execute>:
  test_set_step(2);
 8006720:	2202      	movs	r2, #2
static void rt_test_006_005_execute(void) {
 8006722:	e92d 43f8 	stmdb	sp!, {r3, r4, r5, r6, r7, r8, r9, lr}
 8006726:	4d4d      	ldr	r5, [pc, #308]	; (800685c <rt_test_006_005_execute+0x13c>)
  test_set_step(2);
 8006728:	4c4d      	ldr	r4, [pc, #308]	; (8006860 <rt_test_006_005_execute+0x140>)
  return chThdGetSelfX()->prio;
 800672a:	69ab      	ldr	r3, [r5, #24]
 800672c:	6022      	str	r2, [r4, #0]
 800672e:	689e      	ldr	r6, [r3, #8]
    b = chMtxTryLock(&m1);
 8006730:	f7f9 feee 	bl	8000510 <chMtxTryLock.constprop.95>
    test_assert(b, "already locked");
 8006734:	494b      	ldr	r1, [pc, #300]	; (8006864 <rt_test_006_005_execute+0x144>)
 8006736:	f7fa f90b 	bl	8000950 <_test_assert>
 800673a:	b108      	cbz	r0, 8006740 <rt_test_006_005_execute+0x20>
}
 800673c:	e8bd 83f8 	ldmia.w	sp!, {r3, r4, r5, r6, r7, r8, r9, pc}
  test_set_step(3);
 8006740:	2303      	movs	r3, #3
 8006742:	6023      	str	r3, [r4, #0]
    b = chMtxTryLock(&m1);
 8006744:	f7f9 fee4 	bl	8000510 <chMtxTryLock.constprop.95>
    test_assert(!b, "not locked");
 8006748:	f080 0001 	eor.w	r0, r0, #1
 800674c:	b2c0      	uxtb	r0, r0
 800674e:	4946      	ldr	r1, [pc, #280]	; (8006868 <rt_test_006_005_execute+0x148>)
 8006750:	f7fa f8fe 	bl	8000950 <_test_assert>
 8006754:	2800      	cmp	r0, #0
 8006756:	d1f1      	bne.n	800673c <rt_test_006_005_execute+0x1c>
  test_set_step(4);
 8006758:	2304      	movs	r3, #4
    chMtxUnlock(&m1);
 800675a:	4f44      	ldr	r7, [pc, #272]	; (800686c <rt_test_006_005_execute+0x14c>)
  test_set_step(4);
 800675c:	6023      	str	r3, [r4, #0]
    chMtxUnlock(&m1);
 800675e:	4638      	mov	r0, r7
 8006760:	f7ff fcb6 	bl	80060d0 <chMtxUnlock>
    test_assert(m1.owner == NULL, "still owned");
 8006764:	68b8      	ldr	r0, [r7, #8]
 8006766:	4942      	ldr	r1, [pc, #264]	; (8006870 <rt_test_006_005_execute+0x150>)
 8006768:	fab0 f080 	clz	r0, r0
 800676c:	0940      	lsrs	r0, r0, #5
 800676e:	f7fa f8ef 	bl	8000950 <_test_assert>
 8006772:	2800      	cmp	r0, #0
 8006774:	d1e2      	bne.n	800673c <rt_test_006_005_execute+0x1c>
  return (bool)(tqp->next == (const thread_t *)tqp);
 8006776:	6838      	ldr	r0, [r7, #0]
    test_assert(queue_isempty(&m1.queue), "queue not empty");
 8006778:	493e      	ldr	r1, [pc, #248]	; (8006874 <rt_test_006_005_execute+0x154>)
 800677a:	1bc0      	subs	r0, r0, r7
 800677c:	fab0 f080 	clz	r0, r0
 8006780:	0940      	lsrs	r0, r0, #5
 8006782:	f7fa f8e5 	bl	8000950 <_test_assert>
 8006786:	2800      	cmp	r0, #0
 8006788:	d1d8      	bne.n	800673c <rt_test_006_005_execute+0x1c>
 800678a:	69ab      	ldr	r3, [r5, #24]
  test_set_step(5);
 800678c:	2205      	movs	r2, #5
    test_assert(chThdGetPriorityX() == prio, "wrong priority level");
 800678e:	6898      	ldr	r0, [r3, #8]
 8006790:	4939      	ldr	r1, [pc, #228]	; (8006878 <rt_test_006_005_execute+0x158>)
 8006792:	1b80      	subs	r0, r0, r6
 8006794:	fab0 f080 	clz	r0, r0
 8006798:	0940      	lsrs	r0, r0, #5
  test_set_step(5);
 800679a:	6022      	str	r2, [r4, #0]
    test_assert(chThdGetPriorityX() == prio, "wrong priority level");
 800679c:	f7fa f8d8 	bl	8000950 <_test_assert>
 80067a0:	2800      	cmp	r0, #0
 80067a2:	d1cb      	bne.n	800673c <rt_test_006_005_execute+0x1c>
  test_set_step(6);
 80067a4:	2306      	movs	r3, #6
 80067a6:	6023      	str	r3, [r4, #0]
    b = chMtxTryLock(&m1);
 80067a8:	f7f9 feb2 	bl	8000510 <chMtxTryLock.constprop.95>
    test_assert(b, "already locked");
 80067ac:	492d      	ldr	r1, [pc, #180]	; (8006864 <rt_test_006_005_execute+0x144>)
 80067ae:	f7fa f8cf 	bl	8000950 <_test_assert>
 80067b2:	2800      	cmp	r0, #0
 80067b4:	d1c2      	bne.n	800673c <rt_test_006_005_execute+0x1c>
    b = chMtxTryLock(&m1);
 80067b6:	f7f9 feab 	bl	8000510 <chMtxTryLock.constprop.95>
    test_assert(!b, "not locked");
 80067ba:	f080 0001 	eor.w	r0, r0, #1
 80067be:	b2c0      	uxtb	r0, r0
 80067c0:	4929      	ldr	r1, [pc, #164]	; (8006868 <rt_test_006_005_execute+0x148>)
 80067c2:	f7fa f8c5 	bl	8000950 <_test_assert>
 80067c6:	2800      	cmp	r0, #0
 80067c8:	d1b8      	bne.n	800673c <rt_test_006_005_execute+0x1c>
 *          inheritance mechanism.
 *
 * @api
 */
void chMtxUnlockAll(void) {
  thread_t *ctp = currp;
 80067ca:	f8d5 8018 	ldr.w	r8, [r5, #24]
 80067ce:	2320      	movs	r3, #32
 80067d0:	f383 8811 	msr	BASEPRI, r3

  chSysLock();
  if (ctp->mtxlist != NULL) {
 80067d4:	f8d8 3038 	ldr.w	r3, [r8, #56]	; 0x38
 80067d8:	b1d3      	cbz	r3, 8006810 <rt_test_006_005_execute+0xf0>
      }
      else {
#if CH_CFG_USE_MUTEXES_RECURSIVE == TRUE
        mp->cnt = (cnt_t)0;
#endif
        mp->owner = NULL;
 80067da:	4681      	mov	r9, r0
  return (bool)(tqp->next != (const thread_t *)tqp);
 80067dc:	681a      	ldr	r2, [r3, #0]
      ctp->mtxlist = mp->next;
 80067de:	68d9      	ldr	r1, [r3, #12]
      if (chMtxQueueNotEmptyS(mp)) {
 80067e0:	4293      	cmp	r3, r2
      ctp->mtxlist = mp->next;
 80067e2:	f8c8 1038 	str.w	r1, [r8, #56]	; 0x38
      if (chMtxQueueNotEmptyS(mp)) {
 80067e6:	d034      	beq.n	8006852 <rt_test_006_005_execute+0x132>
        mp->next = tp->mtxlist;
 80067e8:	6b90      	ldr	r0, [r2, #56]	; 0x38
  tqp->next             = tp->queue.next;
 80067ea:	6811      	ldr	r1, [r2, #0]
 80067ec:	6019      	str	r1, [r3, #0]
  tqp->next->queue.prev = (thread_t *)tqp;
 80067ee:	604b      	str	r3, [r1, #4]
 80067f0:	e9c3 2002 	strd	r2, r0, [r3, #8]
        tp->mtxlist = mp;
 80067f4:	6393      	str	r3, [r2, #56]	; 0x38
        (void) chSchReadyI(tp);
 80067f6:	4610      	mov	r0, r2
 80067f8:	f7fb f95a 	bl	8001ab0 <chSchReadyI>
 80067fc:	f8d8 3038 	ldr.w	r3, [r8, #56]	; 0x38
      }
    } while (ctp->mtxlist != NULL);
 8006800:	2b00      	cmp	r3, #0
 8006802:	d1eb      	bne.n	80067dc <rt_test_006_005_execute+0xbc>
    ctp->prio = ctp->realprio;
 8006804:	f8d8 303c 	ldr.w	r3, [r8, #60]	; 0x3c
 8006808:	f8c8 3008 	str.w	r3, [r8, #8]
    chSchRescheduleS();
 800680c:	f7fe fe30 	bl	8005470 <chSchRescheduleS>
 8006810:	2300      	movs	r3, #0
 8006812:	f383 8811 	msr	BASEPRI, r3
    test_assert(m1.owner == NULL, "still owned");
 8006816:	68b8      	ldr	r0, [r7, #8]
 8006818:	4915      	ldr	r1, [pc, #84]	; (8006870 <rt_test_006_005_execute+0x150>)
 800681a:	fab0 f080 	clz	r0, r0
 800681e:	0940      	lsrs	r0, r0, #5
 8006820:	f7fa f896 	bl	8000950 <_test_assert>
 8006824:	2800      	cmp	r0, #0
 8006826:	d189      	bne.n	800673c <rt_test_006_005_execute+0x1c>
  return (bool)(tqp->next == (const thread_t *)tqp);
 8006828:	6838      	ldr	r0, [r7, #0]
    test_assert(queue_isempty(&m1.queue), "queue not empty");
 800682a:	4912      	ldr	r1, [pc, #72]	; (8006874 <rt_test_006_005_execute+0x154>)
 800682c:	1bc2      	subs	r2, r0, r7
 800682e:	4250      	negs	r0, r2
 8006830:	4150      	adcs	r0, r2
 8006832:	f7fa f88d 	bl	8000950 <_test_assert>
 8006836:	2800      	cmp	r0, #0
 8006838:	d180      	bne.n	800673c <rt_test_006_005_execute+0x1c>
  test_set_step(7);
 800683a:	2307      	movs	r3, #7
 800683c:	69aa      	ldr	r2, [r5, #24]
 800683e:	6023      	str	r3, [r4, #0]
    test_assert(chThdGetPriorityX() == prio, "wrong priority level");
 8006840:	6890      	ldr	r0, [r2, #8]
 8006842:	490d      	ldr	r1, [pc, #52]	; (8006878 <rt_test_006_005_execute+0x158>)
 8006844:	1b83      	subs	r3, r0, r6
 8006846:	4258      	negs	r0, r3
 8006848:	4158      	adcs	r0, r3
}
 800684a:	e8bd 43f8 	ldmia.w	sp!, {r3, r4, r5, r6, r7, r8, r9, lr}
    test_assert(chThdGetPriorityX() == prio, "wrong priority level");
 800684e:	f7fa b87f 	b.w	8000950 <_test_assert>
        mp->owner = NULL;
 8006852:	f8c3 9008 	str.w	r9, [r3, #8]
 8006856:	460b      	mov	r3, r1
 8006858:	e7d2      	b.n	8006800 <rt_test_006_005_execute+0xe0>
 800685a:	bf00      	nop
 800685c:	200012d0 	.word	0x200012d0
 8006860:	20001c5c 	.word	0x20001c5c
 8006864:	0800b460 	.word	0x0800b460
 8006868:	0800b470 	.word	0x0800b470
 800686c:	20000840 	.word	0x20000840
 8006870:	0800b47c 	.word	0x0800b47c
 8006874:	0800b3b4 	.word	0x0800b3b4
 8006878:	0800b488 	.word	0x0800b488
 800687c:	00000000 	.word	0x00000000

08006880 <rt_test_006_004_execute>:
static void rt_test_006_004_execute(void) {
 8006880:	e92d 43f8 	stmdb	sp!, {r3, r4, r5, r6, r7, r8, r9, lr}
  test_set_step(2);
 8006884:	2702      	movs	r7, #2
  return ch.rlist.current;
 8006886:	4d3e      	ldr	r5, [pc, #248]	; (8006980 <rt_test_006_004_execute+0x100>)
 8006888:	4e3e      	ldr	r6, [pc, #248]	; (8006984 <rt_test_006_004_execute+0x104>)
  return chThdGetSelfX()->prio;
 800688a:	69aa      	ldr	r2, [r5, #24]
    threads[0] = chThdCreateStatic(wa[0], WA_SIZE, pa, thread4A, "A");
 800688c:	4b3e      	ldr	r3, [pc, #248]	; (8006988 <rt_test_006_004_execute+0x108>)
 800688e:	6894      	ldr	r4, [r2, #8]
 8006890:	483e      	ldr	r0, [pc, #248]	; (800698c <rt_test_006_004_execute+0x10c>)
    pa = p + 1;
 8006892:	f104 0801 	add.w	r8, r4, #1
    threads[0] = chThdCreateStatic(wa[0], WA_SIZE, pa, thread4A, "A");
 8006896:	4a3e      	ldr	r2, [pc, #248]	; (8006990 <rt_test_006_004_execute+0x110>)
 8006898:	4641      	mov	r1, r8
  test_set_step(2);
 800689a:	6037      	str	r7, [r6, #0]
    threads[0] = chThdCreateStatic(wa[0], WA_SIZE, pa, thread4A, "A");
 800689c:	f7fc fb50 	bl	8002f40 <chThdCreateStatic.constprop.103>
 80068a0:	4f3c      	ldr	r7, [pc, #240]	; (8006994 <rt_test_006_004_execute+0x114>)
    pb = p + 2;
 80068a2:	f104 0902 	add.w	r9, r4, #2
    threads[1] = chThdCreateStatic(wa[1], WA_SIZE, pb, thread4B, "B");
 80068a6:	4649      	mov	r1, r9
    threads[0] = chThdCreateStatic(wa[0], WA_SIZE, pa, thread4A, "A");
 80068a8:	6038      	str	r0, [r7, #0]
    threads[1] = chThdCreateStatic(wa[1], WA_SIZE, pb, thread4B, "B");
 80068aa:	4b3b      	ldr	r3, [pc, #236]	; (8006998 <rt_test_006_004_execute+0x118>)
 80068ac:	4a3b      	ldr	r2, [pc, #236]	; (800699c <rt_test_006_004_execute+0x11c>)
 80068ae:	483c      	ldr	r0, [pc, #240]	; (80069a0 <rt_test_006_004_execute+0x120>)
 80068b0:	f7fc fb46 	bl	8002f40 <chThdCreateStatic.constprop.103>
  test_set_step(3);
 80068b4:	2303      	movs	r3, #3
    threads[1] = chThdCreateStatic(wa[1], WA_SIZE, pb, thread4B, "B");
 80068b6:	6078      	str	r0, [r7, #4]
    chMtxLock(&m1);
 80068b8:	483a      	ldr	r0, [pc, #232]	; (80069a4 <rt_test_006_004_execute+0x124>)
  test_set_step(3);
 80068ba:	6033      	str	r3, [r6, #0]
    chMtxLock(&m1);
 80068bc:	f7fd fd00 	bl	80042c0 <chMtxLock>
 80068c0:	69ab      	ldr	r3, [r5, #24]
    test_assert(chThdGetPriorityX() == p, "wrong priority level");
 80068c2:	4939      	ldr	r1, [pc, #228]	; (80069a8 <rt_test_006_004_execute+0x128>)
 80068c4:	6898      	ldr	r0, [r3, #8]
 80068c6:	1b00      	subs	r0, r0, r4
 80068c8:	fab0 f080 	clz	r0, r0
 80068cc:	0940      	lsrs	r0, r0, #5
 80068ce:	f7fa f83f 	bl	8000950 <_test_assert>
 80068d2:	b108      	cbz	r0, 80068d8 <rt_test_006_004_execute+0x58>
}
 80068d4:	e8bd 83f8 	ldmia.w	sp!, {r3, r4, r5, r6, r7, r8, r9, pc}
  test_set_step(4);
 80068d8:	2304      	movs	r3, #4
    chThdSleepMilliseconds(100);
 80068da:	20c8      	movs	r0, #200	; 0xc8
  test_set_step(4);
 80068dc:	6033      	str	r3, [r6, #0]
    chThdSleepMilliseconds(100);
 80068de:	f7fd f937 	bl	8003b50 <chThdSleep>
 80068e2:	69ab      	ldr	r3, [r5, #24]
    test_assert(chThdGetPriorityX() == pa, "wrong priority level");
 80068e4:	4930      	ldr	r1, [pc, #192]	; (80069a8 <rt_test_006_004_execute+0x128>)
 80068e6:	6898      	ldr	r0, [r3, #8]
 80068e8:	eba0 0008 	sub.w	r0, r0, r8
 80068ec:	fab0 f080 	clz	r0, r0
 80068f0:	0940      	lsrs	r0, r0, #5
 80068f2:	f7fa f82d 	bl	8000950 <_test_assert>
 80068f6:	2800      	cmp	r0, #0
 80068f8:	d1ec      	bne.n	80068d4 <rt_test_006_004_execute+0x54>
  test_set_step(5);
 80068fa:	2305      	movs	r3, #5
    chMtxLock(&m2);
 80068fc:	482b      	ldr	r0, [pc, #172]	; (80069ac <rt_test_006_004_execute+0x12c>)
  test_set_step(5);
 80068fe:	6033      	str	r3, [r6, #0]
    chMtxLock(&m2);
 8006900:	f7fd fcde 	bl	80042c0 <chMtxLock>
 8006904:	69ab      	ldr	r3, [r5, #24]
    test_assert(chThdGetPriorityX() == pa, "wrong priority level");
 8006906:	4928      	ldr	r1, [pc, #160]	; (80069a8 <rt_test_006_004_execute+0x128>)
 8006908:	6898      	ldr	r0, [r3, #8]
 800690a:	eba0 0008 	sub.w	r0, r0, r8
 800690e:	fab0 f080 	clz	r0, r0
 8006912:	0940      	lsrs	r0, r0, #5
 8006914:	f7fa f81c 	bl	8000950 <_test_assert>
 8006918:	2800      	cmp	r0, #0
 800691a:	d1db      	bne.n	80068d4 <rt_test_006_004_execute+0x54>
  test_set_step(6);
 800691c:	2306      	movs	r3, #6
    chThdSleepMilliseconds(100);
 800691e:	20c8      	movs	r0, #200	; 0xc8
  test_set_step(6);
 8006920:	6033      	str	r3, [r6, #0]
    chThdSleepMilliseconds(100);
 8006922:	f7fd f915 	bl	8003b50 <chThdSleep>
 8006926:	69ab      	ldr	r3, [r5, #24]
    test_assert(chThdGetPriorityX() == pb, "wrong priority level");
 8006928:	491f      	ldr	r1, [pc, #124]	; (80069a8 <rt_test_006_004_execute+0x128>)
 800692a:	6898      	ldr	r0, [r3, #8]
 800692c:	eba0 0009 	sub.w	r0, r0, r9
 8006930:	fab0 f080 	clz	r0, r0
 8006934:	0940      	lsrs	r0, r0, #5
 8006936:	f7fa f80b 	bl	8000950 <_test_assert>
 800693a:	2800      	cmp	r0, #0
 800693c:	d1ca      	bne.n	80068d4 <rt_test_006_004_execute+0x54>
  test_set_step(7);
 800693e:	2307      	movs	r3, #7
    chMtxUnlock(&m2);
 8006940:	481a      	ldr	r0, [pc, #104]	; (80069ac <rt_test_006_004_execute+0x12c>)
  test_set_step(7);
 8006942:	6033      	str	r3, [r6, #0]
    chMtxUnlock(&m2);
 8006944:	f7ff fbc4 	bl	80060d0 <chMtxUnlock>
 8006948:	69ab      	ldr	r3, [r5, #24]
    test_assert(chThdGetPriorityX() == pa, "wrong priority level");
 800694a:	4917      	ldr	r1, [pc, #92]	; (80069a8 <rt_test_006_004_execute+0x128>)
 800694c:	6898      	ldr	r0, [r3, #8]
 800694e:	eba0 0008 	sub.w	r0, r0, r8
 8006952:	fab0 f080 	clz	r0, r0
 8006956:	0940      	lsrs	r0, r0, #5
 8006958:	f7f9 fffa 	bl	8000950 <_test_assert>
 800695c:	2800      	cmp	r0, #0
 800695e:	d1b9      	bne.n	80068d4 <rt_test_006_004_execute+0x54>
  test_set_step(8);
 8006960:	2308      	movs	r3, #8
    chMtxUnlock(&m1);
 8006962:	4810      	ldr	r0, [pc, #64]	; (80069a4 <rt_test_006_004_execute+0x124>)
  test_set_step(8);
 8006964:	6033      	str	r3, [r6, #0]
    chMtxUnlock(&m1);
 8006966:	f7ff fbb3 	bl	80060d0 <chMtxUnlock>
 800696a:	69ab      	ldr	r3, [r5, #24]
    test_assert(chThdGetPriorityX() == p, "wrong priority level");
 800696c:	490e      	ldr	r1, [pc, #56]	; (80069a8 <rt_test_006_004_execute+0x128>)
 800696e:	6898      	ldr	r0, [r3, #8]
 8006970:	1b00      	subs	r0, r0, r4
 8006972:	fab0 f080 	clz	r0, r0
}
 8006976:	e8bd 43f8 	ldmia.w	sp!, {r3, r4, r5, r6, r7, r8, r9, lr}
    test_assert(chThdGetPriorityX() == p, "wrong priority level");
 800697a:	0940      	lsrs	r0, r0, #5
 800697c:	f7f9 bfe8 	b.w	8000950 <_test_assert>
 8006980:	200012d0 	.word	0x200012d0
 8006984:	20001c5c 	.word	0x20001c5c
 8006988:	0800b448 	.word	0x0800b448
 800698c:	20001548 	.word	0x20001548
 8006990:	080069b1 	.word	0x080069b1
 8006994:	20001c74 	.word	0x20001c74
 8006998:	0800b44c 	.word	0x0800b44c
 800699c:	08006001 	.word	0x08006001
 80069a0:	20001690 	.word	0x20001690
 80069a4:	20000840 	.word	0x20000840
 80069a8:	0800b488 	.word	0x0800b488
 80069ac:	20000850 	.word	0x20000850

080069b0 <thread4A>:
static THD_FUNCTION(thread4A, p) {
 80069b0:	b510      	push	{r4, lr}
  chMtxLock(&m1);
 80069b2:	4c06      	ldr	r4, [pc, #24]	; (80069cc <thread4A+0x1c>)
  chThdSleepMilliseconds(50);
 80069b4:	2064      	movs	r0, #100	; 0x64
 80069b6:	f7fd f8cb 	bl	8003b50 <chThdSleep>
  chMtxLock(&m1);
 80069ba:	4620      	mov	r0, r4
 80069bc:	f7fd fc80 	bl	80042c0 <chMtxLock>
  chMtxUnlock(&m1);
 80069c0:	4620      	mov	r0, r4
}
 80069c2:	e8bd 4010 	ldmia.w	sp!, {r4, lr}
  chMtxUnlock(&m1);
 80069c6:	f7ff bb83 	b.w	80060d0 <chMtxUnlock>
 80069ca:	bf00      	nop
 80069cc:	20000840 	.word	0x20000840

080069d0 <thread1.lto_priv.115>:
static THD_FUNCTION(thread1, p) {
 80069d0:	b538      	push	{r3, r4, r5, lr}
 80069d2:	4605      	mov	r5, r0
  chMtxLock(&m1);
 80069d4:	4c05      	ldr	r4, [pc, #20]	; (80069ec <thread1.lto_priv.115+0x1c>)
 80069d6:	4620      	mov	r0, r4
 80069d8:	f7fd fc72 	bl	80042c0 <chMtxLock>
  test_emit_token(*(char *)p);
 80069dc:	7828      	ldrb	r0, [r5, #0]
 80069de:	f7fa f857 	bl	8000a90 <test_emit_token>
  chMtxUnlock(&m1);
 80069e2:	4620      	mov	r0, r4
}
 80069e4:	e8bd 4038 	ldmia.w	sp!, {r3, r4, r5, lr}
  chMtxUnlock(&m1);
 80069e8:	f7ff bb72 	b.w	80060d0 <chMtxUnlock>
 80069ec:	20000840 	.word	0x20000840

080069f0 <chFactoryReleaseSemaphore>:
void chFactoryReleaseSemaphore(dyn_semaphore_t *dsp) {
 80069f0:	b538      	push	{r3, r4, r5, lr}
 80069f2:	4604      	mov	r4, r0
  F_LOCK();
 80069f4:	4d16      	ldr	r5, [pc, #88]	; (8006a50 <chFactoryReleaseSemaphore+0x60>)
 80069f6:	4628      	mov	r0, r5
 80069f8:	f7fd fc62 	bl	80042c0 <chMtxLock>
  dep->refs--;
 80069fc:	6863      	ldr	r3, [r4, #4]
 80069fe:	3b01      	subs	r3, #1
 8006a00:	6063      	str	r3, [r4, #4]
  if (dep->refs == (ucnt_t)0) {
 8006a02:	b123      	cbz	r3, 8006a0e <chFactoryReleaseSemaphore+0x1e>
}
 8006a04:	e8bd 4038 	ldmia.w	sp!, {r3, r4, r5, lr}
  F_UNLOCK();
 8006a08:	4811      	ldr	r0, [pc, #68]	; (8006a50 <chFactoryReleaseSemaphore+0x60>)
 8006a0a:	f7ff bb61 	b.w	80060d0 <chMtxUnlock>
  dyn_element_t *prev = (dyn_element_t *)dlp;
 8006a0e:	f105 0128 	add.w	r1, r5, #40	; 0x28
 8006a12:	460a      	mov	r2, r1
 8006a14:	e002      	b.n	8006a1c <chFactoryReleaseSemaphore+0x2c>
    if (prev->next == element) {
 8006a16:	429c      	cmp	r4, r3
 8006a18:	d00a      	beq.n	8006a30 <chFactoryReleaseSemaphore+0x40>
 8006a1a:	461a      	mov	r2, r3
  while (prev->next != (dyn_element_t *)dlp) {
 8006a1c:	6813      	ldr	r3, [r2, #0]
 8006a1e:	428b      	cmp	r3, r1
 8006a20:	d1f9      	bne.n	8006a16 <chFactoryReleaseSemaphore+0x26>
 8006a22:	2320      	movs	r3, #32
 8006a24:	f383 8811 	msr	BASEPRI, r3
  php->next = mp->next;
 8006a28:	2300      	movs	r3, #0
 8006a2a:	6aea      	ldr	r2, [r5, #44]	; 0x2c
 8006a2c:	601a      	str	r2, [r3, #0]
 8006a2e:	deff      	udf	#255	; 0xff
      prev->next = element->next;
 8006a30:	6821      	ldr	r1, [r4, #0]
 8006a32:	2320      	movs	r3, #32
 8006a34:	6011      	str	r1, [r2, #0]
 8006a36:	f383 8811 	msr	BASEPRI, r3
 8006a3a:	6aea      	ldr	r2, [r5, #44]	; 0x2c
 8006a3c:	2300      	movs	r3, #0
 8006a3e:	6022      	str	r2, [r4, #0]
  mp->next = php;
 8006a40:	62ec      	str	r4, [r5, #44]	; 0x2c
 8006a42:	f383 8811 	msr	BASEPRI, r3
  F_UNLOCK();
 8006a46:	4802      	ldr	r0, [pc, #8]	; (8006a50 <chFactoryReleaseSemaphore+0x60>)
}
 8006a48:	e8bd 4038 	ldmia.w	sp!, {r3, r4, r5, lr}
  F_UNLOCK();
 8006a4c:	f7ff bb40 	b.w	80060d0 <chMtxUnlock>
 8006a50:	20001344 	.word	0x20001344
	...

08006a60 <oslib_test_004_003_execute>:
      chFactoryReleaseSemaphore(dsp);
    }
  }
}

static void oslib_test_004_003_execute(void) {
 8006a60:	b5f8      	push	{r3, r4, r5, r6, r7, lr}
  dyn_semaphore_t *dsp;

  /* [4.3.1] Retrieving a dynamic semaphore by name, must not exist.*/
  test_set_step(1);
 8006a62:	2501      	movs	r5, #1
 8006a64:	4c41      	ldr	r4, [pc, #260]	; (8006b6c <oslib_test_004_003_execute+0x10c>)
 8006a66:	6025      	str	r5, [r4, #0]
  {
    dsp = chFactoryFindSemaphore("mysem");
 8006a68:	f7ff fcba 	bl	80063e0 <chFactoryFindSemaphore.constprop.50>
    test_assert(dsp == NULL, "found");
 8006a6c:	fab0 f080 	clz	r0, r0
 8006a70:	493f      	ldr	r1, [pc, #252]	; (8006b70 <oslib_test_004_003_execute+0x110>)
 8006a72:	0940      	lsrs	r0, r0, #5
 8006a74:	f7f9 ff6c 	bl	8000950 <_test_assert>
 8006a78:	b100      	cbz	r0, 8006a7c <oslib_test_004_003_execute+0x1c>
  test_set_step(6);
  {
    dsp = chFactoryFindSemaphore("mysem");
    test_assert(dsp == NULL, "found");
  }
}
 8006a7a:	bdf8      	pop	{r3, r4, r5, r6, r7, pc}
  test_set_step(2);
 8006a7c:	2302      	movs	r3, #2
 8006a7e:	6023      	str	r3, [r4, #0]
    dsp = chFactoryCreateSemaphore("mysem", 0);
 8006a80:	f7ff fc8e 	bl	80063a0 <chFactoryCreateSemaphore.constprop.51>
    test_assert(dsp != NULL, "cannot create");
 8006a84:	4606      	mov	r6, r0
 8006a86:	3000      	adds	r0, #0
 8006a88:	bf18      	it	ne
 8006a8a:	2001      	movne	r0, #1
 8006a8c:	4939      	ldr	r1, [pc, #228]	; (8006b74 <oslib_test_004_003_execute+0x114>)
 8006a8e:	f7f9 ff5f 	bl	8000950 <_test_assert>
 8006a92:	2800      	cmp	r0, #0
 8006a94:	d1f1      	bne.n	8006a7a <oslib_test_004_003_execute+0x1a>
  test_set_step(3);
 8006a96:	2303      	movs	r3, #3
 8006a98:	6023      	str	r3, [r4, #0]
    dsp1 = chFactoryCreateSemaphore("mysem", 0);
 8006a9a:	f7ff fc81 	bl	80063a0 <chFactoryCreateSemaphore.constprop.51>
    test_assert(dsp1 == NULL, "can create");
 8006a9e:	fab0 f080 	clz	r0, r0
 8006aa2:	4935      	ldr	r1, [pc, #212]	; (8006b78 <oslib_test_004_003_execute+0x118>)
 8006aa4:	0940      	lsrs	r0, r0, #5
 8006aa6:	f7f9 ff53 	bl	8000950 <_test_assert>
 8006aaa:	2800      	cmp	r0, #0
 8006aac:	d1e5      	bne.n	8006a7a <oslib_test_004_003_execute+0x1a>
  test_set_step(4);
 8006aae:	2304      	movs	r3, #4
 8006ab0:	6023      	str	r3, [r4, #0]
    dsp1 = chFactoryFindSemaphore("mysem");
 8006ab2:	f7ff fc95 	bl	80063e0 <chFactoryFindSemaphore.constprop.50>
    test_assert(dsp1 != NULL, "not found");
 8006ab6:	4607      	mov	r7, r0
 8006ab8:	3000      	adds	r0, #0
 8006aba:	bf18      	it	ne
 8006abc:	2001      	movne	r0, #1
 8006abe:	492f      	ldr	r1, [pc, #188]	; (8006b7c <oslib_test_004_003_execute+0x11c>)
 8006ac0:	f7f9 ff46 	bl	8000950 <_test_assert>
 8006ac4:	2800      	cmp	r0, #0
 8006ac6:	d1d8      	bne.n	8006a7a <oslib_test_004_003_execute+0x1a>
    test_assert(dsp == dsp1, "object reference mismatch");
 8006ac8:	1bf0      	subs	r0, r6, r7
 8006aca:	fab0 f080 	clz	r0, r0
 8006ace:	492c      	ldr	r1, [pc, #176]	; (8006b80 <oslib_test_004_003_execute+0x120>)
 8006ad0:	0940      	lsrs	r0, r0, #5
 8006ad2:	f7f9 ff3d 	bl	8000950 <_test_assert>
 8006ad6:	2800      	cmp	r0, #0
 8006ad8:	d1cf      	bne.n	8006a7a <oslib_test_004_003_execute+0x1a>
    test_assert(dsp1->element.refs == 2, "object reference mismatch");
 8006ada:	6878      	ldr	r0, [r7, #4]
 8006adc:	4928      	ldr	r1, [pc, #160]	; (8006b80 <oslib_test_004_003_execute+0x120>)
 8006ade:	f1a0 0002 	sub.w	r0, r0, #2
 8006ae2:	fab0 f080 	clz	r0, r0
 8006ae6:	0940      	lsrs	r0, r0, #5
 8006ae8:	f7f9 ff32 	bl	8000950 <_test_assert>
 8006aec:	2800      	cmp	r0, #0
 8006aee:	d1c4      	bne.n	8006a7a <oslib_test_004_003_execute+0x1a>
 *
 * @api
 */
static inline dyn_element_t *chFactoryDuplicateReference(dyn_element_t *dep) {

  dep->refs++;
 8006af0:	687b      	ldr	r3, [r7, #4]
    test_assert(dsp1 == dsp2, "object reference mismatch");
 8006af2:	4628      	mov	r0, r5
 8006af4:	442b      	add	r3, r5
 8006af6:	607b      	str	r3, [r7, #4]
 8006af8:	4921      	ldr	r1, [pc, #132]	; (8006b80 <oslib_test_004_003_execute+0x120>)
 8006afa:	f7f9 ff29 	bl	8000950 <_test_assert>
 8006afe:	2800      	cmp	r0, #0
 8006b00:	d1bb      	bne.n	8006a7a <oslib_test_004_003_execute+0x1a>
    test_assert(dsp2->element.refs == 3, "object reference mismatch");
 8006b02:	6878      	ldr	r0, [r7, #4]
 8006b04:	491e      	ldr	r1, [pc, #120]	; (8006b80 <oslib_test_004_003_execute+0x120>)
 8006b06:	f1a0 0c03 	sub.w	ip, r0, #3
 8006b0a:	f1dc 0000 	rsbs	r0, ip, #0
 8006b0e:	eb40 000c 	adc.w	r0, r0, ip
 8006b12:	f7f9 ff1d 	bl	8000950 <_test_assert>
 8006b16:	2800      	cmp	r0, #0
 8006b18:	d1af      	bne.n	8006a7a <oslib_test_004_003_execute+0x1a>
    chFactoryReleaseSemaphore(dsp2);
 8006b1a:	4638      	mov	r0, r7
 8006b1c:	f7ff ff68 	bl	80069f0 <chFactoryReleaseSemaphore>
    test_assert(dsp1->element.refs == 2, "references mismatch");
 8006b20:	6878      	ldr	r0, [r7, #4]
 8006b22:	4918      	ldr	r1, [pc, #96]	; (8006b84 <oslib_test_004_003_execute+0x124>)
 8006b24:	1e82      	subs	r2, r0, #2
 8006b26:	4250      	negs	r0, r2
 8006b28:	4150      	adcs	r0, r2
 8006b2a:	f7f9 ff11 	bl	8000950 <_test_assert>
 8006b2e:	2800      	cmp	r0, #0
 8006b30:	d1a3      	bne.n	8006a7a <oslib_test_004_003_execute+0x1a>
    chFactoryReleaseSemaphore(dsp1);
 8006b32:	4638      	mov	r0, r7
 8006b34:	f7ff ff5c 	bl	80069f0 <chFactoryReleaseSemaphore>
    test_assert(dsp->element.refs == 1, "references mismatch");
 8006b38:	6870      	ldr	r0, [r6, #4]
 8006b3a:	4912      	ldr	r1, [pc, #72]	; (8006b84 <oslib_test_004_003_execute+0x124>)
 8006b3c:	1b43      	subs	r3, r0, r5
 8006b3e:	4258      	negs	r0, r3
 8006b40:	4158      	adcs	r0, r3
 8006b42:	f7f9 ff05 	bl	8000950 <_test_assert>
 8006b46:	2800      	cmp	r0, #0
 8006b48:	d197      	bne.n	8006a7a <oslib_test_004_003_execute+0x1a>
  test_set_step(5);
 8006b4a:	2305      	movs	r3, #5
    chFactoryReleaseSemaphore(dsp);
 8006b4c:	4630      	mov	r0, r6
  test_set_step(5);
 8006b4e:	6023      	str	r3, [r4, #0]
    chFactoryReleaseSemaphore(dsp);
 8006b50:	f7ff ff4e 	bl	80069f0 <chFactoryReleaseSemaphore>
  test_set_step(6);
 8006b54:	2306      	movs	r3, #6
 8006b56:	6023      	str	r3, [r4, #0]
    dsp = chFactoryFindSemaphore("mysem");
 8006b58:	f7ff fc42 	bl	80063e0 <chFactoryFindSemaphore.constprop.50>
}
 8006b5c:	e8bd 40f8 	ldmia.w	sp!, {r3, r4, r5, r6, r7, lr}
    test_assert(dsp == NULL, "found");
 8006b60:	fab0 f080 	clz	r0, r0
 8006b64:	4902      	ldr	r1, [pc, #8]	; (8006b70 <oslib_test_004_003_execute+0x110>)
 8006b66:	0940      	lsrs	r0, r0, #5
 8006b68:	f7f9 bef2 	b.w	8000950 <_test_assert>
 8006b6c:	20001c5c 	.word	0x20001c5c
 8006b70:	0800a620 	.word	0x0800a620
 8006b74:	0800a600 	.word	0x0800a600
 8006b78:	0800a610 	.word	0x0800a610
 8006b7c:	0800a61c 	.word	0x0800a61c
 8006b80:	0800a628 	.word	0x0800a628
 8006b84:	0800a644 	.word	0x0800a644
	...

08006b90 <oslib_test_004_003_teardown>:
static void oslib_test_004_003_teardown(void) {
 8006b90:	b510      	push	{r4, lr}
  dsp = chFactoryFindSemaphore("mysem");
 8006b92:	f7ff fc25 	bl	80063e0 <chFactoryFindSemaphore.constprop.50>
  if (dsp != NULL) {
 8006b96:	b140      	cbz	r0, 8006baa <oslib_test_004_003_teardown+0x1a>
    while (dsp->element.refs > 0U) {
 8006b98:	6843      	ldr	r3, [r0, #4]
 8006b9a:	4604      	mov	r4, r0
 8006b9c:	b12b      	cbz	r3, 8006baa <oslib_test_004_003_teardown+0x1a>
      chFactoryReleaseSemaphore(dsp);
 8006b9e:	4620      	mov	r0, r4
 8006ba0:	f7ff ff26 	bl	80069f0 <chFactoryReleaseSemaphore>
    while (dsp->element.refs > 0U) {
 8006ba4:	6863      	ldr	r3, [r4, #4]
 8006ba6:	2b00      	cmp	r3, #0
 8006ba8:	d1f9      	bne.n	8006b9e <oslib_test_004_003_teardown+0xe>
}
 8006baa:	bd10      	pop	{r4, pc}
 8006bac:	0000      	movs	r0, r0
	...

08006bb0 <chFactoryReleaseObject>:
void chFactoryReleaseObject(registered_object_t *rop){
 8006bb0:	b538      	push	{r3, r4, r5, lr}
 8006bb2:	4604      	mov	r4, r0
  F_LOCK();
 8006bb4:	4d16      	ldr	r5, [pc, #88]	; (8006c10 <chFactoryReleaseObject+0x60>)
 8006bb6:	4628      	mov	r0, r5
 8006bb8:	f7fd fb82 	bl	80042c0 <chMtxLock>
  dep->refs--;
 8006bbc:	6863      	ldr	r3, [r4, #4]
 8006bbe:	3b01      	subs	r3, #1
 8006bc0:	6063      	str	r3, [r4, #4]
  if (dep->refs == (ucnt_t)0) {
 8006bc2:	b123      	cbz	r3, 8006bce <chFactoryReleaseObject+0x1e>
}
 8006bc4:	e8bd 4038 	ldmia.w	sp!, {r3, r4, r5, lr}
  F_UNLOCK();
 8006bc8:	4811      	ldr	r0, [pc, #68]	; (8006c10 <chFactoryReleaseObject+0x60>)
 8006bca:	f7ff ba81 	b.w	80060d0 <chMtxUnlock>
  dyn_element_t *prev = (dyn_element_t *)dlp;
 8006bce:	f105 0110 	add.w	r1, r5, #16
 8006bd2:	460a      	mov	r2, r1
 8006bd4:	e002      	b.n	8006bdc <chFactoryReleaseObject+0x2c>
    if (prev->next == element) {
 8006bd6:	429c      	cmp	r4, r3
 8006bd8:	d00a      	beq.n	8006bf0 <chFactoryReleaseObject+0x40>
 8006bda:	461a      	mov	r2, r3
  while (prev->next != (dyn_element_t *)dlp) {
 8006bdc:	6813      	ldr	r3, [r2, #0]
 8006bde:	428b      	cmp	r3, r1
 8006be0:	d1f9      	bne.n	8006bd6 <chFactoryReleaseObject+0x26>
 8006be2:	2320      	movs	r3, #32
 8006be4:	f383 8811 	msr	BASEPRI, r3
  php->next = mp->next;
 8006be8:	2300      	movs	r3, #0
 8006bea:	696a      	ldr	r2, [r5, #20]
 8006bec:	601a      	str	r2, [r3, #0]
 8006bee:	deff      	udf	#255	; 0xff
      prev->next = element->next;
 8006bf0:	6821      	ldr	r1, [r4, #0]
 8006bf2:	2320      	movs	r3, #32
 8006bf4:	6011      	str	r1, [r2, #0]
 8006bf6:	f383 8811 	msr	BASEPRI, r3
 8006bfa:	696a      	ldr	r2, [r5, #20]
 8006bfc:	2300      	movs	r3, #0
 8006bfe:	6022      	str	r2, [r4, #0]
  mp->next = php;
 8006c00:	616c      	str	r4, [r5, #20]
 8006c02:	f383 8811 	msr	BASEPRI, r3
  F_UNLOCK();
 8006c06:	4802      	ldr	r0, [pc, #8]	; (8006c10 <chFactoryReleaseObject+0x60>)
}
 8006c08:	e8bd 4038 	ldmia.w	sp!, {r3, r4, r5, lr}
  F_UNLOCK();
 8006c0c:	f7ff ba60 	b.w	80060d0 <chMtxUnlock>
 8006c10:	20001344 	.word	0x20001344
	...

08006c20 <oslib_test_004_001_execute>:
static void oslib_test_004_001_execute(void) {
 8006c20:	e92d 41f0 	stmdb	sp!, {r4, r5, r6, r7, r8, lr}
  test_set_step(1);
 8006c24:	2501      	movs	r5, #1
 8006c26:	4c51      	ldr	r4, [pc, #324]	; (8006d6c <oslib_test_004_001_execute+0x14c>)
 8006c28:	6025      	str	r5, [r4, #0]
    rop = chFactoryFindObject("myobj");
 8006c2a:	f7ff fb69 	bl	8006300 <chFactoryFindObject.constprop.54>
    test_assert(rop == NULL, "found");
 8006c2e:	fab0 f080 	clz	r0, r0
 8006c32:	494f      	ldr	r1, [pc, #316]	; (8006d70 <oslib_test_004_001_execute+0x150>)
 8006c34:	0940      	lsrs	r0, r0, #5
 8006c36:	f7f9 fe8b 	bl	8000950 <_test_assert>
 8006c3a:	b108      	cbz	r0, 8006c40 <oslib_test_004_001_execute+0x20>
}
 8006c3c:	e8bd 81f0 	ldmia.w	sp!, {r4, r5, r6, r7, r8, pc}
  test_set_step(2);
 8006c40:	2302      	movs	r3, #2
    rop = chFactoryRegisterObject("myobj", (void *)&myobj);
 8006c42:	484c      	ldr	r0, [pc, #304]	; (8006d74 <oslib_test_004_001_execute+0x154>)
  test_set_step(2);
 8006c44:	6023      	str	r3, [r4, #0]
    rop = chFactoryRegisterObject("myobj", (void *)&myobj);
 8006c46:	f7ff fb43 	bl	80062d0 <chFactoryRegisterObject.constprop.55>
    test_assert(rop != NULL, "cannot register");
 8006c4a:	4606      	mov	r6, r0
 8006c4c:	3000      	adds	r0, #0
 8006c4e:	bf18      	it	ne
 8006c50:	2001      	movne	r0, #1
 8006c52:	4949      	ldr	r1, [pc, #292]	; (8006d78 <oslib_test_004_001_execute+0x158>)
 8006c54:	f7f9 fe7c 	bl	8000950 <_test_assert>
 8006c58:	2800      	cmp	r0, #0
 8006c5a:	d1ef      	bne.n	8006c3c <oslib_test_004_001_execute+0x1c>
  test_set_step(3);
 8006c5c:	2303      	movs	r3, #3
    rop1 = chFactoryRegisterObject("myobj", (void *)&myobj);
 8006c5e:	4847      	ldr	r0, [pc, #284]	; (8006d7c <oslib_test_004_001_execute+0x15c>)
  test_set_step(3);
 8006c60:	6023      	str	r3, [r4, #0]
    rop1 = chFactoryRegisterObject("myobj", (void *)&myobj);
 8006c62:	f7ff fb35 	bl	80062d0 <chFactoryRegisterObject.constprop.55>
    test_assert(rop1 == NULL, "can register");
 8006c66:	fab0 f080 	clz	r0, r0
 8006c6a:	4945      	ldr	r1, [pc, #276]	; (8006d80 <oslib_test_004_001_execute+0x160>)
 8006c6c:	0940      	lsrs	r0, r0, #5
 8006c6e:	f7f9 fe6f 	bl	8000950 <_test_assert>
 8006c72:	2800      	cmp	r0, #0
 8006c74:	d1e2      	bne.n	8006c3c <oslib_test_004_001_execute+0x1c>
  test_set_step(4);
 8006c76:	2304      	movs	r3, #4
 8006c78:	6023      	str	r3, [r4, #0]
    rop1 = chFactoryFindObject("myobj");
 8006c7a:	f7ff fb41 	bl	8006300 <chFactoryFindObject.constprop.54>
    test_assert(rop1 != NULL, "not found");
 8006c7e:	4607      	mov	r7, r0
 8006c80:	3000      	adds	r0, #0
 8006c82:	bf18      	it	ne
 8006c84:	2001      	movne	r0, #1
 8006c86:	493f      	ldr	r1, [pc, #252]	; (8006d84 <oslib_test_004_001_execute+0x164>)
 8006c88:	f7f9 fe62 	bl	8000950 <_test_assert>
 8006c8c:	2800      	cmp	r0, #0
 8006c8e:	d1d5      	bne.n	8006c3c <oslib_test_004_001_execute+0x1c>
    test_assert(*(uint32_t *)(rop1->objp) == 0x55aa, "object mismatch");
 8006c90:	f245 58aa 	movw	r8, #21930	; 0x55aa
 8006c94:	693b      	ldr	r3, [r7, #16]
 8006c96:	493c      	ldr	r1, [pc, #240]	; (8006d88 <oslib_test_004_001_execute+0x168>)
 8006c98:	6818      	ldr	r0, [r3, #0]
 8006c9a:	eba0 0008 	sub.w	r0, r0, r8
 8006c9e:	fab0 f080 	clz	r0, r0
 8006ca2:	0940      	lsrs	r0, r0, #5
 8006ca4:	f7f9 fe54 	bl	8000950 <_test_assert>
 8006ca8:	2800      	cmp	r0, #0
 8006caa:	d1c7      	bne.n	8006c3c <oslib_test_004_001_execute+0x1c>
    test_assert(rop == rop1, "object reference mismatch");
 8006cac:	1bf0      	subs	r0, r6, r7
 8006cae:	fab0 f080 	clz	r0, r0
 8006cb2:	4936      	ldr	r1, [pc, #216]	; (8006d8c <oslib_test_004_001_execute+0x16c>)
 8006cb4:	0940      	lsrs	r0, r0, #5
 8006cb6:	f7f9 fe4b 	bl	8000950 <_test_assert>
 8006cba:	2800      	cmp	r0, #0
 8006cbc:	d1be      	bne.n	8006c3c <oslib_test_004_001_execute+0x1c>
    test_assert(rop1->element.refs == 2, "object reference mismatch");
 8006cbe:	6878      	ldr	r0, [r7, #4]
 8006cc0:	4932      	ldr	r1, [pc, #200]	; (8006d8c <oslib_test_004_001_execute+0x16c>)
 8006cc2:	f1a0 0002 	sub.w	r0, r0, #2
 8006cc6:	fab0 f080 	clz	r0, r0
 8006cca:	0940      	lsrs	r0, r0, #5
 8006ccc:	f7f9 fe40 	bl	8000950 <_test_assert>
 8006cd0:	2800      	cmp	r0, #0
 8006cd2:	d1b3      	bne.n	8006c3c <oslib_test_004_001_execute+0x1c>
 8006cd4:	687b      	ldr	r3, [r7, #4]
    test_assert(rop1 == rop2, "object reference mismatch");
 8006cd6:	4628      	mov	r0, r5
 8006cd8:	442b      	add	r3, r5
 8006cda:	607b      	str	r3, [r7, #4]
 8006cdc:	492b      	ldr	r1, [pc, #172]	; (8006d8c <oslib_test_004_001_execute+0x16c>)
 8006cde:	f7f9 fe37 	bl	8000950 <_test_assert>
 8006ce2:	2800      	cmp	r0, #0
 8006ce4:	d1aa      	bne.n	8006c3c <oslib_test_004_001_execute+0x1c>
    test_assert(*(uint32_t *)(rop2->objp) == 0x55aa, "object mismatch");
 8006ce6:	693b      	ldr	r3, [r7, #16]
 8006ce8:	4927      	ldr	r1, [pc, #156]	; (8006d88 <oslib_test_004_001_execute+0x168>)
 8006cea:	6818      	ldr	r0, [r3, #0]
 8006cec:	eba0 0e08 	sub.w	lr, r0, r8
 8006cf0:	f1de 0000 	rsbs	r0, lr, #0
 8006cf4:	eb40 000e 	adc.w	r0, r0, lr
 8006cf8:	f7f9 fe2a 	bl	8000950 <_test_assert>
 8006cfc:	2800      	cmp	r0, #0
 8006cfe:	d19d      	bne.n	8006c3c <oslib_test_004_001_execute+0x1c>
    test_assert(rop2->element.refs == 3, "object reference mismatch");
 8006d00:	6878      	ldr	r0, [r7, #4]
 8006d02:	4922      	ldr	r1, [pc, #136]	; (8006d8c <oslib_test_004_001_execute+0x16c>)
 8006d04:	f1a0 0c03 	sub.w	ip, r0, #3
 8006d08:	f1dc 0000 	rsbs	r0, ip, #0
 8006d0c:	eb40 000c 	adc.w	r0, r0, ip
 8006d10:	f7f9 fe1e 	bl	8000950 <_test_assert>
 8006d14:	2800      	cmp	r0, #0
 8006d16:	d191      	bne.n	8006c3c <oslib_test_004_001_execute+0x1c>
    chFactoryReleaseObject(rop2);
 8006d18:	4638      	mov	r0, r7
 8006d1a:	f7ff ff49 	bl	8006bb0 <chFactoryReleaseObject>
    test_assert(rop1->element.refs == 2, "references mismatch");
 8006d1e:	6878      	ldr	r0, [r7, #4]
 8006d20:	491b      	ldr	r1, [pc, #108]	; (8006d90 <oslib_test_004_001_execute+0x170>)
 8006d22:	1e82      	subs	r2, r0, #2
 8006d24:	4250      	negs	r0, r2
 8006d26:	4150      	adcs	r0, r2
 8006d28:	f7f9 fe12 	bl	8000950 <_test_assert>
 8006d2c:	2800      	cmp	r0, #0
 8006d2e:	d185      	bne.n	8006c3c <oslib_test_004_001_execute+0x1c>
    chFactoryReleaseObject(rop1);
 8006d30:	4638      	mov	r0, r7
 8006d32:	f7ff ff3d 	bl	8006bb0 <chFactoryReleaseObject>
    test_assert(rop->element.refs == 1, "references mismatch");
 8006d36:	6870      	ldr	r0, [r6, #4]
 8006d38:	4915      	ldr	r1, [pc, #84]	; (8006d90 <oslib_test_004_001_execute+0x170>)
 8006d3a:	1b43      	subs	r3, r0, r5
 8006d3c:	4258      	negs	r0, r3
 8006d3e:	4158      	adcs	r0, r3
 8006d40:	f7f9 fe06 	bl	8000950 <_test_assert>
 8006d44:	2800      	cmp	r0, #0
 8006d46:	f47f af79 	bne.w	8006c3c <oslib_test_004_001_execute+0x1c>
  test_set_step(5);
 8006d4a:	2305      	movs	r3, #5
    chFactoryReleaseObject(rop);
 8006d4c:	4630      	mov	r0, r6
  test_set_step(5);
 8006d4e:	6023      	str	r3, [r4, #0]
    chFactoryReleaseObject(rop);
 8006d50:	f7ff ff2e 	bl	8006bb0 <chFactoryReleaseObject>
  test_set_step(6);
 8006d54:	2306      	movs	r3, #6
 8006d56:	6023      	str	r3, [r4, #0]
    rop = chFactoryFindObject("myobj");
 8006d58:	f7ff fad2 	bl	8006300 <chFactoryFindObject.constprop.54>
}
 8006d5c:	e8bd 41f0 	ldmia.w	sp!, {r4, r5, r6, r7, r8, lr}
    test_assert(rop == NULL, "found");
 8006d60:	fab0 f080 	clz	r0, r0
 8006d64:	4902      	ldr	r1, [pc, #8]	; (8006d70 <oslib_test_004_001_execute+0x150>)
 8006d66:	0940      	lsrs	r0, r0, #5
 8006d68:	f7f9 bdf2 	b.w	8000950 <_test_assert>
 8006d6c:	20001c5c 	.word	0x20001c5c
 8006d70:	0800a620 	.word	0x0800a620
 8006d74:	20000898 	.word	0x20000898
 8006d78:	0800a5b0 	.word	0x0800a5b0
 8006d7c:	2000089c 	.word	0x2000089c
 8006d80:	0800a5c0 	.word	0x0800a5c0
 8006d84:	0800a61c 	.word	0x0800a61c
 8006d88:	0800a5d0 	.word	0x0800a5d0
 8006d8c:	0800a628 	.word	0x0800a628
 8006d90:	0800a644 	.word	0x0800a644
	...

08006da0 <oslib_test_004_001_teardown>:
static void oslib_test_004_001_teardown(void) {
 8006da0:	b510      	push	{r4, lr}
  rop = chFactoryFindObject("myobj");
 8006da2:	f7ff faad 	bl	8006300 <chFactoryFindObject.constprop.54>
  if (rop != NULL) {
 8006da6:	b140      	cbz	r0, 8006dba <oslib_test_004_001_teardown+0x1a>
    while (rop->element.refs > 0U) {
 8006da8:	6843      	ldr	r3, [r0, #4]
 8006daa:	4604      	mov	r4, r0
 8006dac:	b12b      	cbz	r3, 8006dba <oslib_test_004_001_teardown+0x1a>
      chFactoryReleaseObject(rop);
 8006dae:	4620      	mov	r0, r4
 8006db0:	f7ff fefe 	bl	8006bb0 <chFactoryReleaseObject>
    while (rop->element.refs > 0U) {
 8006db4:	6863      	ldr	r3, [r4, #4]
 8006db6:	2b00      	cmp	r3, #0
 8006db8:	d1f9      	bne.n	8006dae <oslib_test_004_001_teardown+0xe>
}
 8006dba:	bd10      	pop	{r4, pc}
 8006dbc:	0000      	movs	r0, r0
	...

08006dc0 <chHeapStatus>:
 *                      free free block found space or @ NULL
 * @return              The number of fragments in the heap.
 *
 * @api
 */
size_t chHeapStatus(memory_heap_t *heapp, size_t *totalp, size_t *largestp) {
 8006dc0:	e92d 43f8 	stmdb	sp!, {r3, r4, r5, r6, r7, r8, r9, lr}
  heap_header_t *qp;
  size_t n, tpages, lpages;

  if (heapp == NULL) {
    heapp = &default_heap;
 8006dc4:	4c17      	ldr	r4, [pc, #92]	; (8006e24 <chHeapStatus+0x64>)
size_t chHeapStatus(memory_heap_t *heapp, size_t *totalp, size_t *largestp) {
 8006dc6:	4688      	mov	r8, r1
    heapp = &default_heap;
 8006dc8:	2800      	cmp	r0, #0
 8006dca:	bf18      	it	ne
 8006dcc:	4604      	movne	r4, r0
  }

  H_LOCK(heapp);
 8006dce:	f104 070c 	add.w	r7, r4, #12
 8006dd2:	4638      	mov	r0, r7
size_t chHeapStatus(memory_heap_t *heapp, size_t *totalp, size_t *largestp) {
 8006dd4:	4691      	mov	r9, r2
  H_LOCK(heapp);
 8006dd6:	f7fd fa73 	bl	80042c0 <chMtxLock>
  tpages = 0U;
  lpages = 0U;
  n = 0U;
  qp = &heapp->header;
  while (H_NEXT(qp) != NULL) {
 8006dda:	6863      	ldr	r3, [r4, #4]
 8006ddc:	b1f3      	cbz	r3, 8006e1c <chHeapStatus+0x5c>
  lpages = 0U;
 8006dde:	2400      	movs	r4, #0
  tpages = 0U;
 8006de0:	4625      	mov	r5, r4
  n = 0U;
 8006de2:	4626      	mov	r6, r4
    size_t pages = H_PAGES(H_NEXT(qp));
 8006de4:	6858      	ldr	r0, [r3, #4]
  while (H_NEXT(qp) != NULL) {
 8006de6:	681b      	ldr	r3, [r3, #0]
 8006de8:	4284      	cmp	r4, r0

    /* Updating counters.*/
    n++;
 8006dea:	f106 0601 	add.w	r6, r6, #1
    tpages += pages;
 8006dee:	4405      	add	r5, r0
 8006df0:	bf38      	it	cc
 8006df2:	4604      	movcc	r4, r0
  while (H_NEXT(qp) != NULL) {
 8006df4:	2b00      	cmp	r3, #0
 8006df6:	d1f5      	bne.n	8006de4 <chHeapStatus+0x24>

    qp = H_NEXT(qp);
  }

  /* Writing out fragmented free memory.*/
  if (totalp != NULL) {
 8006df8:	f1b8 0f00 	cmp.w	r8, #0
 8006dfc:	d002      	beq.n	8006e04 <chHeapStatus+0x44>
    *totalp = tpages * CH_HEAP_ALIGNMENT;
 8006dfe:	00ed      	lsls	r5, r5, #3
 8006e00:	f8c8 5000 	str.w	r5, [r8]
  }

  /* Writing out unfragmented free memory.*/
  if (largestp != NULL) {
 8006e04:	f1b9 0f00 	cmp.w	r9, #0
 8006e08:	d002      	beq.n	8006e10 <chHeapStatus+0x50>
    *largestp = lpages * CH_HEAP_ALIGNMENT;
 8006e0a:	00e4      	lsls	r4, r4, #3
 8006e0c:	f8c9 4000 	str.w	r4, [r9]
  }
  H_UNLOCK(heapp);
 8006e10:	4638      	mov	r0, r7
 8006e12:	f7ff f95d 	bl	80060d0 <chMtxUnlock>

  return n;
}
 8006e16:	4630      	mov	r0, r6
 8006e18:	e8bd 83f8 	ldmia.w	sp!, {r3, r4, r5, r6, r7, r8, r9, pc}
  lpages = 0U;
 8006e1c:	461c      	mov	r4, r3
  tpages = 0U;
 8006e1e:	461d      	mov	r5, r3
  n = 0U;
 8006e20:	461e      	mov	r6, r3
 8006e22:	e7e9      	b.n	8006df8 <chHeapStatus+0x38>
 8006e24:	20001468 	.word	0x20001468
	...

08006e30 <cmd_mem>:
static void cmd_mem(BaseSequentialStream *chp, int argc, char *argv[]) {
 8006e30:	b530      	push	{r4, r5, lr}
  if (argc > 0) {
 8006e32:	2900      	cmp	r1, #0
static void cmd_mem(BaseSequentialStream *chp, int argc, char *argv[]) {
 8006e34:	b083      	sub	sp, #12
  if (argc > 0) {
 8006e36:	dd05      	ble.n	8006e44 <cmd_mem+0x14>
    shellUsage(chp, "mem");
 8006e38:	4a12      	ldr	r2, [pc, #72]	; (8006e84 <cmd_mem+0x54>)
 8006e3a:	4913      	ldr	r1, [pc, #76]	; (8006e88 <cmd_mem+0x58>)
 8006e3c:	f7fb fa28 	bl	8002290 <chprintf>
}
 8006e40:	b003      	add	sp, #12
 8006e42:	bd30      	pop	{r4, r5, pc}
 8006e44:	4604      	mov	r4, r0
  n = chHeapStatus(NULL, &total, &largest);
 8006e46:	aa01      	add	r2, sp, #4
 8006e48:	4669      	mov	r1, sp
 8006e4a:	2000      	movs	r0, #0
 8006e4c:	f7ff ffb8 	bl	8006dc0 <chHeapStatus>
 8006e50:	4605      	mov	r5, r0
 * @xclass
 */
size_t chCoreGetStatusX(void) {

  /*lint -save -e9033 [10.8] The cast is safe.*/
  return (size_t)(ch_memcore.endmem - ch_memcore.nextmem);
 8006e52:	4b0e      	ldr	r3, [pc, #56]	; (8006e8c <cmd_mem+0x5c>)
  chprintf(chp, "core free memory : %u bytes"SHELL_NEWLINE_STR, chCoreGetStatusX());
 8006e54:	490e      	ldr	r1, [pc, #56]	; (8006e90 <cmd_mem+0x60>)
 8006e56:	685a      	ldr	r2, [r3, #4]
 8006e58:	681b      	ldr	r3, [r3, #0]
 8006e5a:	4620      	mov	r0, r4
 8006e5c:	1ad2      	subs	r2, r2, r3
 8006e5e:	f7fb fa17 	bl	8002290 <chprintf>
  chprintf(chp, "heap fragments   : %u"SHELL_NEWLINE_STR, n);
 8006e62:	462a      	mov	r2, r5
 8006e64:	490b      	ldr	r1, [pc, #44]	; (8006e94 <cmd_mem+0x64>)
 8006e66:	4620      	mov	r0, r4
 8006e68:	f7fb fa12 	bl	8002290 <chprintf>
  chprintf(chp, "heap free total  : %u bytes"SHELL_NEWLINE_STR, total);
 8006e6c:	9a00      	ldr	r2, [sp, #0]
 8006e6e:	490a      	ldr	r1, [pc, #40]	; (8006e98 <cmd_mem+0x68>)
 8006e70:	4620      	mov	r0, r4
 8006e72:	f7fb fa0d 	bl	8002290 <chprintf>
  chprintf(chp, "heap free largest: %u bytes"SHELL_NEWLINE_STR, largest);
 8006e76:	4620      	mov	r0, r4
 8006e78:	9a01      	ldr	r2, [sp, #4]
 8006e7a:	4908      	ldr	r1, [pc, #32]	; (8006e9c <cmd_mem+0x6c>)
 8006e7c:	f7fb fa08 	bl	8002290 <chprintf>
}
 8006e80:	b003      	add	sp, #12
 8006e82:	bd30      	pop	{r4, r5, pc}
 8006e84:	0800a1a8 	.word	0x0800a1a8
 8006e88:	0800a22c 	.word	0x0800a22c
 8006e8c:	20001460 	.word	0x20001460
 8006e90:	0800a1ac 	.word	0x0800a1ac
 8006e94:	0800a1cc 	.word	0x0800a1cc
 8006e98:	0800a1e4 	.word	0x0800a1e4
 8006e9c:	0800a204 	.word	0x0800a204

08006ea0 <chHeapFree>:
void chHeapFree(void *p) {
 8006ea0:	b570      	push	{r4, r5, r6, lr}
  heapp = H_HEAP(hp);
 8006ea2:	e950 4302 	ldrd	r4, r3, [r0, #-8]
  H_PAGES(hp) = MEM_ALIGN_NEXT(H_SIZE(hp),
 8006ea6:	3307      	adds	r3, #7
                               CH_HEAP_ALIGNMENT) / CH_HEAP_ALIGNMENT;
 8006ea8:	08db      	lsrs	r3, r3, #3
  H_LOCK(heapp);
 8006eaa:	f104 060c 	add.w	r6, r4, #12
  H_PAGES(hp) = MEM_ALIGN_NEXT(H_SIZE(hp),
 8006eae:	f840 3c04 	str.w	r3, [r0, #-4]
void chHeapFree(void *p) {
 8006eb2:	4605      	mov	r5, r0
  qp = &heapp->header;
 8006eb4:	3404      	adds	r4, #4
  H_LOCK(heapp);
 8006eb6:	4630      	mov	r0, r6
 8006eb8:	f7fd fa02 	bl	80042c0 <chMtxLock>
  qp = &heapp->header;
 8006ebc:	4623      	mov	r3, r4
  hp = (heap_header_t *)p - 1U;
 8006ebe:	f1a5 0108 	sub.w	r1, r5, #8
    if (((qp == &heapp->header) || (hp > qp)) &&
 8006ec2:	42a3      	cmp	r3, r4
 8006ec4:	681a      	ldr	r2, [r3, #0]
 8006ec6:	d001      	beq.n	8006ecc <chHeapFree+0x2c>
 8006ec8:	4299      	cmp	r1, r3
 8006eca:	d902      	bls.n	8006ed2 <chHeapFree+0x32>
 8006ecc:	b11a      	cbz	r2, 8006ed6 <chHeapFree+0x36>
        ((H_NEXT(qp) == NULL) || (hp < H_NEXT(qp)))) {
 8006ece:	4291      	cmp	r1, r2
 8006ed0:	d301      	bcc.n	8006ed6 <chHeapFree+0x36>
void chHeapFree(void *p) {
 8006ed2:	4613      	mov	r3, r2
 8006ed4:	e7f5      	b.n	8006ec2 <chHeapFree+0x22>
      if (H_LIMIT(hp) == H_NEXT(hp)) {
 8006ed6:	f855 0c04 	ldr.w	r0, [r5, #-4]
      H_NEXT(hp) = H_NEXT(qp);
 8006eda:	f845 2c08 	str.w	r2, [r5, #-8]
      H_NEXT(qp) = hp;
 8006ede:	6019      	str	r1, [r3, #0]
      if (H_LIMIT(hp) == H_NEXT(hp)) {
 8006ee0:	1c42      	adds	r2, r0, #1
 8006ee2:	f855 4c08 	ldr.w	r4, [r5, #-8]
 8006ee6:	eb01 00c2 	add.w	r0, r1, r2, lsl #3
 8006eea:	42a0      	cmp	r0, r4
 8006eec:	d00a      	beq.n	8006f04 <chHeapFree+0x64>
      if ((H_LIMIT(qp) == hp)) {
 8006eee:	6858      	ldr	r0, [r3, #4]
 8006ef0:	1c42      	adds	r2, r0, #1
 8006ef2:	eb03 02c2 	add.w	r2, r3, r2, lsl #3
 8006ef6:	4291      	cmp	r1, r2
 8006ef8:	d010      	beq.n	8006f1c <chHeapFree+0x7c>
  H_UNLOCK(heapp);
 8006efa:	4630      	mov	r0, r6
}
 8006efc:	e8bd 4070 	ldmia.w	sp!, {r4, r5, r6, lr}
  H_UNLOCK(heapp);
 8006f00:	f7ff b8e6 	b.w	80060d0 <chMtxUnlock>
        H_PAGES(hp) += H_PAGES(H_NEXT(hp)) + 1U;
 8006f04:	6840      	ldr	r0, [r0, #4]
        H_NEXT(hp) = H_NEXT(H_NEXT(hp));
 8006f06:	f851 4032 	ldr.w	r4, [r1, r2, lsl #3]
        H_PAGES(hp) += H_PAGES(H_NEXT(hp)) + 1U;
 8006f0a:	4402      	add	r2, r0
        H_NEXT(hp) = H_NEXT(H_NEXT(hp));
 8006f0c:	e945 4202 	strd	r4, r2, [r5, #-8]
      if ((H_LIMIT(qp) == hp)) {
 8006f10:	6858      	ldr	r0, [r3, #4]
 8006f12:	1c42      	adds	r2, r0, #1
 8006f14:	eb03 02c2 	add.w	r2, r3, r2, lsl #3
 8006f18:	4291      	cmp	r1, r2
 8006f1a:	d1ee      	bne.n	8006efa <chHeapFree+0x5a>
        H_NEXT(qp) = H_NEXT(hp);
 8006f1c:	e955 1202 	ldrd	r1, r2, [r5, #-8]
        H_PAGES(qp) += H_PAGES(hp) + 1U;
 8006f20:	3201      	adds	r2, #1
 8006f22:	4410      	add	r0, r2
        H_NEXT(qp) = H_NEXT(hp);
 8006f24:	e9c3 1000 	strd	r1, r0, [r3]
  H_UNLOCK(heapp);
 8006f28:	4630      	mov	r0, r6
}
 8006f2a:	e8bd 4070 	ldmia.w	sp!, {r4, r5, r6, lr}
  H_UNLOCK(heapp);
 8006f2e:	f7ff b8cf 	b.w	80060d0 <chMtxUnlock>
 8006f32:	bf00      	nop
	...

08006f40 <oslib_test_003_002_execute>:
  void *p1;
  size_t total_size, largest_size;

  /* [3.2.1] Single block allocation using chHeapAlloc() then the block
     is freed using chHeapFree(), must not fail.*/
  test_set_step(1);
 8006f40:	2301      	movs	r3, #1
static void oslib_test_003_002_execute(void) {
 8006f42:	b570      	push	{r4, r5, r6, lr}
  test_set_step(1);
 8006f44:	4c13      	ldr	r4, [pc, #76]	; (8006f94 <oslib_test_003_002_execute+0x54>)
static void oslib_test_003_002_execute(void) {
 8006f46:	b082      	sub	sp, #8
  {
    (void)chHeapStatus(NULL, &total_size, &largest_size);
 8006f48:	466a      	mov	r2, sp
 8006f4a:	a901      	add	r1, sp, #4
 8006f4c:	2000      	movs	r0, #0
  test_set_step(1);
 8006f4e:	6023      	str	r3, [r4, #0]
    (void)chHeapStatus(NULL, &total_size, &largest_size);
 8006f50:	f7ff ff36 	bl	8006dc0 <chHeapStatus>
 8006f54:	2110      	movs	r1, #16
 8006f56:	4810      	ldr	r0, [pc, #64]	; (8006f98 <oslib_test_003_002_execute+0x58>)
 8006f58:	f7ff f8f2 	bl	8006140 <chHeapAllocAligned.constprop.75>
    p1 = chHeapAlloc(&test_heap, ALLOC_SIZE);
    test_assert(p1 != NULL, "allocation failed");
 8006f5c:	4606      	mov	r6, r0
 8006f5e:	3000      	adds	r0, #0
 8006f60:	bf18      	it	ne
 8006f62:	2001      	movne	r0, #1
 8006f64:	490d      	ldr	r1, [pc, #52]	; (8006f9c <oslib_test_003_002_execute+0x5c>)
 8006f66:	f7f9 fcf3 	bl	8000950 <_test_assert>
 8006f6a:	b980      	cbnz	r0, 8006f8e <oslib_test_003_002_execute+0x4e>
 8006f6c:	4605      	mov	r5, r0
    chHeapFree(p1);
 8006f6e:	4630      	mov	r0, r6
 8006f70:	f7ff ff96 	bl	8006ea0 <chHeapFree>
  }

  /* [3.2.2] Testing allocation failure.*/
  test_set_step(2);
 8006f74:	2302      	movs	r3, #2
 8006f76:	f06f 01ff 	mvn.w	r1, #255	; 0xff
 8006f7a:	4628      	mov	r0, r5
 8006f7c:	6023      	str	r3, [r4, #0]
 8006f7e:	f7ff f8df 	bl	8006140 <chHeapAllocAligned.constprop.75>
  {
    p1 = chHeapAlloc(NULL, (size_t)-256);
    test_assert(p1 == NULL, "allocation not failed");
 8006f82:	fab0 f080 	clz	r0, r0
 8006f86:	4906      	ldr	r1, [pc, #24]	; (8006fa0 <oslib_test_003_002_execute+0x60>)
 8006f88:	0940      	lsrs	r0, r0, #5
 8006f8a:	f7f9 fce1 	bl	8000950 <_test_assert>
  }
}
 8006f8e:	b002      	add	sp, #8
 8006f90:	bd70      	pop	{r4, r5, r6, pc}
 8006f92:	bf00      	nop
 8006f94:	20001c5c 	.word	0x20001c5c
 8006f98:	20001bbc 	.word	0x20001bbc
 8006f9c:	0800a574 	.word	0x0800a574
 8006fa0:	0800a588 	.word	0x0800a588
	...

08006fb0 <oslib_test_003_001_execute>:
  test_set_step(1);
 8006fb0:	2301      	movs	r3, #1
static void oslib_test_003_001_execute(void) {
 8006fb2:	e92d 41f0 	stmdb	sp!, {r4, r5, r6, r7, r8, lr}
  test_set_step(1);
 8006fb6:	4cbf      	ldr	r4, [pc, #764]	; (80072b4 <oslib_test_003_001_execute+0x304>)
static void oslib_test_003_001_execute(void) {
 8006fb8:	b084      	sub	sp, #16
    test_assert(chHeapStatus(&test_heap, &sz, NULL) == 1, "heap fragmented");
 8006fba:	4669      	mov	r1, sp
 8006fbc:	2200      	movs	r2, #0
 8006fbe:	48be      	ldr	r0, [pc, #760]	; (80072b8 <oslib_test_003_001_execute+0x308>)
  test_set_step(1);
 8006fc0:	6023      	str	r3, [r4, #0]
    test_assert(chHeapStatus(&test_heap, &sz, NULL) == 1, "heap fragmented");
 8006fc2:	f7ff fefd 	bl	8006dc0 <chHeapStatus>
 8006fc6:	f1a0 0001 	sub.w	r0, r0, #1
 8006fca:	fab0 f080 	clz	r0, r0
 8006fce:	49bb      	ldr	r1, [pc, #748]	; (80072bc <oslib_test_003_001_execute+0x30c>)
 8006fd0:	0940      	lsrs	r0, r0, #5
 8006fd2:	f7f9 fcbd 	bl	8000950 <_test_assert>
 8006fd6:	b110      	cbz	r0, 8006fde <oslib_test_003_001_execute+0x2e>
}
 8006fd8:	b004      	add	sp, #16
 8006fda:	e8bd 81f0 	ldmia.w	sp!, {r4, r5, r6, r7, r8, pc}
  test_set_step(2);
 8006fde:	2302      	movs	r3, #2
 8006fe0:	f44f 7180 	mov.w	r1, #256	; 0x100
 8006fe4:	48b4      	ldr	r0, [pc, #720]	; (80072b8 <oslib_test_003_001_execute+0x308>)
 8006fe6:	6023      	str	r3, [r4, #0]
 8006fe8:	f7ff f8aa 	bl	8006140 <chHeapAllocAligned.constprop.75>
    test_assert(p1 == NULL, "allocation not failed");
 8006fec:	fab0 f080 	clz	r0, r0
 8006ff0:	49b3      	ldr	r1, [pc, #716]	; (80072c0 <oslib_test_003_001_execute+0x310>)
 8006ff2:	0940      	lsrs	r0, r0, #5
 8006ff4:	f7f9 fcac 	bl	8000950 <_test_assert>
 8006ff8:	2800      	cmp	r0, #0
 8006ffa:	d1ed      	bne.n	8006fd8 <oslib_test_003_001_execute+0x28>
  test_set_step(3);
 8006ffc:	2303      	movs	r3, #3
 8006ffe:	2110      	movs	r1, #16
 8007000:	48ad      	ldr	r0, [pc, #692]	; (80072b8 <oslib_test_003_001_execute+0x308>)
 8007002:	6023      	str	r3, [r4, #0]
 8007004:	f7ff f89c 	bl	8006140 <chHeapAllocAligned.constprop.75>
    test_assert(p1 != NULL, "allocation failed");
 8007008:	4605      	mov	r5, r0
 800700a:	3000      	adds	r0, #0
 800700c:	bf18      	it	ne
 800700e:	2001      	movne	r0, #1
 8007010:	49ac      	ldr	r1, [pc, #688]	; (80072c4 <oslib_test_003_001_execute+0x314>)
 8007012:	f7f9 fc9d 	bl	8000950 <_test_assert>
 8007016:	2800      	cmp	r0, #0
 8007018:	d1de      	bne.n	8006fd8 <oslib_test_003_001_execute+0x28>
    chHeapFree(p1);
 800701a:	4628      	mov	r0, r5
 800701c:	f7ff ff40 	bl	8006ea0 <chHeapFree>
  test_set_step(4);
 8007020:	2304      	movs	r3, #4
    n = chHeapStatus(&test_heap, &total_size, &largest_size);
 8007022:	a903      	add	r1, sp, #12
 8007024:	aa02      	add	r2, sp, #8
 8007026:	48a4      	ldr	r0, [pc, #656]	; (80072b8 <oslib_test_003_001_execute+0x308>)
  test_set_step(4);
 8007028:	6023      	str	r3, [r4, #0]
    n = chHeapStatus(&test_heap, &total_size, &largest_size);
 800702a:	f7ff fec9 	bl	8006dc0 <chHeapStatus>
 800702e:	4603      	mov	r3, r0
    test_assert(n == 1, "missing free block");
 8007030:	f1a0 0001 	sub.w	r0, r0, #1
 8007034:	fab0 f080 	clz	r0, r0
 8007038:	49a3      	ldr	r1, [pc, #652]	; (80072c8 <oslib_test_003_001_execute+0x318>)
 800703a:	0940      	lsrs	r0, r0, #5
    n = chHeapStatus(&test_heap, &total_size, &largest_size);
 800703c:	9301      	str	r3, [sp, #4]
    test_assert(n == 1, "missing free block");
 800703e:	f7f9 fc87 	bl	8000950 <_test_assert>
 8007042:	2800      	cmp	r0, #0
 8007044:	d1c8      	bne.n	8006fd8 <oslib_test_003_001_execute+0x28>
    test_assert(total_size >= ALLOC_SIZE, "unexpected heap state");
 8007046:	9803      	ldr	r0, [sp, #12]
 8007048:	49a0      	ldr	r1, [pc, #640]	; (80072cc <oslib_test_003_001_execute+0x31c>)
 800704a:	280f      	cmp	r0, #15
 800704c:	bf94      	ite	ls
 800704e:	2000      	movls	r0, #0
 8007050:	2001      	movhi	r0, #1
 8007052:	f7f9 fc7d 	bl	8000950 <_test_assert>
 8007056:	2800      	cmp	r0, #0
 8007058:	d1be      	bne.n	8006fd8 <oslib_test_003_001_execute+0x28>
    test_assert(total_size == largest_size, "unexpected heap state");
 800705a:	e9dd 3002 	ldrd	r3, r0, [sp, #8]
 800705e:	1ac0      	subs	r0, r0, r3
 8007060:	fab0 f080 	clz	r0, r0
 8007064:	4999      	ldr	r1, [pc, #612]	; (80072cc <oslib_test_003_001_execute+0x31c>)
 8007066:	0940      	lsrs	r0, r0, #5
 8007068:	f7f9 fc72 	bl	8000950 <_test_assert>
 800706c:	4605      	mov	r5, r0
 800706e:	2800      	cmp	r0, #0
 8007070:	d1b2      	bne.n	8006fd8 <oslib_test_003_001_execute+0x28>
  test_set_step(5);
 8007072:	2305      	movs	r3, #5
 8007074:	2110      	movs	r1, #16
 8007076:	4890      	ldr	r0, [pc, #576]	; (80072b8 <oslib_test_003_001_execute+0x308>)
 8007078:	6023      	str	r3, [r4, #0]
 800707a:	f7ff f861 	bl	8006140 <chHeapAllocAligned.constprop.75>
 800707e:	2110      	movs	r1, #16
 8007080:	4680      	mov	r8, r0
 8007082:	488d      	ldr	r0, [pc, #564]	; (80072b8 <oslib_test_003_001_execute+0x308>)
 8007084:	f7ff f85c 	bl	8006140 <chHeapAllocAligned.constprop.75>
 8007088:	2110      	movs	r1, #16
 800708a:	4607      	mov	r7, r0
 800708c:	488a      	ldr	r0, [pc, #552]	; (80072b8 <oslib_test_003_001_execute+0x308>)
 800708e:	f7ff f857 	bl	8006140 <chHeapAllocAligned.constprop.75>
 8007092:	4606      	mov	r6, r0
    chHeapFree(p1);                                 /* Does not merge.*/
 8007094:	4640      	mov	r0, r8
 8007096:	f7ff ff03 	bl	8006ea0 <chHeapFree>
    chHeapFree(p2);                                 /* Merges backward.*/
 800709a:	4638      	mov	r0, r7
 800709c:	f7ff ff00 	bl	8006ea0 <chHeapFree>
    chHeapFree(p3);                                 /* Merges both sides.*/
 80070a0:	4630      	mov	r0, r6
 80070a2:	f7ff fefd 	bl	8006ea0 <chHeapFree>
    test_assert(chHeapStatus(&test_heap, &n, NULL) == 1, "heap fragmented");
 80070a6:	462a      	mov	r2, r5
 80070a8:	a901      	add	r1, sp, #4
 80070aa:	4883      	ldr	r0, [pc, #524]	; (80072b8 <oslib_test_003_001_execute+0x308>)
 80070ac:	f7ff fe88 	bl	8006dc0 <chHeapStatus>
 80070b0:	f1a0 0001 	sub.w	r0, r0, #1
 80070b4:	fab0 f080 	clz	r0, r0
 80070b8:	4980      	ldr	r1, [pc, #512]	; (80072bc <oslib_test_003_001_execute+0x30c>)
 80070ba:	0940      	lsrs	r0, r0, #5
 80070bc:	f7f9 fc48 	bl	8000950 <_test_assert>
 80070c0:	4605      	mov	r5, r0
 80070c2:	2800      	cmp	r0, #0
 80070c4:	d188      	bne.n	8006fd8 <oslib_test_003_001_execute+0x28>
  test_set_step(6);
 80070c6:	2306      	movs	r3, #6
 80070c8:	2110      	movs	r1, #16
 80070ca:	487b      	ldr	r0, [pc, #492]	; (80072b8 <oslib_test_003_001_execute+0x308>)
 80070cc:	6023      	str	r3, [r4, #0]
 80070ce:	f7ff f837 	bl	8006140 <chHeapAllocAligned.constprop.75>
 80070d2:	2110      	movs	r1, #16
 80070d4:	4606      	mov	r6, r0
 80070d6:	4878      	ldr	r0, [pc, #480]	; (80072b8 <oslib_test_003_001_execute+0x308>)
 80070d8:	f7ff f832 	bl	8006140 <chHeapAllocAligned.constprop.75>
 80070dc:	4607      	mov	r7, r0
 80070de:	2110      	movs	r1, #16
 80070e0:	4875      	ldr	r0, [pc, #468]	; (80072b8 <oslib_test_003_001_execute+0x308>)
 80070e2:	f7ff f82d 	bl	8006140 <chHeapAllocAligned.constprop.75>
    chHeapFree(p3);                                 /* Merges forward.*/
 80070e6:	f7ff fedb 	bl	8006ea0 <chHeapFree>
    chHeapFree(p2);                                 /* Merges forward.*/
 80070ea:	4638      	mov	r0, r7
 80070ec:	f7ff fed8 	bl	8006ea0 <chHeapFree>
    chHeapFree(p1);                                 /* Merges forward.*/
 80070f0:	4630      	mov	r0, r6
 80070f2:	f7ff fed5 	bl	8006ea0 <chHeapFree>
    test_assert(chHeapStatus(&test_heap, &n, NULL) == 1, "heap fragmented");
 80070f6:	462a      	mov	r2, r5
 80070f8:	a901      	add	r1, sp, #4
 80070fa:	486f      	ldr	r0, [pc, #444]	; (80072b8 <oslib_test_003_001_execute+0x308>)
 80070fc:	f7ff fe60 	bl	8006dc0 <chHeapStatus>
 8007100:	1e43      	subs	r3, r0, #1
 8007102:	4258      	negs	r0, r3
 8007104:	496d      	ldr	r1, [pc, #436]	; (80072bc <oslib_test_003_001_execute+0x30c>)
 8007106:	4158      	adcs	r0, r3
 8007108:	f7f9 fc22 	bl	8000950 <_test_assert>
 800710c:	4605      	mov	r5, r0
 800710e:	2800      	cmp	r0, #0
 8007110:	f47f af62 	bne.w	8006fd8 <oslib_test_003_001_execute+0x28>
  test_set_step(7);
 8007114:	2307      	movs	r3, #7
 8007116:	2111      	movs	r1, #17
 8007118:	4867      	ldr	r0, [pc, #412]	; (80072b8 <oslib_test_003_001_execute+0x308>)
 800711a:	6023      	str	r3, [r4, #0]
 800711c:	f7ff f810 	bl	8006140 <chHeapAllocAligned.constprop.75>
 8007120:	2110      	movs	r1, #16
 8007122:	4606      	mov	r6, r0
 8007124:	4864      	ldr	r0, [pc, #400]	; (80072b8 <oslib_test_003_001_execute+0x308>)
 8007126:	f7ff f80b 	bl	8006140 <chHeapAllocAligned.constprop.75>
 800712a:	4607      	mov	r7, r0
    chHeapFree(p1);
 800712c:	4630      	mov	r0, r6
 800712e:	f7ff feb7 	bl	8006ea0 <chHeapFree>
    test_assert(chHeapStatus(&test_heap, &n, NULL) == 2, "invalid state");
 8007132:	462a      	mov	r2, r5
 8007134:	a901      	add	r1, sp, #4
 8007136:	4860      	ldr	r0, [pc, #384]	; (80072b8 <oslib_test_003_001_execute+0x308>)
 8007138:	f7ff fe42 	bl	8006dc0 <chHeapStatus>
 800713c:	f1a0 0802 	sub.w	r8, r0, #2
 8007140:	f1d8 0000 	rsbs	r0, r8, #0
 8007144:	4962      	ldr	r1, [pc, #392]	; (80072d0 <oslib_test_003_001_execute+0x320>)
 8007146:	eb40 0008 	adc.w	r0, r0, r8
 800714a:	f7f9 fc01 	bl	8000950 <_test_assert>
 800714e:	4605      	mov	r5, r0
 8007150:	2800      	cmp	r0, #0
 8007152:	f47f af41 	bne.w	8006fd8 <oslib_test_003_001_execute+0x28>
 8007156:	2110      	movs	r1, #16
 8007158:	4857      	ldr	r0, [pc, #348]	; (80072b8 <oslib_test_003_001_execute+0x308>)
 800715a:	f7fe fff1 	bl	8006140 <chHeapAllocAligned.constprop.75>
    test_assert((chHeapStatus(&test_heap, &n, NULL) == 1) ||
 800715e:	462a      	mov	r2, r5
 8007160:	4606      	mov	r6, r0
 8007162:	a901      	add	r1, sp, #4
 8007164:	4854      	ldr	r0, [pc, #336]	; (80072b8 <oslib_test_003_001_execute+0x308>)
 8007166:	f7ff fe2b 	bl	8006dc0 <chHeapStatus>
 800716a:	2801      	cmp	r0, #1
 800716c:	f000 809f 	beq.w	80072ae <oslib_test_003_001_execute+0x2fe>
 8007170:	2200      	movs	r2, #0
 8007172:	a901      	add	r1, sp, #4
 8007174:	4850      	ldr	r0, [pc, #320]	; (80072b8 <oslib_test_003_001_execute+0x308>)
 8007176:	f7ff fe23 	bl	8006dc0 <chHeapStatus>
 800717a:	f1a0 0e02 	sub.w	lr, r0, #2
 800717e:	f1de 0000 	rsbs	r0, lr, #0
 8007182:	eb40 000e 	adc.w	r0, r0, lr
 8007186:	494d      	ldr	r1, [pc, #308]	; (80072bc <oslib_test_003_001_execute+0x30c>)
 8007188:	f7f9 fbe2 	bl	8000950 <_test_assert>
 800718c:	4605      	mov	r5, r0
 800718e:	2800      	cmp	r0, #0
 8007190:	f47f af22 	bne.w	8006fd8 <oslib_test_003_001_execute+0x28>
    chHeapFree(p2);
 8007194:	4638      	mov	r0, r7
 8007196:	f7ff fe83 	bl	8006ea0 <chHeapFree>
    chHeapFree(p1);
 800719a:	4630      	mov	r0, r6
 800719c:	f7ff fe80 	bl	8006ea0 <chHeapFree>
    test_assert(chHeapStatus(&test_heap, &n, NULL) == 1, "heap fragmented");
 80071a0:	462a      	mov	r2, r5
 80071a2:	a901      	add	r1, sp, #4
 80071a4:	4844      	ldr	r0, [pc, #272]	; (80072b8 <oslib_test_003_001_execute+0x308>)
 80071a6:	f7ff fe0b 	bl	8006dc0 <chHeapStatus>
 80071aa:	f100 3cff 	add.w	ip, r0, #4294967295	; 0xffffffff
 80071ae:	f1dc 0000 	rsbs	r0, ip, #0
 80071b2:	4942      	ldr	r1, [pc, #264]	; (80072bc <oslib_test_003_001_execute+0x30c>)
 80071b4:	eb40 000c 	adc.w	r0, r0, ip
 80071b8:	f7f9 fbca 	bl	8000950 <_test_assert>
 80071bc:	4605      	mov	r5, r0
 80071be:	2800      	cmp	r0, #0
 80071c0:	f47f af0a 	bne.w	8006fd8 <oslib_test_003_001_execute+0x28>
  test_set_step(8);
 80071c4:	2308      	movs	r3, #8
 80071c6:	2110      	movs	r1, #16
 80071c8:	483b      	ldr	r0, [pc, #236]	; (80072b8 <oslib_test_003_001_execute+0x308>)
 80071ca:	6023      	str	r3, [r4, #0]
 80071cc:	f7fe ffb8 	bl	8006140 <chHeapAllocAligned.constprop.75>
 80071d0:	2110      	movs	r1, #16
 80071d2:	4607      	mov	r7, r0
 80071d4:	4838      	ldr	r0, [pc, #224]	; (80072b8 <oslib_test_003_001_execute+0x308>)
 80071d6:	f7fe ffb3 	bl	8006140 <chHeapAllocAligned.constprop.75>
 80071da:	4606      	mov	r6, r0
    chHeapFree(p1);
 80071dc:	4638      	mov	r0, r7
 80071de:	f7ff fe5f 	bl	8006ea0 <chHeapFree>
    test_assert( chHeapStatus(&test_heap, &n, NULL) == 2, "invalid state");
 80071e2:	462a      	mov	r2, r5
 80071e4:	a901      	add	r1, sp, #4
 80071e6:	4834      	ldr	r0, [pc, #208]	; (80072b8 <oslib_test_003_001_execute+0x308>)
 80071e8:	f7ff fdea 	bl	8006dc0 <chHeapStatus>
 80071ec:	1e87      	subs	r7, r0, #2
 80071ee:	4278      	negs	r0, r7
 80071f0:	4937      	ldr	r1, [pc, #220]	; (80072d0 <oslib_test_003_001_execute+0x320>)
 80071f2:	4178      	adcs	r0, r7
 80071f4:	f7f9 fbac 	bl	8000950 <_test_assert>
 80071f8:	4605      	mov	r5, r0
 80071fa:	2800      	cmp	r0, #0
 80071fc:	f47f aeec 	bne.w	8006fd8 <oslib_test_003_001_execute+0x28>
 8007200:	2120      	movs	r1, #32
 8007202:	482d      	ldr	r0, [pc, #180]	; (80072b8 <oslib_test_003_001_execute+0x308>)
 8007204:	f7fe ff9c 	bl	8006140 <chHeapAllocAligned.constprop.75>
    chHeapFree(p1);
 8007208:	f7ff fe4a 	bl	8006ea0 <chHeapFree>
    chHeapFree(p2);
 800720c:	4630      	mov	r0, r6
 800720e:	f7ff fe47 	bl	8006ea0 <chHeapFree>
    test_assert(chHeapStatus(&test_heap, &n, NULL) == 1, "heap fragmented");
 8007212:	462a      	mov	r2, r5
 8007214:	a901      	add	r1, sp, #4
 8007216:	4828      	ldr	r0, [pc, #160]	; (80072b8 <oslib_test_003_001_execute+0x308>)
 8007218:	f7ff fdd2 	bl	8006dc0 <chHeapStatus>
 800721c:	1e45      	subs	r5, r0, #1
 800721e:	4268      	negs	r0, r5
 8007220:	4926      	ldr	r1, [pc, #152]	; (80072bc <oslib_test_003_001_execute+0x30c>)
 8007222:	4168      	adcs	r0, r5
 8007224:	f7f9 fb94 	bl	8000950 <_test_assert>
 8007228:	4602      	mov	r2, r0
 800722a:	2800      	cmp	r0, #0
 800722c:	f47f aed4 	bne.w	8006fd8 <oslib_test_003_001_execute+0x28>
  test_set_step(9);
 8007230:	2309      	movs	r3, #9
    (void)chHeapStatus(&test_heap, &n, NULL);
 8007232:	a901      	add	r1, sp, #4
 8007234:	4820      	ldr	r0, [pc, #128]	; (80072b8 <oslib_test_003_001_execute+0x308>)
  test_set_step(9);
 8007236:	6023      	str	r3, [r4, #0]
    (void)chHeapStatus(&test_heap, &n, NULL);
 8007238:	f7ff fdc2 	bl	8006dc0 <chHeapStatus>
 800723c:	9901      	ldr	r1, [sp, #4]
 800723e:	481e      	ldr	r0, [pc, #120]	; (80072b8 <oslib_test_003_001_execute+0x308>)
 8007240:	f7fe ff7e 	bl	8006140 <chHeapAllocAligned.constprop.75>
    test_assert(p1 != NULL, "allocation failed");
 8007244:	4606      	mov	r6, r0
 8007246:	3000      	adds	r0, #0
 8007248:	491e      	ldr	r1, [pc, #120]	; (80072c4 <oslib_test_003_001_execute+0x314>)
 800724a:	bf18      	it	ne
 800724c:	2001      	movne	r0, #1
 800724e:	f7f9 fb7f 	bl	8000950 <_test_assert>
 8007252:	4602      	mov	r2, r0
 8007254:	2800      	cmp	r0, #0
 8007256:	f47f aebf 	bne.w	8006fd8 <oslib_test_003_001_execute+0x28>
    test_assert(chHeapStatus(&test_heap, NULL, NULL) == 0, "not empty");
 800725a:	4601      	mov	r1, r0
 800725c:	4816      	ldr	r0, [pc, #88]	; (80072b8 <oslib_test_003_001_execute+0x308>)
 800725e:	f7ff fdaf 	bl	8006dc0 <chHeapStatus>
 8007262:	fab0 f080 	clz	r0, r0
 8007266:	491b      	ldr	r1, [pc, #108]	; (80072d4 <oslib_test_003_001_execute+0x324>)
 8007268:	0940      	lsrs	r0, r0, #5
 800726a:	f7f9 fb71 	bl	8000950 <_test_assert>
 800726e:	4605      	mov	r5, r0
 8007270:	2800      	cmp	r0, #0
 8007272:	f47f aeb1 	bne.w	8006fd8 <oslib_test_003_001_execute+0x28>
    chHeapFree(p1);
 8007276:	4630      	mov	r0, r6
 8007278:	f7ff fe12 	bl	8006ea0 <chHeapFree>
  test_set_step(10);
 800727c:	230a      	movs	r3, #10
    test_assert(chHeapStatus(&test_heap, &n, NULL) == 1, "heap fragmented");
 800727e:	462a      	mov	r2, r5
 8007280:	a901      	add	r1, sp, #4
 8007282:	480d      	ldr	r0, [pc, #52]	; (80072b8 <oslib_test_003_001_execute+0x308>)
  test_set_step(10);
 8007284:	6023      	str	r3, [r4, #0]
    test_assert(chHeapStatus(&test_heap, &n, NULL) == 1, "heap fragmented");
 8007286:	f7ff fd9b 	bl	8006dc0 <chHeapStatus>
 800728a:	1e42      	subs	r2, r0, #1
 800728c:	4250      	negs	r0, r2
 800728e:	4150      	adcs	r0, r2
 8007290:	490a      	ldr	r1, [pc, #40]	; (80072bc <oslib_test_003_001_execute+0x30c>)
 8007292:	f7f9 fb5d 	bl	8000950 <_test_assert>
 8007296:	2800      	cmp	r0, #0
 8007298:	f47f ae9e 	bne.w	8006fd8 <oslib_test_003_001_execute+0x28>
    test_assert(n == sz, "size changed");
 800729c:	e9dd 3000 	ldrd	r3, r0, [sp]
 80072a0:	1ac3      	subs	r3, r0, r3
 80072a2:	4258      	negs	r0, r3
 80072a4:	490c      	ldr	r1, [pc, #48]	; (80072d8 <oslib_test_003_001_execute+0x328>)
 80072a6:	4158      	adcs	r0, r3
 80072a8:	f7f9 fb52 	bl	8000950 <_test_assert>
 80072ac:	e694      	b.n	8006fd8 <oslib_test_003_001_execute+0x28>
    test_assert((chHeapStatus(&test_heap, &n, NULL) == 1) ||
 80072ae:	2001      	movs	r0, #1
 80072b0:	e769      	b.n	8007186 <oslib_test_003_001_execute+0x1d6>
 80072b2:	bf00      	nop
 80072b4:	20001c5c 	.word	0x20001c5c
 80072b8:	20001bbc 	.word	0x20001bbc
 80072bc:	0800a508 	.word	0x0800a508
 80072c0:	0800a588 	.word	0x0800a588
 80072c4:	0800a574 	.word	0x0800a574
 80072c8:	0800a518 	.word	0x0800a518
 80072cc:	0800a52c 	.word	0x0800a52c
 80072d0:	0800a544 	.word	0x0800a544
 80072d4:	0800a3bc 	.word	0x0800a3bc
 80072d8:	0800a554 	.word	0x0800a554
 80072dc:	00000000 	.word	0x00000000

080072e0 <dyn_release_object_heap.part.3>:
  dyn_element_t *prev = (dyn_element_t *)dlp;
 80072e0:	460a      	mov	r2, r1
 80072e2:	e002      	b.n	80072ea <dyn_release_object_heap.part.3+0xa>
    if (prev->next == element) {
 80072e4:	4298      	cmp	r0, r3
 80072e6:	d006      	beq.n	80072f6 <dyn_release_object_heap.part.3+0x16>
 80072e8:	461a      	mov	r2, r3
  while (prev->next != (dyn_element_t *)dlp) {
 80072ea:	6813      	ldr	r3, [r2, #0]
 80072ec:	428b      	cmp	r3, r1
 80072ee:	d1f9      	bne.n	80072e4 <dyn_release_object_heap.part.3+0x4>
  return NULL;
 80072f0:	2000      	movs	r0, #0
    chHeapFree((void *)dep);
 80072f2:	f7ff bdd5 	b.w	8006ea0 <chHeapFree>
      prev->next = element->next;
 80072f6:	6803      	ldr	r3, [r0, #0]
 80072f8:	6013      	str	r3, [r2, #0]
    chHeapFree((void *)dep);
 80072fa:	f7ff bdd1 	b.w	8006ea0 <chHeapFree>
 80072fe:	bf00      	nop

08007300 <chFactoryReleaseObjectsFIFO>:
 *
 * @param[in] dofp      dynamic "objects FIFO" object reference
 *
 * @api
 */
void chFactoryReleaseObjectsFIFO(dyn_objects_fifo_t *dofp) {
 8007300:	b510      	push	{r4, lr}
 8007302:	4604      	mov	r4, r0

  F_LOCK();
 8007304:	4807      	ldr	r0, [pc, #28]	; (8007324 <chFactoryReleaseObjectsFIFO+0x24>)
 8007306:	f7fc ffdb 	bl	80042c0 <chMtxLock>
  dep->refs--;
 800730a:	6863      	ldr	r3, [r4, #4]
 800730c:	3b01      	subs	r3, #1
 800730e:	6063      	str	r3, [r4, #4]
  if (dep->refs == (ucnt_t)0) {
 8007310:	b91b      	cbnz	r3, 800731a <chFactoryReleaseObjectsFIFO+0x1a>
 8007312:	4620      	mov	r0, r4
 8007314:	4904      	ldr	r1, [pc, #16]	; (8007328 <chFactoryReleaseObjectsFIFO+0x28>)
 8007316:	f7ff ffe3 	bl	80072e0 <dyn_release_object_heap.part.3>

  dyn_release_object_heap(&dofp->element, &ch_factory.fifo_list);

  F_UNLOCK();
}
 800731a:	e8bd 4010 	ldmia.w	sp!, {r4, lr}
  F_UNLOCK();
 800731e:	4801      	ldr	r0, [pc, #4]	; (8007324 <chFactoryReleaseObjectsFIFO+0x24>)
 8007320:	f7fe bed6 	b.w	80060d0 <chMtxUnlock>
 8007324:	20001344 	.word	0x20001344
 8007328:	20001384 	.word	0x20001384
 800732c:	00000000 	.word	0x00000000

08007330 <oslib_test_004_005_execute>:
      chFactoryReleaseObjectsFIFO(dofp);
    }
  }
}

static void oslib_test_004_005_execute(void) {
 8007330:	b5f8      	push	{r3, r4, r5, r6, r7, lr}
  dyn_objects_fifo_t *dofp;

  /* [4.5.1] Retrieving a dynamic objects FIFO by name, must not
     exist.*/
  test_set_step(1);
 8007332:	2501      	movs	r5, #1
 8007334:	4c41      	ldr	r4, [pc, #260]	; (800743c <oslib_test_004_005_execute+0x10c>)
 8007336:	6025      	str	r5, [r4, #0]
  {
    dofp = chFactoryFindObjectsFIFO("myfifo");
 8007338:	f7ff f902 	bl	8006540 <chFactoryFindObjectsFIFO.constprop.46>
    test_assert(dofp == NULL, "found");
 800733c:	fab0 f080 	clz	r0, r0
 8007340:	493f      	ldr	r1, [pc, #252]	; (8007440 <oslib_test_004_005_execute+0x110>)
 8007342:	0940      	lsrs	r0, r0, #5
 8007344:	f7f9 fb04 	bl	8000950 <_test_assert>
 8007348:	b100      	cbz	r0, 800734c <oslib_test_004_005_execute+0x1c>
  test_set_step(6);
  {
    dofp = chFactoryFindObjectsFIFO("myfifo");
    test_assert(dofp == NULL, "found");
  }
}
 800734a:	bdf8      	pop	{r3, r4, r5, r6, r7, pc}
  test_set_step(2);
 800734c:	2302      	movs	r3, #2
 800734e:	6023      	str	r3, [r4, #0]
    dofp = chFactoryCreateObjectsFIFO("myfifo", 16U, 16U, PORT_NATURAL_ALIGN);
 8007350:	f7ff f8a6 	bl	80064a0 <chFactoryCreateObjectsFIFO.constprop.47>
    test_assert(dofp != NULL, "cannot create");
 8007354:	4606      	mov	r6, r0
 8007356:	3000      	adds	r0, #0
 8007358:	bf18      	it	ne
 800735a:	2001      	movne	r0, #1
 800735c:	4939      	ldr	r1, [pc, #228]	; (8007444 <oslib_test_004_005_execute+0x114>)
 800735e:	f7f9 faf7 	bl	8000950 <_test_assert>
 8007362:	2800      	cmp	r0, #0
 8007364:	d1f1      	bne.n	800734a <oslib_test_004_005_execute+0x1a>
  test_set_step(3);
 8007366:	2303      	movs	r3, #3
 8007368:	6023      	str	r3, [r4, #0]
    dofp1 = chFactoryCreateObjectsFIFO("myfifo", 16U, 16U, PORT_NATURAL_ALIGN);
 800736a:	f7ff f899 	bl	80064a0 <chFactoryCreateObjectsFIFO.constprop.47>
    test_assert(dofp1 == NULL, "can create");
 800736e:	fab0 f080 	clz	r0, r0
 8007372:	4935      	ldr	r1, [pc, #212]	; (8007448 <oslib_test_004_005_execute+0x118>)
 8007374:	0940      	lsrs	r0, r0, #5
 8007376:	f7f9 faeb 	bl	8000950 <_test_assert>
 800737a:	2800      	cmp	r0, #0
 800737c:	d1e5      	bne.n	800734a <oslib_test_004_005_execute+0x1a>
  test_set_step(4);
 800737e:	2304      	movs	r3, #4
 8007380:	6023      	str	r3, [r4, #0]
    dofp1 = chFactoryFindObjectsFIFO("myfifo");
 8007382:	f7ff f8dd 	bl	8006540 <chFactoryFindObjectsFIFO.constprop.46>
    test_assert(dofp1 != NULL, "not found");
 8007386:	4607      	mov	r7, r0
 8007388:	3000      	adds	r0, #0
 800738a:	bf18      	it	ne
 800738c:	2001      	movne	r0, #1
 800738e:	492f      	ldr	r1, [pc, #188]	; (800744c <oslib_test_004_005_execute+0x11c>)
 8007390:	f7f9 fade 	bl	8000950 <_test_assert>
 8007394:	2800      	cmp	r0, #0
 8007396:	d1d8      	bne.n	800734a <oslib_test_004_005_execute+0x1a>
    test_assert(dofp == dofp1, "object reference mismatch");
 8007398:	1bf0      	subs	r0, r6, r7
 800739a:	fab0 f080 	clz	r0, r0
 800739e:	492c      	ldr	r1, [pc, #176]	; (8007450 <oslib_test_004_005_execute+0x120>)
 80073a0:	0940      	lsrs	r0, r0, #5
 80073a2:	f7f9 fad5 	bl	8000950 <_test_assert>
 80073a6:	2800      	cmp	r0, #0
 80073a8:	d1cf      	bne.n	800734a <oslib_test_004_005_execute+0x1a>
    test_assert(dofp1->element.refs == 2, "object reference mismatch");
 80073aa:	6878      	ldr	r0, [r7, #4]
 80073ac:	4928      	ldr	r1, [pc, #160]	; (8007450 <oslib_test_004_005_execute+0x120>)
 80073ae:	f1a0 0002 	sub.w	r0, r0, #2
 80073b2:	fab0 f080 	clz	r0, r0
 80073b6:	0940      	lsrs	r0, r0, #5
 80073b8:	f7f9 faca 	bl	8000950 <_test_assert>
 80073bc:	2800      	cmp	r0, #0
 80073be:	d1c4      	bne.n	800734a <oslib_test_004_005_execute+0x1a>
 80073c0:	687b      	ldr	r3, [r7, #4]
    test_assert(dofp1 == dofp2, "object reference mismatch");
 80073c2:	4628      	mov	r0, r5
 80073c4:	442b      	add	r3, r5
 80073c6:	607b      	str	r3, [r7, #4]
 80073c8:	4921      	ldr	r1, [pc, #132]	; (8007450 <oslib_test_004_005_execute+0x120>)
 80073ca:	f7f9 fac1 	bl	8000950 <_test_assert>
 80073ce:	2800      	cmp	r0, #0
 80073d0:	d1bb      	bne.n	800734a <oslib_test_004_005_execute+0x1a>
    test_assert(dofp2->element.refs == 3, "object reference mismatch");
 80073d2:	6878      	ldr	r0, [r7, #4]
 80073d4:	491e      	ldr	r1, [pc, #120]	; (8007450 <oslib_test_004_005_execute+0x120>)
 80073d6:	f1a0 0c03 	sub.w	ip, r0, #3
 80073da:	f1dc 0000 	rsbs	r0, ip, #0
 80073de:	eb40 000c 	adc.w	r0, r0, ip
 80073e2:	f7f9 fab5 	bl	8000950 <_test_assert>
 80073e6:	2800      	cmp	r0, #0
 80073e8:	d1af      	bne.n	800734a <oslib_test_004_005_execute+0x1a>
    chFactoryReleaseObjectsFIFO(dofp2);
 80073ea:	4638      	mov	r0, r7
 80073ec:	f7ff ff88 	bl	8007300 <chFactoryReleaseObjectsFIFO>
    test_assert(dofp1->element.refs == 2, "references mismatch");
 80073f0:	6878      	ldr	r0, [r7, #4]
 80073f2:	4918      	ldr	r1, [pc, #96]	; (8007454 <oslib_test_004_005_execute+0x124>)
 80073f4:	1e82      	subs	r2, r0, #2
 80073f6:	4250      	negs	r0, r2
 80073f8:	4150      	adcs	r0, r2
 80073fa:	f7f9 faa9 	bl	8000950 <_test_assert>
 80073fe:	2800      	cmp	r0, #0
 8007400:	d1a3      	bne.n	800734a <oslib_test_004_005_execute+0x1a>
    chFactoryReleaseObjectsFIFO(dofp1);
 8007402:	4638      	mov	r0, r7
 8007404:	f7ff ff7c 	bl	8007300 <chFactoryReleaseObjectsFIFO>
    test_assert(dofp->element.refs == 1, "references mismatch");
 8007408:	6870      	ldr	r0, [r6, #4]
 800740a:	4912      	ldr	r1, [pc, #72]	; (8007454 <oslib_test_004_005_execute+0x124>)
 800740c:	1b43      	subs	r3, r0, r5
 800740e:	4258      	negs	r0, r3
 8007410:	4158      	adcs	r0, r3
 8007412:	f7f9 fa9d 	bl	8000950 <_test_assert>
 8007416:	2800      	cmp	r0, #0
 8007418:	d197      	bne.n	800734a <oslib_test_004_005_execute+0x1a>
  test_set_step(5);
 800741a:	2305      	movs	r3, #5
    chFactoryReleaseObjectsFIFO(dofp);
 800741c:	4630      	mov	r0, r6
  test_set_step(5);
 800741e:	6023      	str	r3, [r4, #0]
    chFactoryReleaseObjectsFIFO(dofp);
 8007420:	f7ff ff6e 	bl	8007300 <chFactoryReleaseObjectsFIFO>
  test_set_step(6);
 8007424:	2306      	movs	r3, #6
 8007426:	6023      	str	r3, [r4, #0]
    dofp = chFactoryFindObjectsFIFO("myfifo");
 8007428:	f7ff f88a 	bl	8006540 <chFactoryFindObjectsFIFO.constprop.46>
}
 800742c:	e8bd 40f8 	ldmia.w	sp!, {r3, r4, r5, r6, r7, lr}
    test_assert(dofp == NULL, "found");
 8007430:	fab0 f080 	clz	r0, r0
 8007434:	4902      	ldr	r1, [pc, #8]	; (8007440 <oslib_test_004_005_execute+0x110>)
 8007436:	0940      	lsrs	r0, r0, #5
 8007438:	f7f9 ba8a 	b.w	8000950 <_test_assert>
 800743c:	20001c5c 	.word	0x20001c5c
 8007440:	0800a620 	.word	0x0800a620
 8007444:	0800a600 	.word	0x0800a600
 8007448:	0800a610 	.word	0x0800a610
 800744c:	0800a61c 	.word	0x0800a61c
 8007450:	0800a628 	.word	0x0800a628
 8007454:	0800a644 	.word	0x0800a644
	...

08007460 <oslib_test_004_005_teardown>:
static void oslib_test_004_005_teardown(void) {
 8007460:	b510      	push	{r4, lr}
  dofp = chFactoryFindObjectsFIFO("myfifo");
 8007462:	f7ff f86d 	bl	8006540 <chFactoryFindObjectsFIFO.constprop.46>
  if (dofp != NULL) {
 8007466:	b140      	cbz	r0, 800747a <oslib_test_004_005_teardown+0x1a>
    while (dofp->element.refs > 0U) {
 8007468:	6843      	ldr	r3, [r0, #4]
 800746a:	4604      	mov	r4, r0
 800746c:	b12b      	cbz	r3, 800747a <oslib_test_004_005_teardown+0x1a>
      chFactoryReleaseObjectsFIFO(dofp);
 800746e:	4620      	mov	r0, r4
 8007470:	f7ff ff46 	bl	8007300 <chFactoryReleaseObjectsFIFO>
    while (dofp->element.refs > 0U) {
 8007474:	6863      	ldr	r3, [r4, #4]
 8007476:	2b00      	cmp	r3, #0
 8007478:	d1f9      	bne.n	800746e <oslib_test_004_005_teardown+0xe>
}
 800747a:	bd10      	pop	{r4, pc}
 800747c:	0000      	movs	r0, r0
	...

08007480 <chFactoryReleaseMailbox>:
void chFactoryReleaseMailbox(dyn_mailbox_t *dmp) {
 8007480:	b510      	push	{r4, lr}
 8007482:	4604      	mov	r4, r0
  F_LOCK();
 8007484:	4807      	ldr	r0, [pc, #28]	; (80074a4 <chFactoryReleaseMailbox+0x24>)
 8007486:	f7fc ff1b 	bl	80042c0 <chMtxLock>
  dep->refs--;
 800748a:	6863      	ldr	r3, [r4, #4]
 800748c:	3b01      	subs	r3, #1
 800748e:	6063      	str	r3, [r4, #4]
  if (dep->refs == (ucnt_t)0) {
 8007490:	b91b      	cbnz	r3, 800749a <chFactoryReleaseMailbox+0x1a>
 8007492:	4620      	mov	r0, r4
 8007494:	4904      	ldr	r1, [pc, #16]	; (80074a8 <chFactoryReleaseMailbox+0x28>)
 8007496:	f7ff ff23 	bl	80072e0 <dyn_release_object_heap.part.3>
}
 800749a:	e8bd 4010 	ldmia.w	sp!, {r4, lr}
  F_UNLOCK();
 800749e:	4801      	ldr	r0, [pc, #4]	; (80074a4 <chFactoryReleaseMailbox+0x24>)
 80074a0:	f7fe be16 	b.w	80060d0 <chMtxUnlock>
 80074a4:	20001344 	.word	0x20001344
 80074a8:	20001380 	.word	0x20001380
 80074ac:	00000000 	.word	0x00000000

080074b0 <oslib_test_004_004_execute>:
static void oslib_test_004_004_execute(void) {
 80074b0:	b5f8      	push	{r3, r4, r5, r6, r7, lr}
  test_set_step(1);
 80074b2:	2501      	movs	r5, #1
 80074b4:	4c41      	ldr	r4, [pc, #260]	; (80075bc <oslib_test_004_004_execute+0x10c>)
 80074b6:	6025      	str	r5, [r4, #0]
    dmp = chFactoryFindMailbox("mymbx");
 80074b8:	f7fe ffda 	bl	8006470 <chFactoryFindMailbox.constprop.48>
    test_assert(dmp == NULL, "found");
 80074bc:	fab0 f080 	clz	r0, r0
 80074c0:	493f      	ldr	r1, [pc, #252]	; (80075c0 <oslib_test_004_004_execute+0x110>)
 80074c2:	0940      	lsrs	r0, r0, #5
 80074c4:	f7f9 fa44 	bl	8000950 <_test_assert>
 80074c8:	b100      	cbz	r0, 80074cc <oslib_test_004_004_execute+0x1c>
}
 80074ca:	bdf8      	pop	{r3, r4, r5, r6, r7, pc}
  test_set_step(2);
 80074cc:	2302      	movs	r3, #2
 80074ce:	6023      	str	r3, [r4, #0]
    dmp = chFactoryCreateMailbox("mymbx", 16U);
 80074d0:	f7fe ff9e 	bl	8006410 <chFactoryCreateMailbox.constprop.49>
    test_assert(dmp != NULL, "cannot create");
 80074d4:	4606      	mov	r6, r0
 80074d6:	3000      	adds	r0, #0
 80074d8:	bf18      	it	ne
 80074da:	2001      	movne	r0, #1
 80074dc:	4939      	ldr	r1, [pc, #228]	; (80075c4 <oslib_test_004_004_execute+0x114>)
 80074de:	f7f9 fa37 	bl	8000950 <_test_assert>
 80074e2:	2800      	cmp	r0, #0
 80074e4:	d1f1      	bne.n	80074ca <oslib_test_004_004_execute+0x1a>
  test_set_step(3);
 80074e6:	2303      	movs	r3, #3
 80074e8:	6023      	str	r3, [r4, #0]
    dmp1 = chFactoryCreateMailbox("mymbx", 16U);
 80074ea:	f7fe ff91 	bl	8006410 <chFactoryCreateMailbox.constprop.49>
    test_assert(dmp1 == NULL, "can create");
 80074ee:	fab0 f080 	clz	r0, r0
 80074f2:	4935      	ldr	r1, [pc, #212]	; (80075c8 <oslib_test_004_004_execute+0x118>)
 80074f4:	0940      	lsrs	r0, r0, #5
 80074f6:	f7f9 fa2b 	bl	8000950 <_test_assert>
 80074fa:	2800      	cmp	r0, #0
 80074fc:	d1e5      	bne.n	80074ca <oslib_test_004_004_execute+0x1a>
  test_set_step(4);
 80074fe:	2304      	movs	r3, #4
 8007500:	6023      	str	r3, [r4, #0]
    dmp1 = chFactoryFindMailbox("mymbx");
 8007502:	f7fe ffb5 	bl	8006470 <chFactoryFindMailbox.constprop.48>
    test_assert(dmp1 != NULL, "not found");
 8007506:	4607      	mov	r7, r0
 8007508:	3000      	adds	r0, #0
 800750a:	bf18      	it	ne
 800750c:	2001      	movne	r0, #1
 800750e:	492f      	ldr	r1, [pc, #188]	; (80075cc <oslib_test_004_004_execute+0x11c>)
 8007510:	f7f9 fa1e 	bl	8000950 <_test_assert>
 8007514:	2800      	cmp	r0, #0
 8007516:	d1d8      	bne.n	80074ca <oslib_test_004_004_execute+0x1a>
    test_assert(dmp == dmp1, "object reference mismatch");
 8007518:	1bf0      	subs	r0, r6, r7
 800751a:	fab0 f080 	clz	r0, r0
 800751e:	492c      	ldr	r1, [pc, #176]	; (80075d0 <oslib_test_004_004_execute+0x120>)
 8007520:	0940      	lsrs	r0, r0, #5
 8007522:	f7f9 fa15 	bl	8000950 <_test_assert>
 8007526:	2800      	cmp	r0, #0
 8007528:	d1cf      	bne.n	80074ca <oslib_test_004_004_execute+0x1a>
    test_assert(dmp1->element.refs == 2, "object reference mismatch");
 800752a:	6878      	ldr	r0, [r7, #4]
 800752c:	4928      	ldr	r1, [pc, #160]	; (80075d0 <oslib_test_004_004_execute+0x120>)
 800752e:	f1a0 0002 	sub.w	r0, r0, #2
 8007532:	fab0 f080 	clz	r0, r0
 8007536:	0940      	lsrs	r0, r0, #5
 8007538:	f7f9 fa0a 	bl	8000950 <_test_assert>
 800753c:	2800      	cmp	r0, #0
 800753e:	d1c4      	bne.n	80074ca <oslib_test_004_004_execute+0x1a>
 8007540:	687b      	ldr	r3, [r7, #4]
    test_assert(dmp1 == dmp2, "object reference mismatch");
 8007542:	4628      	mov	r0, r5
 8007544:	442b      	add	r3, r5
 8007546:	607b      	str	r3, [r7, #4]
 8007548:	4921      	ldr	r1, [pc, #132]	; (80075d0 <oslib_test_004_004_execute+0x120>)
 800754a:	f7f9 fa01 	bl	8000950 <_test_assert>
 800754e:	2800      	cmp	r0, #0
 8007550:	d1bb      	bne.n	80074ca <oslib_test_004_004_execute+0x1a>
    test_assert(dmp2->element.refs == 3, "object reference mismatch");
 8007552:	6878      	ldr	r0, [r7, #4]
 8007554:	491e      	ldr	r1, [pc, #120]	; (80075d0 <oslib_test_004_004_execute+0x120>)
 8007556:	f1a0 0c03 	sub.w	ip, r0, #3
 800755a:	f1dc 0000 	rsbs	r0, ip, #0
 800755e:	eb40 000c 	adc.w	r0, r0, ip
 8007562:	f7f9 f9f5 	bl	8000950 <_test_assert>
 8007566:	2800      	cmp	r0, #0
 8007568:	d1af      	bne.n	80074ca <oslib_test_004_004_execute+0x1a>
    chFactoryReleaseMailbox(dmp2);
 800756a:	4638      	mov	r0, r7
 800756c:	f7ff ff88 	bl	8007480 <chFactoryReleaseMailbox>
    test_assert(dmp1->element.refs == 2, "references mismatch");
 8007570:	6878      	ldr	r0, [r7, #4]
 8007572:	4918      	ldr	r1, [pc, #96]	; (80075d4 <oslib_test_004_004_execute+0x124>)
 8007574:	1e82      	subs	r2, r0, #2
 8007576:	4250      	negs	r0, r2
 8007578:	4150      	adcs	r0, r2
 800757a:	f7f9 f9e9 	bl	8000950 <_test_assert>
 800757e:	2800      	cmp	r0, #0
 8007580:	d1a3      	bne.n	80074ca <oslib_test_004_004_execute+0x1a>
    chFactoryReleaseMailbox(dmp1);
 8007582:	4638      	mov	r0, r7
 8007584:	f7ff ff7c 	bl	8007480 <chFactoryReleaseMailbox>
    test_assert(dmp->element.refs == 1, "references mismatch");
 8007588:	6870      	ldr	r0, [r6, #4]
 800758a:	4912      	ldr	r1, [pc, #72]	; (80075d4 <oslib_test_004_004_execute+0x124>)
 800758c:	1b43      	subs	r3, r0, r5
 800758e:	4258      	negs	r0, r3
 8007590:	4158      	adcs	r0, r3
 8007592:	f7f9 f9dd 	bl	8000950 <_test_assert>
 8007596:	2800      	cmp	r0, #0
 8007598:	d197      	bne.n	80074ca <oslib_test_004_004_execute+0x1a>
  test_set_step(5);
 800759a:	2305      	movs	r3, #5
    chFactoryReleaseMailbox(dmp);
 800759c:	4630      	mov	r0, r6
  test_set_step(5);
 800759e:	6023      	str	r3, [r4, #0]
    chFactoryReleaseMailbox(dmp);
 80075a0:	f7ff ff6e 	bl	8007480 <chFactoryReleaseMailbox>
  test_set_step(6);
 80075a4:	2306      	movs	r3, #6
 80075a6:	6023      	str	r3, [r4, #0]
    dmp = chFactoryFindMailbox("mymbx");
 80075a8:	f7fe ff62 	bl	8006470 <chFactoryFindMailbox.constprop.48>
}
 80075ac:	e8bd 40f8 	ldmia.w	sp!, {r3, r4, r5, r6, r7, lr}
    test_assert(dmp == NULL, "found");
 80075b0:	fab0 f080 	clz	r0, r0
 80075b4:	4902      	ldr	r1, [pc, #8]	; (80075c0 <oslib_test_004_004_execute+0x110>)
 80075b6:	0940      	lsrs	r0, r0, #5
 80075b8:	f7f9 b9ca 	b.w	8000950 <_test_assert>
 80075bc:	20001c5c 	.word	0x20001c5c
 80075c0:	0800a620 	.word	0x0800a620
 80075c4:	0800a600 	.word	0x0800a600
 80075c8:	0800a610 	.word	0x0800a610
 80075cc:	0800a61c 	.word	0x0800a61c
 80075d0:	0800a628 	.word	0x0800a628
 80075d4:	0800a644 	.word	0x0800a644
	...

080075e0 <oslib_test_004_004_teardown>:
static void oslib_test_004_004_teardown(void) {
 80075e0:	b510      	push	{r4, lr}
  dmp = chFactoryFindMailbox("mymbx");
 80075e2:	f7fe ff45 	bl	8006470 <chFactoryFindMailbox.constprop.48>
  if (dmp != NULL) {
 80075e6:	b140      	cbz	r0, 80075fa <oslib_test_004_004_teardown+0x1a>
    while (dmp->element.refs > 0U) {
 80075e8:	6843      	ldr	r3, [r0, #4]
 80075ea:	4604      	mov	r4, r0
 80075ec:	b12b      	cbz	r3, 80075fa <oslib_test_004_004_teardown+0x1a>
      chFactoryReleaseMailbox(dmp);
 80075ee:	4620      	mov	r0, r4
 80075f0:	f7ff ff46 	bl	8007480 <chFactoryReleaseMailbox>
    while (dmp->element.refs > 0U) {
 80075f4:	6863      	ldr	r3, [r4, #4]
 80075f6:	2b00      	cmp	r3, #0
 80075f8:	d1f9      	bne.n	80075ee <oslib_test_004_004_teardown+0xe>
}
 80075fa:	bd10      	pop	{r4, pc}
 80075fc:	0000      	movs	r0, r0
	...

08007600 <chFactoryReleaseBuffer>:
void chFactoryReleaseBuffer(dyn_buffer_t *dbp) {
 8007600:	b510      	push	{r4, lr}
 8007602:	4604      	mov	r4, r0
  F_LOCK();
 8007604:	4807      	ldr	r0, [pc, #28]	; (8007624 <chFactoryReleaseBuffer+0x24>)
 8007606:	f7fc fe5b 	bl	80042c0 <chMtxLock>
  dep->refs--;
 800760a:	6863      	ldr	r3, [r4, #4]
 800760c:	3b01      	subs	r3, #1
 800760e:	6063      	str	r3, [r4, #4]
  if (dep->refs == (ucnt_t)0) {
 8007610:	b91b      	cbnz	r3, 800761a <chFactoryReleaseBuffer+0x1a>
 8007612:	4620      	mov	r0, r4
 8007614:	4904      	ldr	r1, [pc, #16]	; (8007628 <chFactoryReleaseBuffer+0x28>)
 8007616:	f7ff fe63 	bl	80072e0 <dyn_release_object_heap.part.3>
}
 800761a:	e8bd 4010 	ldmia.w	sp!, {r4, lr}
  F_UNLOCK();
 800761e:	4801      	ldr	r0, [pc, #4]	; (8007624 <chFactoryReleaseBuffer+0x24>)
 8007620:	f7fe bd56 	b.w	80060d0 <chMtxUnlock>
 8007624:	20001344 	.word	0x20001344
 8007628:	20001368 	.word	0x20001368
 800762c:	00000000 	.word	0x00000000

08007630 <oslib_test_004_002_execute>:
static void oslib_test_004_002_execute(void) {
 8007630:	b5f8      	push	{r3, r4, r5, r6, r7, lr}
  test_set_step(1);
 8007632:	2501      	movs	r5, #1
 8007634:	4c41      	ldr	r4, [pc, #260]	; (800773c <oslib_test_004_002_execute+0x10c>)
 8007636:	6025      	str	r5, [r4, #0]
    dbp = chFactoryFindBuffer("mybuf");
 8007638:	f7fe fe9a 	bl	8006370 <chFactoryFindBuffer.constprop.52>
    test_assert(dbp == NULL, "found");
 800763c:	fab0 f080 	clz	r0, r0
 8007640:	493f      	ldr	r1, [pc, #252]	; (8007740 <oslib_test_004_002_execute+0x110>)
 8007642:	0940      	lsrs	r0, r0, #5
 8007644:	f7f9 f984 	bl	8000950 <_test_assert>
 8007648:	b100      	cbz	r0, 800764c <oslib_test_004_002_execute+0x1c>
}
 800764a:	bdf8      	pop	{r3, r4, r5, r6, r7, pc}
  test_set_step(2);
 800764c:	2302      	movs	r3, #2
 800764e:	6023      	str	r3, [r4, #0]
    dbp = chFactoryCreateBuffer("mybuf", 128U);
 8007650:	f7fe fe6e 	bl	8006330 <chFactoryCreateBuffer.constprop.53>
    test_assert(dbp != NULL, "cannot create");
 8007654:	4606      	mov	r6, r0
 8007656:	3000      	adds	r0, #0
 8007658:	bf18      	it	ne
 800765a:	2001      	movne	r0, #1
 800765c:	4939      	ldr	r1, [pc, #228]	; (8007744 <oslib_test_004_002_execute+0x114>)
 800765e:	f7f9 f977 	bl	8000950 <_test_assert>
 8007662:	2800      	cmp	r0, #0
 8007664:	d1f1      	bne.n	800764a <oslib_test_004_002_execute+0x1a>
  test_set_step(3);
 8007666:	2303      	movs	r3, #3
 8007668:	6023      	str	r3, [r4, #0]
    dbp1 = chFactoryCreateBuffer("mybuf", 128U);
 800766a:	f7fe fe61 	bl	8006330 <chFactoryCreateBuffer.constprop.53>
    test_assert(dbp1 == NULL, "can create");
 800766e:	fab0 f080 	clz	r0, r0
 8007672:	4935      	ldr	r1, [pc, #212]	; (8007748 <oslib_test_004_002_execute+0x118>)
 8007674:	0940      	lsrs	r0, r0, #5
 8007676:	f7f9 f96b 	bl	8000950 <_test_assert>
 800767a:	2800      	cmp	r0, #0
 800767c:	d1e5      	bne.n	800764a <oslib_test_004_002_execute+0x1a>
  test_set_step(4);
 800767e:	2304      	movs	r3, #4
 8007680:	6023      	str	r3, [r4, #0]
    dbp1 = chFactoryFindBuffer("mybuf");
 8007682:	f7fe fe75 	bl	8006370 <chFactoryFindBuffer.constprop.52>
    test_assert(dbp1 != NULL, "not found");
 8007686:	4607      	mov	r7, r0
 8007688:	3000      	adds	r0, #0
 800768a:	bf18      	it	ne
 800768c:	2001      	movne	r0, #1
 800768e:	492f      	ldr	r1, [pc, #188]	; (800774c <oslib_test_004_002_execute+0x11c>)
 8007690:	f7f9 f95e 	bl	8000950 <_test_assert>
 8007694:	2800      	cmp	r0, #0
 8007696:	d1d8      	bne.n	800764a <oslib_test_004_002_execute+0x1a>
    test_assert(dbp == dbp1, "object reference mismatch");
 8007698:	1bf0      	subs	r0, r6, r7
 800769a:	fab0 f080 	clz	r0, r0
 800769e:	492c      	ldr	r1, [pc, #176]	; (8007750 <oslib_test_004_002_execute+0x120>)
 80076a0:	0940      	lsrs	r0, r0, #5
 80076a2:	f7f9 f955 	bl	8000950 <_test_assert>
 80076a6:	2800      	cmp	r0, #0
 80076a8:	d1cf      	bne.n	800764a <oslib_test_004_002_execute+0x1a>
    test_assert(dbp1->element.refs == 2, "object reference mismatch");
 80076aa:	6878      	ldr	r0, [r7, #4]
 80076ac:	4928      	ldr	r1, [pc, #160]	; (8007750 <oslib_test_004_002_execute+0x120>)
 80076ae:	f1a0 0002 	sub.w	r0, r0, #2
 80076b2:	fab0 f080 	clz	r0, r0
 80076b6:	0940      	lsrs	r0, r0, #5
 80076b8:	f7f9 f94a 	bl	8000950 <_test_assert>
 80076bc:	2800      	cmp	r0, #0
 80076be:	d1c4      	bne.n	800764a <oslib_test_004_002_execute+0x1a>
 80076c0:	687b      	ldr	r3, [r7, #4]
    test_assert(dbp1 == dbp2, "object reference mismatch");
 80076c2:	4628      	mov	r0, r5
 80076c4:	442b      	add	r3, r5
 80076c6:	607b      	str	r3, [r7, #4]
 80076c8:	4921      	ldr	r1, [pc, #132]	; (8007750 <oslib_test_004_002_execute+0x120>)
 80076ca:	f7f9 f941 	bl	8000950 <_test_assert>
 80076ce:	2800      	cmp	r0, #0
 80076d0:	d1bb      	bne.n	800764a <oslib_test_004_002_execute+0x1a>
    test_assert(dbp2->element.refs == 3, "object reference mismatch");
 80076d2:	6878      	ldr	r0, [r7, #4]
 80076d4:	491e      	ldr	r1, [pc, #120]	; (8007750 <oslib_test_004_002_execute+0x120>)
 80076d6:	f1a0 0c03 	sub.w	ip, r0, #3
 80076da:	f1dc 0000 	rsbs	r0, ip, #0
 80076de:	eb40 000c 	adc.w	r0, r0, ip
 80076e2:	f7f9 f935 	bl	8000950 <_test_assert>
 80076e6:	2800      	cmp	r0, #0
 80076e8:	d1af      	bne.n	800764a <oslib_test_004_002_execute+0x1a>
    chFactoryReleaseBuffer(dbp2);
 80076ea:	4638      	mov	r0, r7
 80076ec:	f7ff ff88 	bl	8007600 <chFactoryReleaseBuffer>
    test_assert(dbp1->element.refs == 2, "references mismatch");
 80076f0:	6878      	ldr	r0, [r7, #4]
 80076f2:	4918      	ldr	r1, [pc, #96]	; (8007754 <oslib_test_004_002_execute+0x124>)
 80076f4:	1e82      	subs	r2, r0, #2
 80076f6:	4250      	negs	r0, r2
 80076f8:	4150      	adcs	r0, r2
 80076fa:	f7f9 f929 	bl	8000950 <_test_assert>
 80076fe:	2800      	cmp	r0, #0
 8007700:	d1a3      	bne.n	800764a <oslib_test_004_002_execute+0x1a>
    chFactoryReleaseBuffer(dbp1);
 8007702:	4638      	mov	r0, r7
 8007704:	f7ff ff7c 	bl	8007600 <chFactoryReleaseBuffer>
    test_assert(dbp->element.refs == 1, "references mismatch");
 8007708:	6870      	ldr	r0, [r6, #4]
 800770a:	4912      	ldr	r1, [pc, #72]	; (8007754 <oslib_test_004_002_execute+0x124>)
 800770c:	1b43      	subs	r3, r0, r5
 800770e:	4258      	negs	r0, r3
 8007710:	4158      	adcs	r0, r3
 8007712:	f7f9 f91d 	bl	8000950 <_test_assert>
 8007716:	2800      	cmp	r0, #0
 8007718:	d197      	bne.n	800764a <oslib_test_004_002_execute+0x1a>
  test_set_step(5);
 800771a:	2305      	movs	r3, #5
    chFactoryReleaseBuffer(dbp);
 800771c:	4630      	mov	r0, r6
  test_set_step(5);
 800771e:	6023      	str	r3, [r4, #0]
    chFactoryReleaseBuffer(dbp);
 8007720:	f7ff ff6e 	bl	8007600 <chFactoryReleaseBuffer>
  test_set_step(6);
 8007724:	2306      	movs	r3, #6
 8007726:	6023      	str	r3, [r4, #0]
    dbp = chFactoryFindBuffer("mybuf");
 8007728:	f7fe fe22 	bl	8006370 <chFactoryFindBuffer.constprop.52>
}
 800772c:	e8bd 40f8 	ldmia.w	sp!, {r3, r4, r5, r6, r7, lr}
    test_assert(dbp == NULL, "found");
 8007730:	fab0 f080 	clz	r0, r0
 8007734:	4902      	ldr	r1, [pc, #8]	; (8007740 <oslib_test_004_002_execute+0x110>)
 8007736:	0940      	lsrs	r0, r0, #5
 8007738:	f7f9 b90a 	b.w	8000950 <_test_assert>
 800773c:	20001c5c 	.word	0x20001c5c
 8007740:	0800a620 	.word	0x0800a620
 8007744:	0800a600 	.word	0x0800a600
 8007748:	0800a610 	.word	0x0800a610
 800774c:	0800a61c 	.word	0x0800a61c
 8007750:	0800a628 	.word	0x0800a628
 8007754:	0800a644 	.word	0x0800a644
	...

08007760 <oslib_test_004_002_teardown>:
static void oslib_test_004_002_teardown(void) {
 8007760:	b510      	push	{r4, lr}
  dbp = chFactoryFindBuffer("mybuf");
 8007762:	f7fe fe05 	bl	8006370 <chFactoryFindBuffer.constprop.52>
  if (dbp != NULL) {
 8007766:	b140      	cbz	r0, 800777a <oslib_test_004_002_teardown+0x1a>
    while (dbp->element.refs > 0U) {
 8007768:	6843      	ldr	r3, [r0, #4]
 800776a:	4604      	mov	r4, r0
 800776c:	b12b      	cbz	r3, 800777a <oslib_test_004_002_teardown+0x1a>
      chFactoryReleaseBuffer(dbp);
 800776e:	4620      	mov	r0, r4
 8007770:	f7ff ff46 	bl	8007600 <chFactoryReleaseBuffer>
    while (dbp->element.refs > 0U) {
 8007774:	6863      	ldr	r3, [r4, #4]
 8007776:	2b00      	cmp	r3, #0
 8007778:	d1f9      	bne.n	800776e <oslib_test_004_002_teardown+0xe>
}
 800777a:	bd10      	pop	{r4, pc}
 800777c:	0000      	movs	r0, r0
	...

08007780 <chThdRelease>:
 8007780:	2220      	movs	r2, #32
 8007782:	f382 8811 	msr	BASEPRI, r2
  tp->refs--;
 8007786:	f890 3022 	ldrb.w	r3, [r0, #34]	; 0x22
 800778a:	3b01      	subs	r3, #1
 800778c:	f880 3022 	strb.w	r3, [r0, #34]	; 0x22
  if ((tp->refs == (trefs_t)0) && (tp->state == CH_STATE_FINAL)) {
 8007790:	6a03      	ldr	r3, [r0, #32]
 8007792:	f003 13ff 	and.w	r3, r3, #16711935	; 0xff00ff
 8007796:	2b0f      	cmp	r3, #15
 8007798:	d003      	beq.n	80077a2 <chThdRelease+0x22>
 800779a:	2300      	movs	r3, #0
 800779c:	f383 8811 	msr	BASEPRI, r3
 80077a0:	4770      	bx	lr
void chThdRelease(thread_t *tp) {
 80077a2:	b410      	push	{r4}
    REG_REMOVE(tp);
 80077a4:	e9d0 4304 	ldrd	r4, r3, [r0, #16]
 80077a8:	611c      	str	r4, [r3, #16]
 80077aa:	6904      	ldr	r4, [r0, #16]
 80077ac:	2100      	movs	r1, #0
 80077ae:	6163      	str	r3, [r4, #20]
 80077b0:	f381 8811 	msr	BASEPRI, r1
    switch (tp->flags & CH_FLAG_MODE_MASK) {
 80077b4:	f890 3021 	ldrb.w	r3, [r0, #33]	; 0x21
 80077b8:	f003 0303 	and.w	r3, r3, #3
 80077bc:	2b01      	cmp	r3, #1
 80077be:	d00c      	beq.n	80077da <chThdRelease+0x5a>
 80077c0:	2b02      	cmp	r3, #2
 80077c2:	d108      	bne.n	80077d6 <chThdRelease+0x56>
      chPoolFree(tp->mpool, chThdGetWorkingAreaX(tp));
 80077c4:	6c03      	ldr	r3, [r0, #64]	; 0x40
 80077c6:	69c0      	ldr	r0, [r0, #28]
 80077c8:	f382 8811 	msr	BASEPRI, r2
  php->next = mp->next;
 80077cc:	681a      	ldr	r2, [r3, #0]
 80077ce:	6002      	str	r2, [r0, #0]
  mp->next = php;
 80077d0:	6018      	str	r0, [r3, #0]
 80077d2:	f381 8811 	msr	BASEPRI, r1
}
 80077d6:	bc10      	pop	{r4}
 80077d8:	4770      	bx	lr
      chHeapFree(chThdGetWorkingAreaX(tp));
 80077da:	69c0      	ldr	r0, [r0, #28]
}
 80077dc:	bc10      	pop	{r4}
      chHeapFree(chThdGetWorkingAreaX(tp));
 80077de:	f7ff bb5f 	b.w	8006ea0 <chHeapFree>
 80077e2:	bf00      	nop
	...

080077f0 <cmd_threads>:
  if (argc > 0) {
 80077f0:	2900      	cmp	r1, #0
 80077f2:	dd03      	ble.n	80077fc <cmd_threads+0xc>
    shellUsage(chp, "threads");
 80077f4:	4a28      	ldr	r2, [pc, #160]	; (8007898 <cmd_threads+0xa8>)
 80077f6:	4929      	ldr	r1, [pc, #164]	; (800789c <cmd_threads+0xac>)
 80077f8:	f7fa bd4a 	b.w	8002290 <chprintf>
static void cmd_threads(BaseSequentialStream *chp, int argc, char *argv[]) {
 80077fc:	e92d 4ff0 	stmdb	sp!, {r4, r5, r6, r7, r8, r9, sl, fp, lr}
  chprintf(chp, "stklimit    stack     addr refs prio     state         name\r\n"SHELL_NEWLINE_STR);
 8007800:	4927      	ldr	r1, [pc, #156]	; (80078a0 <cmd_threads+0xb0>)
static void cmd_threads(BaseSequentialStream *chp, int argc, char *argv[]) {
 8007802:	b087      	sub	sp, #28
 8007804:	4605      	mov	r5, r0
 8007806:	2620      	movs	r6, #32
  chprintf(chp, "stklimit    stack     addr refs prio     state         name\r\n"SHELL_NEWLINE_STR);
 8007808:	f7fa fd42 	bl	8002290 <chprintf>
 800780c:	f386 8811 	msr	BASEPRI, r6
 */
thread_t *chRegFirstThread(void) {
  thread_t *tp;

  chSysLock();
  tp = ch.rlist.newer;
 8007810:	4f24      	ldr	r7, [pc, #144]	; (80078a4 <cmd_threads+0xb4>)
 8007812:	2200      	movs	r2, #0
 8007814:	693c      	ldr	r4, [r7, #16]
#if CH_CFG_USE_DYNAMIC == TRUE
  tp->refs++;
 8007816:	f894 3022 	ldrb.w	r3, [r4, #34]	; 0x22
 800781a:	3301      	adds	r3, #1
 800781c:	f884 3022 	strb.w	r3, [r4, #34]	; 0x22
 8007820:	f382 8811 	msr	BASEPRI, r2
 8007824:	f8df a080 	ldr.w	sl, [pc, #128]	; 80078a8 <cmd_threads+0xb8>
    chprintf(chp, "%08lx %08lx %08lx %4lu %4lu %9s %12s"SHELL_NEWLINE_STR,
 8007828:	f8df 9080 	ldr.w	r9, [pc, #128]	; 80078ac <cmd_threads+0xbc>
 800782c:	f8df 8080 	ldr.w	r8, [pc, #128]	; 80078b0 <cmd_threads+0xc0>
 8007830:	e00b      	b.n	800784a <cmd_threads+0x5a>
    ntp = NULL;
  }
#if CH_CFG_USE_DYNAMIC == TRUE
  else {
    chDbgAssert(ntp->refs < (trefs_t)255, "too many references");
    ntp->refs++;
 8007832:	f89b 3022 	ldrb.w	r3, [fp, #34]	; 0x22
 8007836:	2200      	movs	r2, #0
 8007838:	3301      	adds	r3, #1
 800783a:	f88b 3022 	strb.w	r3, [fp, #34]	; 0x22
 800783e:	f382 8811 	msr	BASEPRI, r2
  }
#endif
  chSysUnlock();
#if CH_CFG_USE_DYNAMIC == TRUE
  chThdRelease(tp);
 8007842:	4620      	mov	r0, r4
 8007844:	f7ff ff9c 	bl	8007780 <chThdRelease>
 8007848:	465c      	mov	r4, fp
             tp->name == NULL ? "" : tp->name);
 800784a:	69a1      	ldr	r1, [r4, #24]
             (uint32_t)tp->refs - 1, (uint32_t)tp->prio, states[tp->state],
 800784c:	f894 3020 	ldrb.w	r3, [r4, #32]
    chprintf(chp, "%08lx %08lx %08lx %4lu %4lu %9s %12s"SHELL_NEWLINE_STR,
 8007850:	2900      	cmp	r1, #0
 8007852:	bf08      	it	eq
 8007854:	4649      	moveq	r1, r9
             (uint32_t)tp->refs - 1, (uint32_t)tp->prio, states[tp->state],
 8007856:	f894 0022 	ldrb.w	r0, [r4, #34]	; 0x22
    chprintf(chp, "%08lx %08lx %08lx %4lu %4lu %9s %12s"SHELL_NEWLINE_STR,
 800785a:	f85a e023 	ldr.w	lr, [sl, r3, lsl #2]
 800785e:	3801      	subs	r0, #1
    uint32_t stklimit = (uint32_t)tp->wabase;
 8007860:	69e2      	ldr	r2, [r4, #28]
             (uint32_t)tp->refs - 1, (uint32_t)tp->prio, states[tp->state],
 8007862:	e9d4 c302 	ldrd	ip, r3, [r4, #8]
    chprintf(chp, "%08lx %08lx %08lx %4lu %4lu %9s %12s"SHELL_NEWLINE_STR,
 8007866:	e9cd e103 	strd	lr, r1, [sp, #12]
 800786a:	e9cd 0c01 	strd	r0, ip, [sp, #4]
 800786e:	9400      	str	r4, [sp, #0]
 8007870:	4641      	mov	r1, r8
 8007872:	4628      	mov	r0, r5
 8007874:	f7fa fd0c 	bl	8002290 <chprintf>
 8007878:	f386 8811 	msr	BASEPRI, r6
  ntp = tp->newer;
 800787c:	f8d4 b010 	ldr.w	fp, [r4, #16]
  if (ntp == (thread_t *)&ch.rlist) {
 8007880:	45bb      	cmp	fp, r7
 8007882:	d1d6      	bne.n	8007832 <cmd_threads+0x42>
 8007884:	2300      	movs	r3, #0
 8007886:	f383 8811 	msr	BASEPRI, r3
  chThdRelease(tp);
 800788a:	4620      	mov	r0, r4
}
 800788c:	b007      	add	sp, #28
 800788e:	e8bd 4ff0 	ldmia.w	sp!, {r4, r5, r6, r7, r8, r9, sl, fp, lr}
 8007892:	f7ff bf75 	b.w	8007780 <chThdRelease>
 8007896:	bf00      	nop
 8007898:	0800c0f0 	.word	0x0800c0f0
 800789c:	0800a22c 	.word	0x0800a22c
 80078a0:	0800a264 	.word	0x0800a264
 80078a4:	200012d0 	.word	0x200012d0
 80078a8:	0800bae0 	.word	0x0800bae0
 80078ac:	0800ba9c 	.word	0x0800ba9c
 80078b0:	0800a2a4 	.word	0x0800a2a4
	...

080078c0 <rt_test_010_006_execute>:
  test_set_step(1);
 80078c0:	2201      	movs	r2, #1
  return ch.rlist.current;
 80078c2:	4b1a      	ldr	r3, [pc, #104]	; (800792c <rt_test_010_006_execute+0x6c>)
static void rt_test_010_006_execute(void) {
 80078c4:	e92d 47f0 	stmdb	sp!, {r4, r5, r6, r7, r8, r9, sl, lr}
  return chThdGetSelfX()->prio;
 80078c8:	699b      	ldr	r3, [r3, #24]
  test_set_step(1);
 80078ca:	f8df a06c 	ldr.w	sl, [pc, #108]	; 8007938 <rt_test_010_006_execute+0x78>
  tprio_t prio = chThdGetPriorityX() + 1;
 80078ce:	689f      	ldr	r7, [r3, #8]
  test_set_step(1);
 80078d0:	f8ca 2000 	str.w	r2, [sl]
  tprio_t prio = chThdGetPriorityX() + 1;
 80078d4:	4417      	add	r7, r2
    start = test_wait_tick();
 80078d6:	f7fc f9db 	bl	8003c90 <test_wait_tick>
    n = 0;
 80078da:	2400      	movs	r4, #0
    start = test_wait_tick();
 80078dc:	4606      	mov	r6, r0
  return systime + (systime_t)interval;
 80078de:	f500 65fa 	add.w	r5, r0, #2000	; 0x7d0
 80078e2:	b2ad      	uxth	r5, r5
      chThdRelease(chThdCreateStatic(wa[0], WA_SIZE, prio, bmk_thread3, NULL));
 80078e4:	f8df 9054 	ldr.w	r9, [pc, #84]	; 800793c <rt_test_010_006_execute+0x7c>
 80078e8:	f8df 8054 	ldr.w	r8, [pc, #84]	; 8007940 <rt_test_010_006_execute+0x80>
 80078ec:	1a2d      	subs	r5, r5, r0
 80078ee:	2300      	movs	r3, #0
 80078f0:	464a      	mov	r2, r9
 80078f2:	4639      	mov	r1, r7
 80078f4:	4640      	mov	r0, r8
 80078f6:	f7fb fb23 	bl	8002f40 <chThdCreateStatic.constprop.103>
 80078fa:	f7ff ff41 	bl	8007780 <chThdRelease>
 80078fe:	f04f 4380 	mov.w	r3, #1073741824	; 0x40000000
 8007902:	6a5b      	ldr	r3, [r3, #36]	; 0x24
      n++;
 8007904:	3401      	adds	r4, #1
  return (bool)((time - start) < (end - start));
 8007906:	b29b      	uxth	r3, r3
 8007908:	1b9b      	subs	r3, r3, r6
    } while (chVTIsSystemTimeWithinX(start, end));
 800790a:	42ab      	cmp	r3, r5
 800790c:	dbef      	blt.n	80078ee <rt_test_010_006_execute+0x2e>
  test_set_step(2);
 800790e:	2302      	movs	r3, #2
    test_print("--- Score : ");
 8007910:	4807      	ldr	r0, [pc, #28]	; (8007930 <rt_test_010_006_execute+0x70>)
  test_set_step(2);
 8007912:	f8ca 3000 	str.w	r3, [sl]
    test_print("--- Score : ");
 8007916:	f7f9 f91b 	bl	8000b50 <test_print>
    test_printn(n);
 800791a:	4620      	mov	r0, r4
 800791c:	f7f9 f8a8 	bl	8000a70 <test_printn>
}
 8007920:	e8bd 47f0 	ldmia.w	sp!, {r4, r5, r6, r7, r8, r9, sl, lr}
    test_println(" threads/S");
 8007924:	4803      	ldr	r0, [pc, #12]	; (8007934 <rt_test_010_006_execute+0x74>)
 8007926:	f7f9 b8f3 	b.w	8000b10 <test_println>
 800792a:	bf00      	nop
 800792c:	200012d0 	.word	0x200012d0
 8007930:	0800b7c0 	.word	0x0800b7c0
 8007934:	0800b764 	.word	0x0800b764
 8007938:	20001c5c 	.word	0x20001c5c
 800793c:	08005421 	.word	0x08005421
 8007940:	20001548 	.word	0x20001548
	...

08007950 <chThdWait>:
msg_t chThdWait(thread_t *tp) {
 8007950:	b538      	push	{r3, r4, r5, lr}
 8007952:	4604      	mov	r4, r0
 8007954:	2320      	movs	r3, #32
 8007956:	f383 8811 	msr	BASEPRI, r3
  if (tp->state != CH_STATE_FINAL) {
 800795a:	f890 3020 	ldrb.w	r3, [r0, #32]
 800795e:	2b0f      	cmp	r3, #15
 8007960:	d007      	beq.n	8007972 <chThdWait+0x22>
    list_insert(currp, &tp->waiting);
 8007962:	4b08      	ldr	r3, [pc, #32]	; (8007984 <chThdWait+0x34>)
  tp->queue.next = tlp->next;
 8007964:	6a82      	ldr	r2, [r0, #40]	; 0x28
 8007966:	699b      	ldr	r3, [r3, #24]
    chSchGoSleepS(CH_STATE_WTEXIT);
 8007968:	2009      	movs	r0, #9
 800796a:	601a      	str	r2, [r3, #0]
  tlp->next = tp;
 800796c:	62a3      	str	r3, [r4, #40]	; 0x28
 800796e:	f7fb fb97 	bl	80030a0 <chSchGoSleepS>
  msg = tp->u.exitcode;
 8007972:	6a65      	ldr	r5, [r4, #36]	; 0x24
 8007974:	2300      	movs	r3, #0
 8007976:	f383 8811 	msr	BASEPRI, r3
  chThdRelease(tp);
 800797a:	4620      	mov	r0, r4
 800797c:	f7ff ff00 	bl	8007780 <chThdRelease>
}
 8007980:	4628      	mov	r0, r5
 8007982:	bd38      	pop	{r3, r4, r5, pc}
 8007984:	200012d0 	.word	0x200012d0
	...

08007990 <main>:
  rccResetAPB1(0xFFFFFFFF);
 8007990:	2100      	movs	r1, #0
 8007992:	f04f 30ff 	mov.w	r0, #4294967295	; 0xffffffff
 8007996:	4b0e      	ldr	r3, [pc, #56]	; (80079d0 <main+0x40>)
		USART_CR2_STOP1_BITS | USART_CR2_LINEN, 0 };

/*
 * Application entry point.
 */
int main(void) {
 8007998:	e92d 4880 	stmdb	sp!, {r7, fp, lr}
 800799c:	691e      	ldr	r6, [r3, #16]
 800799e:	6118      	str	r0, [r3, #16]
 80079a0:	6119      	str	r1, [r3, #16]
  rccResetAPB2(0xFFFFFFFF);
 80079a2:	68de      	ldr	r6, [r3, #12]
 80079a4:	60d8      	str	r0, [r3, #12]
 80079a6:	60d9      	str	r1, [r3, #12]
void dmaInit(void) {
  int i;

  dma.streams_mask = 0U;
  dma.isr_mask = 0U;
  for (i = 0; i < STM32_DMA_STREAMS; i++) {
 80079a8:	460a      	mov	r2, r1
    _stm32_dma_streams[i].channel->CCR = 0U;
 80079aa:	460d      	mov	r5, r1
  rccEnablePWRInterface(true);
 80079ac:	69d9      	ldr	r1, [r3, #28]
  PWR->CR |= PWR_CR_DBP;
 80079ae:	4c09      	ldr	r4, [pc, #36]	; (80079d4 <main+0x44>)
  rccEnablePWRInterface(true);
 80079b0:	f041 5180 	orr.w	r1, r1, #268435456	; 0x10000000
 80079b4:	61d9      	str	r1, [r3, #28]
  rccEnableBKPInterface(true);
 80079b6:	69d9      	ldr	r1, [r3, #28]
 80079b8:	b083      	sub	sp, #12
 80079ba:	f041 6100 	orr.w	r1, r1, #134217728	; 0x8000000
 80079be:	61d9      	str	r1, [r3, #28]
  PWR->CR |= PWR_CR_DBP;
 80079c0:	6823      	ldr	r3, [r4, #0]
 80079c2:	4805      	ldr	r0, [pc, #20]	; (80079d8 <main+0x48>)
 80079c4:	f443 7380 	orr.w	r3, r3, #256	; 0x100
 80079c8:	6023      	str	r3, [r4, #0]
 80079ca:	4904      	ldr	r1, [pc, #16]	; (80079dc <main+0x4c>)
 80079cc:	4b04      	ldr	r3, [pc, #16]	; (80079e0 <main+0x50>)
 80079ce:	e00b      	b.n	80079e8 <main+0x58>
 80079d0:	40021000 	.word	0x40021000
 80079d4:	40007000 	.word	0x40007000
 80079d8:	08009f30 	.word	0x08009f30
 80079dc:	40020008 	.word	0x40020008
 80079e0:	20001298 	.word	0x20001298
 80079e4:	f850 1c14 	ldr.w	r1, [r0, #-20]
 80079e8:	600d      	str	r5, [r1, #0]
    _stm32_dma_isr_redir[i].dma_func = NULL;
 80079ea:	f843 5032 	str.w	r5, [r3, r2, lsl #3]
  for (i = 0; i < STM32_DMA_STREAMS; i++) {
 80079ee:	3201      	adds	r2, #1
 80079f0:	2a07      	cmp	r2, #7
 80079f2:	f100 0014 	add.w	r0, r0, #20
 80079f6:	d1f5      	bne.n	80079e4 <main+0x54>
  }
  DMA1->IFCR = 0xFFFFFFFFU;
 80079f8:	f04f 3eff 	mov.w	lr, #4294967295	; 0xffffffff

#if defined(__CORE_CM0_H_GENERIC)
  NVIC->IP[_IP_IDX(n)] = (NVIC->IP[_IP_IDX(n)] & ~(0xFFU << _BIT_SHIFT(n))) |
                         (NVIC_PRIORITY_MASK(prio) << _BIT_SHIFT(n));
#else
  NVIC->IP[n] = NVIC_PRIORITY_MASK(prio);
 80079fc:	2060      	movs	r0, #96	; 0x60
#endif
  NVIC->ICPR[n >> 5U] = 1U << (n & 0x1FU);
 80079fe:	f44f 7480 	mov.w	r4, #256	; 0x100
 8007a02:	f44f 7200 	mov.w	r2, #512	; 0x200
 8007a06:	f04f 0c40 	mov.w	ip, #64	; 0x40
 8007a0a:	2780      	movs	r7, #128	; 0x80
 8007a0c:	f44f 6680 	mov.w	r6, #1024	; 0x400
 8007a10:	f44f 0500 	mov.w	r5, #8388608	; 0x800000

#if PAL_USE_CALLBACKS || PAL_USE_WAIT || defined(__DOXYGEN__)
  unsigned i;

  for (i = 0; i < 16; i++) {
    _pal_init_event(i);
 8007a14:	2100      	movs	r1, #0
 8007a16:	4bd0      	ldr	r3, [pc, #832]	; (8007d58 <main+0x3c8>)
 8007a18:	f8c3 e004 	str.w	lr, [r3, #4]
  NVIC->IP[n] = NVIC_PRIORITY_MASK(prio);
 8007a1c:	4bcf      	ldr	r3, [pc, #828]	; (8007d5c <main+0x3cc>)
 8007a1e:	f883 0306 	strb.w	r0, [r3, #774]	; 0x306
  NVIC->ICPR[n >> 5U] = 1U << (n & 0x1FU);
 8007a22:	f8c3 c180 	str.w	ip, [r3, #384]	; 0x180
  NVIC->ISER[n >> 5U] = 1U << (n & 0x1FU);
 8007a26:	f8c3 c000 	str.w	ip, [r3]
  NVIC->IP[n] = NVIC_PRIORITY_MASK(prio);
 8007a2a:	f883 0307 	strb.w	r0, [r3, #775]	; 0x307
  NVIC->ICPR[n >> 5U] = 1U << (n & 0x1FU);
 8007a2e:	f8c3 7180 	str.w	r7, [r3, #384]	; 0x180
  NVIC->ISER[n >> 5U] = 1U << (n & 0x1FU);
 8007a32:	601f      	str	r7, [r3, #0]
  NVIC->IP[n] = NVIC_PRIORITY_MASK(prio);
 8007a34:	f883 0308 	strb.w	r0, [r3, #776]	; 0x308
  NVIC->ICPR[n >> 5U] = 1U << (n & 0x1FU);
 8007a38:	f8c3 4180 	str.w	r4, [r3, #384]	; 0x180
  NVIC->ISER[n >> 5U] = 1U << (n & 0x1FU);
 8007a3c:	601c      	str	r4, [r3, #0]
  NVIC->IP[n] = NVIC_PRIORITY_MASK(prio);
 8007a3e:	f883 0309 	strb.w	r0, [r3, #777]	; 0x309
  NVIC->ICPR[n >> 5U] = 1U << (n & 0x1FU);
 8007a42:	f8c3 2180 	str.w	r2, [r3, #384]	; 0x180
  NVIC->ISER[n >> 5U] = 1U << (n & 0x1FU);
 8007a46:	601a      	str	r2, [r3, #0]
 8007a48:	4ac5      	ldr	r2, [pc, #788]	; (8007d60 <main+0x3d0>)
  NVIC->IP[n] = NVIC_PRIORITY_MASK(prio);
 8007a4a:	f883 030a 	strb.w	r0, [r3, #778]	; 0x30a
  NVIC->ICPR[n >> 5U] = 1U << (n & 0x1FU);
 8007a4e:	f8c3 6180 	str.w	r6, [r3, #384]	; 0x180
  NVIC->ISER[n >> 5U] = 1U << (n & 0x1FU);
 8007a52:	601e      	str	r6, [r3, #0]
  NVIC->IP[n] = NVIC_PRIORITY_MASK(prio);
 8007a54:	f883 0317 	strb.w	r0, [r3, #791]	; 0x317
  NVIC->ICPR[n >> 5U] = 1U << (n & 0x1FU);
 8007a58:	f8c3 5180 	str.w	r5, [r3, #384]	; 0x180
  NVIC->ISER[n >> 5U] = 1U << (n & 0x1FU);
 8007a5c:	601d      	str	r5, [r3, #0]
  NVIC->IP[n] = NVIC_PRIORITY_MASK(prio);
 8007a5e:	f883 0328 	strb.w	r0, [r3, #808]	; 0x328
  NVIC->ICPR[n >> 5U] = 1U << (n & 0x1FU);
 8007a62:	f8c3 4184 	str.w	r4, [r3, #388]	; 0x184
 8007a66:	1910      	adds	r0, r2, r4
  NVIC->ISER[n >> 5U] = 1U << (n & 0x1FU);
 8007a68:	605c      	str	r4, [r3, #4]
  tqp->prev = (thread_t *)tqp;
 8007a6a:	e9c2 2200 	strd	r2, r2, [r2]
 8007a6e:	e9c2 1102 	strd	r1, r1, [r2, #8]
 8007a72:	3210      	adds	r2, #16
  for (i = 0; i < 16; i++) {
 8007a74:	4282      	cmp	r2, r0
 8007a76:	d1f8      	bne.n	8007a6a <main+0xda>
 *
 * @init
 */
void i2cObjectInit(I2CDriver *i2cp) {

  i2cp->state  = I2C_STOP;
 8007a78:	2001      	movs	r0, #1
  rccEnableAPB2(APB2_EN_MASK, true);

  /*
   * Initial GPIO setup.
   */
  GPIOA->ODR = config->PAData.odr;
 8007a7a:	f04f 33ff 	mov.w	r3, #4294967295	; 0xffffffff
  GPIOB->ODR = config->PBData.odr;
  GPIOB->CRH = config->PBData.crh;
  GPIOB->CRL = config->PBData.crl;
  GPIOC->ODR = config->PCData.odr;
  GPIOC->CRH = config->PCData.crh;
  GPIOC->CRL = config->PCData.crl;
 8007a7e:	f04f 3288 	mov.w	r2, #2290649224	; 0x88888888
  sdp->vmt = &vmt;
 8007a82:	4db8      	ldr	r5, [pc, #736]	; (8007d64 <main+0x3d4>)
  oqp->q_counter = size;
 8007a84:	f44f 7c80 	mov.w	ip, #256	; 0x100
 8007a88:	462e      	mov	r6, r5
    usbp->in_params[i]  = NULL;
 8007a8a:	2400      	movs	r4, #0
  rccEnableAPB2(APB2_EN_MASK, true);
 8007a8c:	f8df e330 	ldr.w	lr, [pc, #816]	; 8007dc0 <main+0x430>
  sdp->state = SD_STOP;
 8007a90:	7228      	strb	r0, [r5, #8]
 8007a92:	f8de 7018 	ldr.w	r7, [lr, #24]
 8007a96:	f047 077d 	orr.w	r7, r7, #125	; 0x7d
 8007a9a:	f8ce 7018 	str.w	r7, [lr, #24]
  GPIOA->CRH = config->PAData.crh;
 8007a9e:	f10e 4e91 	add.w	lr, lr, #1216348160	; 0x48800000
  GPIOA->ODR = config->PAData.odr;
 8007aa2:	4fb1      	ldr	r7, [pc, #708]	; (8007d68 <main+0x3d8>)
  GPIOA->CRH = config->PAData.crh;
 8007aa4:	f50e 2ece 	add.w	lr, lr, #421888	; 0x67000
 8007aa8:	f50e 6e97 	add.w	lr, lr, #1208	; 0x4b8
  GPIOA->ODR = config->PAData.odr;
 8007aac:	60fb      	str	r3, [r7, #12]
  GPIOA->CRH = config->PAData.crh;
 8007aae:	f8c7 e004 	str.w	lr, [r7, #4]
  GPIOA->CRL = config->PAData.crl;
 8007ab2:	f5ae 5e64 	sub.w	lr, lr, #14592	; 0x3900
 8007ab6:	f1ae 0e30 	sub.w	lr, lr, #48	; 0x30
 8007aba:	f8c7 e000 	str.w	lr, [r7]
  GPIOB->CRH = config->PBData.crh;
 8007abe:	f50e 5e72 	add.w	lr, lr, #15488	; 0x3c80
 8007ac2:	f10e 0e30 	add.w	lr, lr, #48	; 0x30
  GPIOB->ODR = config->PBData.odr;
 8007ac6:	f8c7 340c 	str.w	r3, [r7, #1036]	; 0x40c
  GPIOB->CRH = config->PBData.crh;
 8007aca:	f8c7 e404 	str.w	lr, [r7, #1028]	; 0x404
  GPIOB->CRL = config->PBData.crl;
 8007ace:	f8c7 e400 	str.w	lr, [r7, #1024]	; 0x400
  GPIOC->ODR = config->PCData.odr;
 8007ad2:	f8df e2f0 	ldr.w	lr, [pc, #752]	; 8007dc4 <main+0x434>
  GPIOC->CRH = config->PCData.crh;
 8007ad6:	4fa5      	ldr	r7, [pc, #660]	; (8007d6c <main+0x3dc>)
  GPIOC->ODR = config->PCData.odr;
 8007ad8:	f8ce 300c 	str.w	r3, [lr, #12]
  GPIOC->CRH = config->PCData.crh;
 8007adc:	f8ce 7004 	str.w	r7, [lr, #4]
  GPIOC->CRL = config->PCData.crl;
 8007ae0:	f8ce 2000 	str.w	r2, [lr]
  GPIOD->ODR = config->PDData.odr;
 8007ae4:	4fa2      	ldr	r7, [pc, #648]	; (8007d70 <main+0x3e0>)
  GPIOD->CRH = config->PDData.crh;
  GPIOD->CRL = config->PDData.crl;
 8007ae6:	f8df e2e0 	ldr.w	lr, [pc, #736]	; 8007dc8 <main+0x438>
  GPIOD->ODR = config->PDData.odr;
 8007aea:	60fb      	str	r3, [r7, #12]
  GPIOD->CRH = config->PDData.crh;
 8007aec:	607a      	str	r2, [r7, #4]
  GPIOD->CRL = config->PDData.crl;
 8007aee:	f8c7 e000 	str.w	lr, [r7]
#if STM32_HAS_GPIOE || defined(__DOXYGEN__)
  GPIOE->ODR = config->PEData.odr;
 8007af2:	f8c7 340c 	str.w	r3, [r7, #1036]	; 0x40c
  sdp->vmt = &vmt;
 8007af6:	4b9f      	ldr	r3, [pc, #636]	; (8007d74 <main+0x3e4>)
  GPIOE->CRH = config->PEData.crh;
 8007af8:	f8c7 2404 	str.w	r2, [r7, #1028]	; 0x404
  GPIOE->CRL = config->PEData.crl;
 8007afc:	f8c7 2400 	str.w	r2, [r7, #1024]	; 0x400
 8007b00:	f846 3b04 	str.w	r3, [r6], #4

#if STM32_I2C_USE_I2C1
  i2cObjectInit(&I2CD1);
  I2CD1.thread = NULL;
  I2CD1.i2c    = I2C1;
  I2CD1.dmarx  = STM32_DMA_STREAM(STM32_I2C_I2C1_RX_DMA_STREAM);
 8007b04:	4a9c      	ldr	r2, [pc, #624]	; (8007d78 <main+0x3e8>)
 8007b06:	4b9d      	ldr	r3, [pc, #628]	; (8007d7c <main+0x3ec>)
  esp->next = (event_listener_t *)esp;
 8007b08:	606e      	str	r6, [r5, #4]
 8007b0a:	62da      	str	r2, [r3, #44]	; 0x2c
  I2CD1.i2c    = I2C1;
 8007b0c:	4e9c      	ldr	r6, [pc, #624]	; (8007d80 <main+0x3f0>)
  I2CD1.dmatx  = STM32_DMA_STREAM(STM32_I2C_I2C1_TX_DMA_STREAM);
 8007b0e:	3a14      	subs	r2, #20
 8007b10:	631a      	str	r2, [r3, #48]	; 0x30
  tqp->next = (thread_t *)tqp;
 8007b12:	f103 020c 	add.w	r2, r3, #12
  I2CD1.i2c    = I2C1;
 8007b16:	635e      	str	r6, [r3, #52]	; 0x34
  tqp->prev = (thread_t *)tqp;
 8007b18:	e9c3 2203 	strd	r2, r2, [r3, #12]
  i2cp->config = NULL;
 8007b1c:	6059      	str	r1, [r3, #4]
  mp->owner = NULL;
 8007b1e:	6159      	str	r1, [r3, #20]
  I2CD1.thread = NULL;
 8007b20:	61d9      	str	r1, [r3, #28]
  i2cp->state  = I2C_STOP;
 8007b22:	7018      	strb	r0, [r3, #0]
  tqp->next = (thread_t *)tqp;
 8007b24:	f105 030c 	add.w	r3, r5, #12
  iqp->q_buffer  = bp;
 8007b28:	f105 0254 	add.w	r2, r5, #84	; 0x54
  tqp->prev = (thread_t *)tqp;
 8007b2c:	e9c5 3303 	strd	r3, r3, [r5, #12]
  oqp->q_notify  = onfy;
 8007b30:	4e94      	ldr	r6, [pc, #592]	; (8007d84 <main+0x3f4>)
  oqp->q_top     = bp + size;
 8007b32:	f505 7315 	add.w	r3, r5, #596	; 0x254
  iqp->q_counter = 0;
 8007b36:	6169      	str	r1, [r5, #20]
  iqp->q_buffer  = bp;
 8007b38:	61aa      	str	r2, [r5, #24]
  oqp->q_top     = bp + size;
 8007b3a:	642b      	str	r3, [r5, #64]	; 0x40
 */
void sd_lld_init(void) {

#if STM32_SERIAL_USE_USART1
  sdObjectInit(&SD1, NULL, notify1);
  SD1.usart = USART1;
 8007b3c:	4b92      	ldr	r3, [pc, #584]	; (8007d88 <main+0x3f8>)
  oqp->q_notify  = onfy;
 8007b3e:	64ee      	str	r6, [r5, #76]	; 0x4c
  iqp->q_link    = link;
 8007b40:	e9c5 150a 	strd	r1, r5, [r5, #40]	; 0x28
  usbp->state        = USB_STOP;
 8007b44:	4e91      	ldr	r6, [pc, #580]	; (8007d8c <main+0x3fc>)
  iqp->q_wrptr   = bp;
 8007b46:	e9c5 2208 	strd	r2, r2, [r5, #32]
 8007b4a:	f8c5 3254 	str.w	r3, [r5, #596]	; 0x254
  tqp->next = (thread_t *)tqp;
 8007b4e:	f105 0230 	add.w	r2, r5, #48	; 0x30
  iqp->q_top     = bp + size;
 8007b52:	f505 73aa 	add.w	r3, r5, #340	; 0x154
 8007b56:	61eb      	str	r3, [r5, #28]
  oqp->q_buffer  = bp;
 8007b58:	63eb      	str	r3, [r5, #60]	; 0x3c
  oqp->q_wrptr   = bp;
 8007b5a:	e9c5 3311 	strd	r3, r3, [r5, #68]	; 0x44
  tqp->prev = (thread_t *)tqp;
 8007b5e:	e9c5 220c 	strd	r2, r2, [r5, #48]	; 0x30
  oqp->q_link    = link;
 8007b62:	652d      	str	r5, [r5, #80]	; 0x50
  oqp->q_counter = size;
 8007b64:	f8c5 c038 	str.w	ip, [r5, #56]	; 0x38
 8007b68:	7030      	strb	r0, [r6, #0]
  usbp->config       = NULL;
 8007b6a:	6071      	str	r1, [r6, #4]
 8007b6c:	f106 032c 	add.w	r3, r6, #44	; 0x2c
 8007b70:	f106 0248 	add.w	r2, r6, #72	; 0x48
    usbp->in_params[i]  = NULL;
 8007b74:	f843 4b04 	str.w	r4, [r3], #4
  for (i = 0; i < (unsigned)USB_MAX_ENDPOINTS; i++) {
 8007b78:	429a      	cmp	r2, r3
    usbp->out_params[i] = NULL;
 8007b7a:	619c      	str	r4, [r3, #24]
  for (i = 0; i < (unsigned)USB_MAX_ENDPOINTS; i++) {
 8007b7c:	d1fa      	bne.n	8007b74 <main+0x1e4>
  STM32_ST_TIM->ARR    = ST_ARR_INIT;
  STM32_ST_TIM->CCMR1  = 0;
  STM32_ST_TIM->CCR[0] = 0;
  STM32_ST_TIM->DIER   = 0;
  STM32_ST_TIM->CR2    = 0;
  STM32_ST_TIM->EGR    = TIM_EGR_UG;
 8007b7e:	2701      	movs	r7, #1
  ST_ENABLE_CLOCK();
 8007b80:	f8df 823c 	ldr.w	r8, [pc, #572]	; 8007dc0 <main+0x430>
  ST_ENABLE_STOP();
 8007b84:	f8df e244 	ldr.w	lr, [pc, #580]	; 8007dcc <main+0x43c>
  ST_ENABLE_CLOCK();
 8007b88:	f8d8 101c 	ldr.w	r1, [r8, #28]
  usbp->transmitting = 0;
 8007b8c:	60b4      	str	r4, [r6, #8]
 8007b8e:	4339      	orrs	r1, r7
 8007b90:	f8c8 101c 	str.w	r1, [r8, #28]
  ST_ENABLE_STOP();
 8007b94:	f8de 1004 	ldr.w	r1, [lr, #4]
  STM32_ST_TIM->PSC    = (ST_CLOCK_SRC / OSAL_ST_FREQUENCY) - 1;
 8007b98:	f04f 4380 	mov.w	r3, #1073741824	; 0x40000000
  ST_ENABLE_STOP();
 8007b9c:	f441 6100 	orr.w	r1, r1, #2048	; 0x800
 8007ba0:	f8ce 1004 	str.w	r1, [lr, #4]
  STM32_ST_TIM->PSC    = (ST_CLOCK_SRC / OSAL_ST_FREQUENCY) - 1;
 8007ba4:	f648 419f 	movw	r1, #35999	; 0x8c9f
  STM32_ST_TIM->ARR    = ST_ARR_INIT;
 8007ba8:	f64f 7aff 	movw	sl, #65535	; 0xffff
  ch.vtlist.delta = (sysinterval_t)-1;
 8007bac:	f04f 30ff 	mov.w	r0, #4294967295	; 0xffffffff
  NVIC->IP[n] = NVIC_PRIORITY_MASK(prio);
 8007bb0:	2280      	movs	r2, #128	; 0x80
  NVIC->ICPR[n >> 5U] = 1U << (n & 0x1FU);
 8007bb2:	f04f 5c80 	mov.w	ip, #268435456	; 0x10000000
  {
    NVIC->IP[((uint32_t)(int32_t)IRQn)]               = (uint8_t)((priority << (8U - __NVIC_PRIO_BITS)) & (uint32_t)0xFFUL);
  }
  else
  {
    SCB->SHP[(((uint32_t)(int32_t)IRQn) & 0xFUL)-4UL] = (uint8_t)((priority << (8U - __NVIC_PRIO_BITS)) & (uint32_t)0xFFUL);
 8007bb6:	f04f 0b10 	mov.w	fp, #16
  STM32_ST_TIM->PSC    = (ST_CLOCK_SRC / OSAL_ST_FREQUENCY) - 1;
 8007bba:	6299      	str	r1, [r3, #40]	; 0x28
  default_heap.provider = chCoreAllocAlignedWithOffset;
 8007bbc:	f8df e210 	ldr.w	lr, [pc, #528]	; 8007dd0 <main+0x440>
  tqp->next = (thread_t *)tqp;
 8007bc0:	4973      	ldr	r1, [pc, #460]	; (8007d90 <main+0x400>)
  STM32_ST_TIM->ARR    = ST_ARR_INIT;
 8007bc2:	f8c3 a02c 	str.w	sl, [r3, #44]	; 0x2c
  STM32_ST_TIM->CCMR1  = 0;
 8007bc6:	619c      	str	r4, [r3, #24]
  NVIC->IP[n] = NVIC_PRIORITY_MASK(prio);
 8007bc8:	f8df a190 	ldr.w	sl, [pc, #400]	; 8007d5c <main+0x3cc>
  tqp->prev = (thread_t *)tqp;
 8007bcc:	6049      	str	r1, [r1, #4]
  STM32_ST_TIM->CCR[0] = 0;
 8007bce:	635c      	str	r4, [r3, #52]	; 0x34
  ch.rlist.prio = NOPRIO;
 8007bd0:	608c      	str	r4, [r1, #8]
  STM32_ST_TIM->DIER   = 0;
 8007bd2:	60dc      	str	r4, [r3, #12]
  ch.vtlist.lasttime = (systime_t)0;
 8007bd4:	850c      	strh	r4, [r1, #40]	; 0x28
  STM32_ST_TIM->CR2    = 0;
 8007bd6:	605c      	str	r4, [r3, #4]
  ch.vtlist.delta = (sysinterval_t)-1;
 8007bd8:	6248      	str	r0, [r1, #36]	; 0x24
  STM32_ST_TIM->EGR    = TIM_EGR_UG;
 8007bda:	615f      	str	r7, [r3, #20]
  H_NEXT(&default_heap.header) = NULL;
 8007bdc:	f8ce 4004 	str.w	r4, [lr, #4]
  STM32_ST_TIM->CR1    = TIM_CR1_CEN;
 8007be0:	601f      	str	r7, [r3, #0]
  default_heap.provider = chCoreAllocAlignedWithOffset;
 8007be2:	4b6c      	ldr	r3, [pc, #432]	; (8007d94 <main+0x404>)
  H_PAGES(&default_heap.header) = 0;
 8007be4:	f8ce 4008 	str.w	r4, [lr, #8]
 8007be8:	f88a 231c 	strb.w	r2, [sl, #796]	; 0x31c
 8007bec:	f8ce 4014 	str.w	r4, [lr, #20]
  NVIC->ICPR[n >> 5U] = 1U << (n & 0x1FU);
 8007bf0:	f8ca c180 	str.w	ip, [sl, #384]	; 0x180
  NVIC->ISER[n >> 5U] = 1U << (n & 0x1FU);
 8007bf4:	f8ca c000 	str.w	ip, [sl]
  default_heap.provider = chCoreAllocAlignedWithOffset;
 8007bf8:	f8ce 3000 	str.w	r3, [lr]
  ch.vtlist.next = (virtual_timer_t *)&ch.vtlist;
 8007bfc:	f101 0c1c 	add.w	ip, r1, #28
  tqp->next = (thread_t *)tqp;
 8007c00:	f10e 030c 	add.w	r3, lr, #12
  tqp->prev = (thread_t *)tqp;
 8007c04:	e9ce 3303 	strd	r3, r3, [lr, #12]
  ch.vtlist.prev = (virtual_timer_t *)&ch.vtlist;
 8007c08:	e9c1 cc07 	strd	ip, ip, [r1, #28]
  ch_memcore.nextmem = __heap_base__;
 8007c0c:	4b62      	ldr	r3, [pc, #392]	; (8007d98 <main+0x408>)
 8007c0e:	f8df c1c4 	ldr.w	ip, [pc, #452]	; 8007dd4 <main+0x444>
  tqp->next = (thread_t *)tqp;
 8007c12:	6009      	str	r1, [r1, #0]
 8007c14:	f8c3 c000 	str.w	ip, [r3]
  ch_memcore.endmem  = __heap_end__;
 8007c18:	f8df c1bc 	ldr.w	ip, [pc, #444]	; 8007dd8 <main+0x448>
  mp->object_size = size;
 8007c1c:	201c      	movs	r0, #28
 8007c1e:	f8c3 c004 	str.w	ip, [r3, #4]
 8007c22:	4b5e      	ldr	r3, [pc, #376]	; (8007d9c <main+0x40c>)
  reg_value &= ~((uint32_t)(SCB_AIRCR_VECTKEY_Msk | SCB_AIRCR_PRIGROUP_Msk)); /* clear bits to change               */
 8007c24:	f64f 0eff 	movw	lr, #63743	; 0xf8ff
  tqp->prev = (thread_t *)tqp;
 8007c28:	e9c3 3300 	strd	r3, r3, [r3]
  tp->prio      = prio;
 8007c2c:	638a      	str	r2, [r1, #56]	; 0x38
  tp->realprio  = prio;
 8007c2e:	66ca      	str	r2, [r1, #108]	; 0x6c
  tp->name      = name;
 8007c30:	4a5b      	ldr	r2, [pc, #364]	; (8007da0 <main+0x410>)
  tp->epending  = (eventmask_t)0;
 8007c32:	e9c1 4419 	strd	r4, r4, [r1, #100]	; 0x64
  tp->name      = name;
 8007c36:	648a      	str	r2, [r1, #72]	; 0x48
  dlp->next = (dyn_element_t *)dlp;
 8007c38:	eb03 020b 	add.w	r2, r3, fp
 8007c3c:	611a      	str	r2, [r3, #16]
 8007c3e:	2214      	movs	r2, #20
  reg_value  =  SCB->AIRCR;                                                   /* read old register configuration    */
 8007c40:	f8df c198 	ldr.w	ip, [pc, #408]	; 8007ddc <main+0x44c>
 8007c44:	619a      	str	r2, [r3, #24]
 8007c46:	f103 0224 	add.w	r2, r3, #36	; 0x24
  currp->wabase = NULL;
 8007c4a:	64cc      	str	r4, [r1, #76]	; 0x4c
 8007c4c:	f8a1 7050 	strh.w	r7, [r1, #80]	; 0x50
  tp->flags     = CH_FLAG_MODE_STATIC;
 8007c50:	f881 7052 	strb.w	r7, [r1, #82]	; 0x52
 8007c54:	625a      	str	r2, [r3, #36]	; 0x24
 8007c56:	f103 0228 	add.w	r2, r3, #40	; 0x28
 8007c5a:	629a      	str	r2, [r3, #40]	; 0x28
 8007c5c:	f8dc 200c 	ldr.w	r2, [ip, #12]
 8007c60:	6318      	str	r0, [r3, #48]	; 0x30
  mp->align = align;
 8007c62:	2004      	movs	r0, #4
    SCB->SHP[(((uint32_t)(int32_t)IRQn) & 0xFUL)-4UL] = (uint8_t)((priority << (8U - __NVIC_PRIO_BITS)) & (uint32_t)0xFFUL);
 8007c64:	f04f 0920 	mov.w	r9, #32
  reg_value &= ~((uint32_t)(SCB_AIRCR_VECTKEY_Msk | SCB_AIRCR_PRIGROUP_Msk)); /* clear bits to change               */
 8007c68:	ea02 0e0e 	and.w	lr, r2, lr
 8007c6c:	f103 023c 	add.w	r2, r3, #60	; 0x3c
 8007c70:	63da      	str	r2, [r3, #60]	; 0x3c
 8007c72:	f103 0240 	add.w	r2, r3, #64	; 0x40
 8007c76:	641a      	str	r2, [r3, #64]	; 0x40
  tlp->next = (thread_t *)tlp;
 8007c78:	f101 0258 	add.w	r2, r1, #88	; 0x58
 8007c7c:	658a      	str	r2, [r1, #88]	; 0x58
  reg_value  =  (reg_value                                   |
 8007c7e:	4a49      	ldr	r2, [pc, #292]	; (8007da4 <main+0x414>)
 8007c80:	609c      	str	r4, [r3, #8]
 8007c82:	ea4e 0202 	orr.w	r2, lr, r2
  mp->next = NULL;
 8007c86:	615c      	str	r4, [r3, #20]
 8007c88:	62dc      	str	r4, [r3, #44]	; 0x2c
  mp->align = align;
 8007c8a:	61d8      	str	r0, [r3, #28]
  REG_INSERT(tp);
 8007c8c:	e9c1 1110 	strd	r1, r1, [r1, #64]	; 0x40
  SCB->AIRCR =  reg_value;
 8007c90:	f8cc 200c 	str.w	r2, [ip, #12]
  mp->provider = provider;
 8007c94:	4a44      	ldr	r2, [pc, #272]	; (8007da8 <main+0x418>)
  mp->align = align;
 8007c96:	6358      	str	r0, [r3, #52]	; 0x34
  mp->provider = provider;
 8007c98:	621a      	str	r2, [r3, #32]

  /* Initializing priority grouping.*/
  NVIC_SetPriorityGrouping(CORTEX_PRIGROUP_INIT);

  /* DWT cycle counter enable, note, the M7 requires DWT unlocking.*/
  CoreDebug->DEMCR |= CoreDebug_DEMCR_TRCENA_Msk;
 8007c9a:	4844      	ldr	r0, [pc, #272]	; (8007dac <main+0x41c>)
 8007c9c:	639a      	str	r2, [r3, #56]	; 0x38
 8007c9e:	f101 0330 	add.w	r3, r1, #48	; 0x30
 8007ca2:	e9c1 3304 	strd	r3, r3, [r1, #16]
  currp = _thread_init(&ch.mainthread, (const char *)&ch_debug, NORMALPRIO);
 8007ca6:	618b      	str	r3, [r1, #24]
  tqp->next = (thread_t *)tqp;
 8007ca8:	f101 035c 	add.w	r3, r1, #92	; 0x5c
  tqp->prev = (thread_t *)tqp;
 8007cac:	e9c1 3317 	strd	r3, r3, [r1, #92]	; 0x5c
 8007cb0:	68c3      	ldr	r3, [r0, #12]
#if CORTEX_MODEL == 7
  DWT->LAR = 0xC5ACCE55U;
#endif
  DWT->CTRL |= DWT_CTRL_CYCCNTENA_Msk;
 8007cb2:	4a3f      	ldr	r2, [pc, #252]	; (8007db0 <main+0x420>)
  CoreDebug->DEMCR |= CoreDebug_DEMCR_TRCENA_Msk;
 8007cb4:	f043 7380 	orr.w	r3, r3, #16777216	; 0x1000000
 8007cb8:	60c3      	str	r3, [r0, #12]
  DWT->CTRL |= DWT_CTRL_CYCCNTENA_Msk;
 8007cba:	6813      	ldr	r3, [r2, #0]
 8007cbc:	433b      	orrs	r3, r7
 8007cbe:	6013      	str	r3, [r2, #0]
    SCB->SHP[(((uint32_t)(int32_t)IRQn) & 0xFUL)-4UL] = (uint8_t)((priority << (8U - __NVIC_PRIO_BITS)) & (uint32_t)0xFFUL);
 8007cc0:	f88c b01f 	strb.w	fp, [ip, #31]
 8007cc4:	f88c 9022 	strb.w	r9, [ip, #34]	; 0x22
 8007cc8:	f384 8811 	msr	BASEPRI, r4
  __ASM volatile ("cpsie i" : : : "memory");
 8007ccc:	b662      	cpsie	i
  __ASM volatile ("MSR basepri, %0" : : "r" (basePri) : "memory");
 8007cce:	f389 8811 	msr	BASEPRI, r9
  tp = chThdCreateSuspendedI(tdp);
 8007cd2:	4838      	ldr	r0, [pc, #224]	; (8007db4 <main+0x424>)
 8007cd4:	f7f9 fe74 	bl	80019c0 <chThdCreateSuspendedI>
  chSchWakeupS(tp, MSG_OK);
 8007cd8:	2100      	movs	r1, #0
 8007cda:	f7fb f901 	bl	8002ee0 <chSchWakeupS>
 8007cde:	f384 8811 	msr	BASEPRI, r4
  sdup->vmt = &vmt;
 8007ce2:	f8df b0fc 	ldr.w	fp, [pc, #252]	; 8007de0 <main+0x450>
  ibqp->bn        = n;
 8007ce6:	2302      	movs	r3, #2
 8007ce8:	465a      	mov	r2, fp
  ibqp->bsize     = size + sizeof (size_t);
 8007cea:	f44f 7082 	mov.w	r0, #260	; 0x104
 8007cee:	4932      	ldr	r1, [pc, #200]	; (8007db8 <main+0x428>)
  sdup->state = SDU_STOP;
 8007cf0:	f88b 7008 	strb.w	r7, [fp, #8]
  sdup->vmt = &vmt;
 8007cf4:	f842 1b04 	str.w	r1, [r2], #4
  ibqp->suspended = suspended;
 8007cf8:	f88b 7014 	strb.w	r7, [fp, #20]
  obqp->suspended = suspended;
 8007cfc:	f88b 704c 	strb.w	r7, [fp, #76]	; 0x4c
  obqp->notify    = onfy;
 8007d00:	492e      	ldr	r1, [pc, #184]	; (8007dbc <main+0x42c>)
  obqp->btop      = bp + ((size + sizeof (size_t)) * n);
 8007d02:	f20b 478c 	addw	r7, fp, #1164	; 0x48c
  ibqp->notify    = infy;
 8007d06:	f8df c0dc 	ldr.w	ip, [pc, #220]	; 8007de4 <main+0x454>
  obqp->btop      = bp + ((size + sizeof (size_t)) * n);
 8007d0a:	f8cb 705c 	str.w	r7, [fp, #92]	; 0x5c
  tqp->next = (thread_t *)tqp;
 8007d0e:	f10b 070c 	add.w	r7, fp, #12
  obqp->notify    = onfy;
 8007d12:	f8cb 1074 	str.w	r1, [fp, #116]	; 0x74
 8007d16:	f8cb 2004 	str.w	r2, [fp, #4]
  ibqp->brdptr    = bp;
 8007d1a:	f10b 017c 	add.w	r1, fp, #124	; 0x7c
  ibqp->btop      = bp + ((size + sizeof (size_t)) * n);
 8007d1e:	f50b 7221 	add.w	r2, fp, #644	; 0x284
  tqp->prev = (thread_t *)tqp;
 8007d22:	e9cb 7703 	strd	r7, r7, [fp, #12]
  tqp->next = (thread_t *)tqp;
 8007d26:	f10b 0744 	add.w	r7, fp, #68	; 0x44
  ibqp->bcounter  = 0;
 8007d2a:	f8cb 4018 	str.w	r4, [fp, #24]
  ibqp->top       = NULL;
 8007d2e:	e9cb 440d 	strd	r4, r4, [fp, #52]	; 0x34
  obqp->top       = NULL;
 8007d32:	e9cb 441b 	strd	r4, r4, [fp, #108]	; 0x6c
  ibqp->link      = link;
 8007d36:	f8cb b040 	str.w	fp, [fp, #64]	; 0x40
  obqp->link      = link;
 8007d3a:	f8cb b078 	str.w	fp, [fp, #120]	; 0x78
  ibqp->notify    = infy;
 8007d3e:	f8cb c03c 	str.w	ip, [fp, #60]	; 0x3c
  ibqp->bwrptr    = bp;
 8007d42:	e9cb 1107 	strd	r1, r1, [fp, #28]
  ibqp->buffers   = bp;
 8007d46:	f8cb 1030 	str.w	r1, [fp, #48]	; 0x30
  ibqp->btop      = bp + ((size + sizeof (size_t)) * n);
 8007d4a:	f8cb 2024 	str.w	r2, [fp, #36]	; 0x24
  obqp->bwrptr    = bp;
 8007d4e:	e9cb 2215 	strd	r2, r2, [fp, #84]	; 0x54
  obqp->buffers   = bp;
 8007d52:	f8cb 2068 	str.w	r2, [fp, #104]	; 0x68
 8007d56:	e047      	b.n	8007de8 <main+0x458>
 8007d58:	40020000 	.word	0x40020000
 8007d5c:	e000e100 	.word	0xe000e100
 8007d60:	20001198 	.word	0x20001198
 8007d64:	200008d8 	.word	0x200008d8
 8007d68:	40010800 	.word	0x40010800
 8007d6c:	88688888 	.word	0x88688888
 8007d70:	40011400 	.word	0x40011400
 8007d74:	0800c668 	.word	0x0800c668
 8007d78:	08009f90 	.word	0x08009f90
 8007d7c:	200008a0 	.word	0x200008a0
 8007d80:	40005400 	.word	0x40005400
 8007d84:	08000601 	.word	0x08000601
 8007d88:	40013800 	.word	0x40013800
 8007d8c:	20000fc4 	.word	0x20000fc4
 8007d90:	200012d0 	.word	0x200012d0
 8007d94:	080005b1 	.word	0x080005b1
 8007d98:	20001460 	.word	0x20001460
 8007d9c:	20001344 	.word	0x20001344
 8007da0:	08009fec 	.word	0x08009fec
 8007da4:	05fa0300 	.word	0x05fa0300
 8007da8:	080016f1 	.word	0x080016f1
 8007dac:	e000edf0 	.word	0xe000edf0
 8007db0:	e0001000 	.word	0xe0001000
 8007db4:	0800a348 	.word	0x0800a348
 8007db8:	0800c68c 	.word	0x0800c68c
 8007dbc:	080015b1 	.word	0x080015b1
 8007dc0:	40021000 	.word	0x40021000
 8007dc4:	40011000 	.word	0x40011000
 8007dc8:	88888844 	.word	0x88888844
 8007dcc:	e0042000 	.word	0xe0042000
 8007dd0:	20001468 	.word	0x20001468
 8007dd4:	20001cb8 	.word	0x20001cb8
 8007dd8:	20005000 	.word	0x20005000
 8007ddc:	e000ed00 	.word	0xe000ed00
 8007de0:	20000b34 	.word	0x20000b34
 8007de4:	08001581 	.word	0x08001581
  tqp->prev = (thread_t *)tqp;
 8007de8:	e9cb 7711 	strd	r7, r7, [fp, #68]	; 0x44
  ibqp->bsize     = size + sizeof (size_t);
 8007dec:	f8cb 0028 	str.w	r0, [fp, #40]	; 0x28
  obqp->bsize     = size + sizeof (size_t);
 8007df0:	f8cb 0060 	str.w	r0, [fp, #96]	; 0x60
  ibqp->bn        = n;
 8007df4:	f8cb 302c 	str.w	r3, [fp, #44]	; 0x2c
  obqp->bcounter  = n;
 8007df8:	f8cb 3050 	str.w	r3, [fp, #80]	; 0x50
  obqp->bn        = n;
 8007dfc:	f8cb 3064 	str.w	r3, [fp, #100]	; 0x64
 8007e00:	f389 8811 	msr	BASEPRI, r9
  sdup->config = config;
 8007e04:	4a59      	ldr	r2, [pc, #356]	; (8007f6c <main+0x5dc>)
  usbp->in_params[config->bulk_in - 1U]   = sdup;
 8007e06:	f8c6 b02c 	str.w	fp, [r6, #44]	; 0x2c
  usbp->out_params[config->bulk_out - 1U] = sdup;
 8007e0a:	f8c6 b048 	str.w	fp, [r6, #72]	; 0x48
    usbp->in_params[config->int_in - 1U]  = sdup;
 8007e0e:	f8c6 b030 	str.w	fp, [r6, #48]	; 0x30
  sdup->state = SDU_READY;
 8007e12:	f88b 3008 	strb.w	r3, [fp, #8]
  sdup->config = config;
 8007e16:	f8cb 248c 	str.w	r2, [fp, #1164]	; 0x48c
 8007e1a:	f384 8811 	msr	BASEPRI, r4
	/*
	 * Activates the USB driver and then the USB bus pull-up on D+.
	 * Note, a delay is inserted in order to not have to disconnect the cable
	 * after a reset.
	 */
	usbDisconnectBus(serusbcfg.usbp);
 8007e1e:	f44f 7200 	mov.w	r2, #512	; 0x200
 8007e22:	4b53      	ldr	r3, [pc, #332]	; (8007f70 <main+0x5e0>)
	chThdSleepMilliseconds(1500);
 8007e24:	f640 30b8 	movw	r0, #3000	; 0xbb8
	usbDisconnectBus(serusbcfg.usbp);
 8007e28:	611a      	str	r2, [r3, #16]
	chThdSleepMilliseconds(1500);
 8007e2a:	f7fb fe91 	bl	8003b50 <chThdSleep>
 8007e2e:	f389 8811 	msr	BASEPRI, r9
  if (usbp->state == USB_STOP) {
 8007e32:	7830      	ldrb	r0, [r6, #0]
  usbp->config = config;
 8007e34:	4b4f      	ldr	r3, [pc, #316]	; (8007f74 <main+0x5e4>)
 8007e36:	2801      	cmp	r0, #1
    usbp->epc[i] = NULL;
 8007e38:	e9c6 4403 	strd	r4, r4, [r6, #12]
 8007e3c:	e9c6 4405 	strd	r4, r4, [r6, #20]
 8007e40:	e9c6 4407 	strd	r4, r4, [r6, #28]
 8007e44:	e9c6 4409 	strd	r4, r4, [r6, #36]	; 0x24
  usbp->config = config;
 8007e48:	6073      	str	r3, [r6, #4]
 8007e4a:	d06f      	beq.n	8007f2c <main+0x59c>
  usbp->state = USB_READY;
 8007e4c:	2202      	movs	r2, #2
 8007e4e:	2300      	movs	r3, #0
 8007e50:	7032      	strb	r2, [r6, #0]
 8007e52:	f383 8811 	msr	BASEPRI, r3
	usbStart(serusbcfg.usbp, &usbcfg);
	usbConnectBus(serusbcfg.usbp);
 8007e56:	f44f 7100 	mov.w	r1, #512	; 0x200
 8007e5a:	4b45      	ldr	r3, [pc, #276]	; (8007f70 <main+0x5e0>)
 8007e5c:	2220      	movs	r2, #32
 8007e5e:	6159      	str	r1, [r3, #20]
 8007e60:	f382 8811 	msr	BASEPRI, r2
void sd_lld_start(SerialDriver *sdp, const SerialConfig *config) {

  if (config == NULL)
    config = &default_config;

  if (sdp->state == SD_STOP) {
 8007e64:	7a2b      	ldrb	r3, [r5, #8]
 8007e66:	2b01      	cmp	r3, #1
 8007e68:	d053      	beq.n	8007f12 <main+0x582>
 8007e6a:	4943      	ldr	r1, [pc, #268]	; (8007f78 <main+0x5e8>)
 8007e6c:	4a43      	ldr	r2, [pc, #268]	; (8007f7c <main+0x5ec>)
 8007e6e:	680c      	ldr	r4, [r1, #0]
  USART_TypeDef *u = sdp->usart;
 8007e70:	f8d5 3254 	ldr.w	r3, [r5, #596]	; 0x254
 8007e74:	fbb2 f2f4 	udiv	r2, r2, r4
  u->SR = 0;
 8007e78:	2400      	movs	r4, #0
    u->BRR = STM32_PCLK2 / config->speed;
 8007e7a:	609a      	str	r2, [r3, #8]
  u->CR2 = config->cr2 | USART_CR2_LBDIE;
 8007e7c:	88c8      	ldrh	r0, [r1, #6]
  u->CR1 = config->cr1 | USART_CR1_UE | USART_CR1_PEIE |
 8007e7e:	888a      	ldrh	r2, [r1, #4]
  u->CR3 = config->cr3 | USART_CR3_EIE;
 8007e80:	8909      	ldrh	r1, [r1, #8]
  u->CR2 = config->cr2 | USART_CR2_LBDIE;
 8007e82:	f040 0040 	orr.w	r0, r0, #64	; 0x40
  u->CR3 = config->cr3 | USART_CR3_EIE;
 8007e86:	f041 0101 	orr.w	r1, r1, #1
  u->CR2 = config->cr2 | USART_CR2_LBDIE;
 8007e8a:	6118      	str	r0, [r3, #16]
  u->CR3 = config->cr3 | USART_CR3_EIE;
 8007e8c:	6159      	str	r1, [r3, #20]
                         USART_CR1_RXNEIE | USART_CR1_TE |
 8007e8e:	f442 5104 	orr.w	r1, r2, #8448	; 0x2100
 8007e92:	f041 012c 	orr.w	r1, r1, #44	; 0x2c
  if ((config->cr1 & (USART_CR1_M | USART_CR1_PCE)) == USART_CR1_PCE) {
 8007e96:	f402 52a0 	and.w	r2, r2, #5120	; 0x1400
  u->CR1 = config->cr1 | USART_CR1_UE | USART_CR1_PEIE |
 8007e9a:	60d9      	str	r1, [r3, #12]
  if ((config->cr1 & (USART_CR1_M | USART_CR1_PCE)) == USART_CR1_PCE) {
 8007e9c:	f5b2 6f80 	cmp.w	r2, #1024	; 0x400
  u->SR = 0;
 8007ea0:	601c      	str	r4, [r3, #0]
  (void)u->SR;  /* SR reset step 1.*/
 8007ea2:	6819      	ldr	r1, [r3, #0]
  sdp->state = SD_READY;
 8007ea4:	f04f 0202 	mov.w	r2, #2
  (void)u->DR;  /* SR reset step 2.*/
 8007ea8:	685b      	ldr	r3, [r3, #4]
    sdp->rxmask = 0x7F;
 8007eaa:	bf0c      	ite	eq
 8007eac:	237f      	moveq	r3, #127	; 0x7f
    sdp->rxmask = 0xFF;
 8007eae:	23ff      	movne	r3, #255	; 0xff
 8007eb0:	722a      	strb	r2, [r5, #8]
 8007eb2:	f885 3258 	strb.w	r3, [r5, #600]	; 0x258
 8007eb6:	2300      	movs	r3, #0
 8007eb8:	f383 8811 	msr	BASEPRI, r3
 8007ebc:	4c30      	ldr	r4, [pc, #192]	; (8007f80 <main+0x5f0>)
	shellInit();

	/*
	 * Creates the blinker thread.
	 */
	chThdCreateStatic(waThread1, sizeof(waThread1), NORMALPRIO, Thread1, NULL);
 8007ebe:	4a31      	ldr	r2, [pc, #196]	; (8007f84 <main+0x5f4>)
 8007ec0:	2180      	movs	r1, #128	; 0x80
 8007ec2:	4831      	ldr	r0, [pc, #196]	; (8007f88 <main+0x5f8>)
 8007ec4:	6024      	str	r4, [r4, #0]
 8007ec6:	f8df 80e4 	ldr.w	r8, [pc, #228]	; 8007fac <main+0x61c>
 8007eca:	f7fb f839 	bl	8002f40 <chThdCreateStatic.constprop.103>
 8007ece:	4f2f      	ldr	r7, [pc, #188]	; (8007f8c <main+0x5fc>)
	 */
	while (true) {
		if (SDU1.config->usbp->state == USB_ACTIVE) {
			thread_t *shelltp = chThdCreateFromHeap(NULL,
			SHELL_WA_SIZE, "shell",
			NORMALPRIO + 1, shellThread, (void *) &shell_cfg1);
 8007ed0:	4e2f      	ldr	r6, [pc, #188]	; (8007f90 <main+0x600>)
			chThdWait(shelltp); /* Waiting termination.             */
		}
		chThdSleepMilliseconds(300);

		sdWrite(&SD1, (uint8_t * )"Button Pressed!\r\n", 17);
 8007ed2:	4d30      	ldr	r5, [pc, #192]	; (8007f94 <main+0x604>)
 8007ed4:	4c30      	ldr	r4, [pc, #192]	; (8007f98 <main+0x608>)
 8007ed6:	e00a      	b.n	8007eee <main+0x55e>
		chThdSleepMilliseconds(300);
 8007ed8:	f44f 7016 	mov.w	r0, #600	; 0x258
 8007edc:	f7fb fe38 	bl	8003b50 <chThdSleep>
		sdWrite(&SD1, (uint8_t * )"Button Pressed!\r\n", 17);
 8007ee0:	f04f 33ff 	mov.w	r3, #4294967295	; 0xffffffff
 8007ee4:	2211      	movs	r2, #17
 8007ee6:	4629      	mov	r1, r5
 8007ee8:	4620      	mov	r0, r4
 8007eea:	f7fb fad1 	bl	8003490 <oqWriteTimeout>
		if (SDU1.config->usbp->state == USB_ACTIVE) {
 8007eee:	f8db 348c 	ldr.w	r3, [fp, #1164]	; 0x48c
 8007ef2:	681b      	ldr	r3, [r3, #0]
 8007ef4:	781b      	ldrb	r3, [r3, #0]
 8007ef6:	2b04      	cmp	r3, #4
 8007ef8:	d1ee      	bne.n	8007ed8 <main+0x548>
			NORMALPRIO + 1, shellThread, (void *) &shell_cfg1);
 8007efa:	2381      	movs	r3, #129	; 0x81
 8007efc:	4632      	mov	r2, r6
 8007efe:	f640 01c8 	movw	r1, #2248	; 0x8c8
 8007f02:	e9cd 7800 	strd	r7, r8, [sp]
 8007f06:	2000      	movs	r0, #0
 8007f08:	f7fe f9ba 	bl	8006280 <chThdCreateFromHeap>
			chThdWait(shelltp); /* Waiting termination.             */
 8007f0c:	f7ff fd20 	bl	8007950 <chThdWait>
 8007f10:	e7e2      	b.n	8007ed8 <main+0x548>
  NVIC->IP[n] = NVIC_PRIORITY_MASK(prio);
 8007f12:	24c0      	movs	r4, #192	; 0xc0
#if STM32_SERIAL_USE_USART1
    if (&SD1 == sdp) {
      rccEnableUSART1(true);
 8007f14:	4821      	ldr	r0, [pc, #132]	; (8007f9c <main+0x60c>)
 8007f16:	4b22      	ldr	r3, [pc, #136]	; (8007fa0 <main+0x610>)
 8007f18:	6981      	ldr	r1, [r0, #24]
 8007f1a:	f441 4180 	orr.w	r1, r1, #16384	; 0x4000
 8007f1e:	6181      	str	r1, [r0, #24]
 8007f20:	f883 4325 	strb.w	r4, [r3, #805]	; 0x325
  NVIC->ICPR[n >> 5U] = 1U << (n & 0x1FU);
 8007f24:	f8c3 2184 	str.w	r2, [r3, #388]	; 0x184
  NVIC->ISER[n >> 5U] = 1U << (n & 0x1FU);
 8007f28:	605a      	str	r2, [r3, #4]
 8007f2a:	e79e      	b.n	8007e6a <main+0x4da>
  NVIC->ICPR[n >> 5U] = 1U << (n & 0x1FU);
 8007f2c:	f44f 2100 	mov.w	r1, #524288	; 0x80000
 8007f30:	f44f 1280 	mov.w	r2, #1048576	; 0x100000
  NVIC->IP[n] = NVIC_PRIORITY_MASK(prio);
 8007f34:	f04f 0cd0 	mov.w	ip, #208	; 0xd0
 8007f38:	27e0      	movs	r7, #224	; 0xe0
      rccEnableUSB(true);
 8007f3a:	f8d8 301c 	ldr.w	r3, [r8, #28]
 8007f3e:	f443 0300 	orr.w	r3, r3, #8388608	; 0x800000
 8007f42:	f8c8 301c 	str.w	r3, [r8, #28]
      STM32_USB->CNTR = CNTR_FRES;
 8007f46:	4b17      	ldr	r3, [pc, #92]	; (8007fa4 <main+0x614>)
 8007f48:	6418      	str	r0, [r3, #64]	; 0x40
 8007f4a:	f88a c313 	strb.w	ip, [sl, #787]	; 0x313
    usb_lld_reset(usbp);
 8007f4e:	4816      	ldr	r0, [pc, #88]	; (8007fa8 <main+0x618>)
  NVIC->ICPR[n >> 5U] = 1U << (n & 0x1FU);
 8007f50:	f8ca 1180 	str.w	r1, [sl, #384]	; 0x180
  NVIC->ISER[n >> 5U] = 1U << (n & 0x1FU);
 8007f54:	f8ca 1000 	str.w	r1, [sl]
  NVIC->IP[n] = NVIC_PRIORITY_MASK(prio);
 8007f58:	f88a 7314 	strb.w	r7, [sl, #788]	; 0x314
  NVIC->ICPR[n >> 5U] = 1U << (n & 0x1FU);
 8007f5c:	f8ca 2180 	str.w	r2, [sl, #384]	; 0x180
  NVIC->ISER[n >> 5U] = 1U << (n & 0x1FU);
 8007f60:	f8ca 2000 	str.w	r2, [sl]
      STM32_USB->CNTR = 0;
 8007f64:	641c      	str	r4, [r3, #64]	; 0x40
    usb_lld_reset(usbp);
 8007f66:	f7f8 ff4b 	bl	8000e00 <usb_lld_reset>
 8007f6a:	e76f      	b.n	8007e4c <main+0x4bc>
 8007f6c:	0800ba28 	.word	0x0800ba28
 8007f70:	40010c00 	.word	0x40010c00
 8007f74:	0800c564 	.word	0x0800c564
 8007f78:	20000800 	.word	0x20000800
 8007f7c:	02255100 	.word	0x02255100
 8007f80:	20001540 	.word	0x20001540
 8007f84:	08003b71 	.word	0x08003b71
 8007f88:	20001050 	.word	0x20001050
 8007f8c:	08004481 	.word	0x08004481
 8007f90:	0800a360 	.word	0x0800a360
 8007f94:	0800a368 	.word	0x0800a368
 8007f98:	20000908 	.word	0x20000908
 8007f9c:	40021000 	.word	0x40021000
 8007fa0:	e000e100 	.word	0xe000e100
 8007fa4:	40005c00 	.word	0x40005c00
 8007fa8:	20000fc4 	.word	0x20000fc4
 8007fac:	08009f00 	.word	0x08009f00

08007fb0 <cmd_test>:
}

static void cmd_test(BaseSequentialStream *chp, int argc, char *argv[]) {
 8007fb0:	b530      	push	{r4, r5, lr}
  thread_t *tp;
  tfunc_t tfp;

  (void)argv;
  if (argc != 1) {
 8007fb2:	2901      	cmp	r1, #1
static void cmd_test(BaseSequentialStream *chp, int argc, char *argv[]) {
 8007fb4:	b083      	sub	sp, #12
 8007fb6:	4604      	mov	r4, r0
  if (argc != 1) {
 8007fb8:	d11c      	bne.n	8007ff4 <cmd_test+0x44>
    shellUsage(chp, "test rt|oslib");
    return;
  }
  if (!strcmp(argv[0], "rt")) {
 8007fba:	6815      	ldr	r5, [r2, #0]
 8007fbc:	4916      	ldr	r1, [pc, #88]	; (8008018 <cmd_test+0x68>)
 8007fbe:	4628      	mov	r0, r5
 8007fc0:	f7f8 f9c8 	bl	8000354 <strcmp>
 8007fc4:	b1f0      	cbz	r0, 8008004 <cmd_test+0x54>
    tfp = test_rt;
  }
  else if (!strcmp(argv[0], "oslib")) {
 8007fc6:	4628      	mov	r0, r5
 8007fc8:	4914      	ldr	r1, [pc, #80]	; (800801c <cmd_test+0x6c>)
 8007fca:	f7f8 f9c3 	bl	8000354 <strcmp>
 8007fce:	b988      	cbnz	r0, 8007ff4 <cmd_test+0x44>
    tfp = test_oslib;
 8007fd0:	4813      	ldr	r0, [pc, #76]	; (8008020 <cmd_test+0x70>)
  return ch.rlist.current;
 8007fd2:	4b14      	ldr	r3, [pc, #80]	; (8008024 <cmd_test+0x74>)
  }
  else {
    shellUsage(chp, "test rt|oslib");
    return;
  }
  tp = chThdCreateFromHeap(NULL, SHELL_CMD_TEST_WA_SIZE,
 8007fd4:	4a14      	ldr	r2, [pc, #80]	; (8008028 <cmd_test+0x78>)
  return chThdGetSelfX()->prio;
 8007fd6:	699b      	ldr	r3, [r3, #24]
 8007fd8:	f44f 71e4 	mov.w	r1, #456	; 0x1c8
 8007fdc:	689b      	ldr	r3, [r3, #8]
 8007fde:	e9cd 0400 	strd	r0, r4, [sp]
 8007fe2:	2000      	movs	r0, #0
 8007fe4:	f7fe f94c 	bl	8006280 <chThdCreateFromHeap>
                           "test", chThdGetPriorityX(),
                           tfp, chp);
  if (tp == NULL) {
 8007fe8:	b170      	cbz	r0, 8008008 <cmd_test+0x58>
    chprintf(chp, "out of memory"SHELL_NEWLINE_STR);
    return;
  }
  chThdWait(tp);
}
 8007fea:	b003      	add	sp, #12
 8007fec:	e8bd 4030 	ldmia.w	sp!, {r4, r5, lr}
  chThdWait(tp);
 8007ff0:	f7ff bcae 	b.w	8007950 <chThdWait>
    shellUsage(chp, "test rt|oslib");
 8007ff4:	4620      	mov	r0, r4
 8007ff6:	4a0d      	ldr	r2, [pc, #52]	; (800802c <cmd_test+0x7c>)
 8007ff8:	490d      	ldr	r1, [pc, #52]	; (8008030 <cmd_test+0x80>)
}
 8007ffa:	b003      	add	sp, #12
 8007ffc:	e8bd 4030 	ldmia.w	sp!, {r4, r5, lr}
    shellUsage(chp, "test rt|oslib");
 8008000:	f7fa b946 	b.w	8002290 <chprintf>
    tfp = test_rt;
 8008004:	480b      	ldr	r0, [pc, #44]	; (8008034 <cmd_test+0x84>)
 8008006:	e7e4      	b.n	8007fd2 <cmd_test+0x22>
    chprintf(chp, "out of memory"SHELL_NEWLINE_STR);
 8008008:	4620      	mov	r0, r4
 800800a:	490b      	ldr	r1, [pc, #44]	; (8008038 <cmd_test+0x88>)
}
 800800c:	b003      	add	sp, #12
 800800e:	e8bd 4030 	ldmia.w	sp!, {r4, r5, lr}
    chprintf(chp, "out of memory"SHELL_NEWLINE_STR);
 8008012:	f7fa b93d 	b.w	8002290 <chprintf>
 8008016:	bf00      	nop
 8008018:	0800a250 	.word	0x0800a250
 800801c:	0800a248 	.word	0x0800a248
 8008020:	080040b1 	.word	0x080040b1
 8008024:	200012d0 	.word	0x200012d0
 8008028:	0800bfd4 	.word	0x0800bfd4
 800802c:	0800a240 	.word	0x0800a240
 8008030:	0800a22c 	.word	0x0800a22c
 8008034:	080040a1 	.word	0x080040a1
 8008038:	0800a254 	.word	0x0800a254
 800803c:	00000000 	.word	0x00000000

08008040 <rt_test_010_005_execute>:
  test_set_step(1);
 8008040:	2201      	movs	r2, #1
  return ch.rlist.current;
 8008042:	4b1a      	ldr	r3, [pc, #104]	; (80080ac <rt_test_010_005_execute+0x6c>)
static void rt_test_010_005_execute(void) {
 8008044:	e92d 47f0 	stmdb	sp!, {r4, r5, r6, r7, r8, r9, sl, lr}
  return chThdGetSelfX()->prio;
 8008048:	699b      	ldr	r3, [r3, #24]
  test_set_step(1);
 800804a:	f8df a06c 	ldr.w	sl, [pc, #108]	; 80080b8 <rt_test_010_005_execute+0x78>
  tprio_t prio = chThdGetPriorityX() - 1;
 800804e:	689f      	ldr	r7, [r3, #8]
  test_set_step(1);
 8008050:	f8ca 2000 	str.w	r2, [sl]
    start = test_wait_tick();
 8008054:	f7fb fe1c 	bl	8003c90 <test_wait_tick>
    n = 0;
 8008058:	2400      	movs	r4, #0
    start = test_wait_tick();
 800805a:	4606      	mov	r6, r0
  return systime + (systime_t)interval;
 800805c:	f500 65fa 	add.w	r5, r0, #2000	; 0x7d0
 8008060:	b2ad      	uxth	r5, r5
      chThdWait(chThdCreateStatic(wa[0], WA_SIZE, prio, bmk_thread3, NULL));
 8008062:	f8df 9058 	ldr.w	r9, [pc, #88]	; 80080bc <rt_test_010_005_execute+0x7c>
 8008066:	f8df 8058 	ldr.w	r8, [pc, #88]	; 80080c0 <rt_test_010_005_execute+0x80>
  tprio_t prio = chThdGetPriorityX() - 1;
 800806a:	3f01      	subs	r7, #1
 800806c:	1a2d      	subs	r5, r5, r0
      chThdWait(chThdCreateStatic(wa[0], WA_SIZE, prio, bmk_thread3, NULL));
 800806e:	2300      	movs	r3, #0
 8008070:	464a      	mov	r2, r9
 8008072:	4639      	mov	r1, r7
 8008074:	4640      	mov	r0, r8
 8008076:	f7fa ff63 	bl	8002f40 <chThdCreateStatic.constprop.103>
 800807a:	f7ff fc69 	bl	8007950 <chThdWait>
 800807e:	f04f 4380 	mov.w	r3, #1073741824	; 0x40000000
 8008082:	6a5b      	ldr	r3, [r3, #36]	; 0x24
      n++;
 8008084:	3401      	adds	r4, #1
  return (bool)((time - start) < (end - start));
 8008086:	b29b      	uxth	r3, r3
 8008088:	1b9b      	subs	r3, r3, r6
    } while (chVTIsSystemTimeWithinX(start, end));
 800808a:	42ab      	cmp	r3, r5
 800808c:	dbef      	blt.n	800806e <rt_test_010_005_execute+0x2e>
  test_set_step(2);
 800808e:	2302      	movs	r3, #2
    test_print("--- Score : ");
 8008090:	4807      	ldr	r0, [pc, #28]	; (80080b0 <rt_test_010_005_execute+0x70>)
  test_set_step(2);
 8008092:	f8ca 3000 	str.w	r3, [sl]
    test_print("--- Score : ");
 8008096:	f7f8 fd5b 	bl	8000b50 <test_print>
    test_printn(n);
 800809a:	4620      	mov	r0, r4
 800809c:	f7f8 fce8 	bl	8000a70 <test_printn>
}
 80080a0:	e8bd 47f0 	ldmia.w	sp!, {r4, r5, r6, r7, r8, r9, sl, lr}
    test_println(" threads/S");
 80080a4:	4803      	ldr	r0, [pc, #12]	; (80080b4 <rt_test_010_005_execute+0x74>)
 80080a6:	f7f8 bd33 	b.w	8000b10 <test_println>
 80080aa:	bf00      	nop
 80080ac:	200012d0 	.word	0x200012d0
 80080b0:	0800b7c0 	.word	0x0800b7c0
 80080b4:	0800b764 	.word	0x0800b764
 80080b8:	20001c5c 	.word	0x20001c5c
 80080bc:	08005421 	.word	0x08005421
 80080c0:	20001548 	.word	0x20001548
	...

080080d0 <test_wait_threads>:
void test_wait_threads(void) {
 80080d0:	b570      	push	{r4, r5, r6, lr}
      threads[i] = NULL;
 80080d2:	2600      	movs	r6, #0
 80080d4:	4c06      	ldr	r4, [pc, #24]	; (80080f0 <test_wait_threads+0x20>)
 80080d6:	f104 0514 	add.w	r5, r4, #20
    if (threads[i] != NULL) {
 80080da:	f854 0b04 	ldr.w	r0, [r4], #4
 80080de:	b118      	cbz	r0, 80080e8 <test_wait_threads+0x18>
      chThdWait(threads[i]);
 80080e0:	f7ff fc36 	bl	8007950 <chThdWait>
      threads[i] = NULL;
 80080e4:	f844 6c04 	str.w	r6, [r4, #-4]
  for (i = 0; i < MAX_THREADS; i++)
 80080e8:	42ac      	cmp	r4, r5
 80080ea:	d1f6      	bne.n	80080da <test_wait_threads+0xa>
}
 80080ec:	bd70      	pop	{r4, r5, r6, pc}
 80080ee:	bf00      	nop
 80080f0:	20001c74 	.word	0x20001c74
	...

08008100 <rt_test_010_008_execute>:
  test_set_step(1);
 8008100:	2201      	movs	r2, #1
    n = 0;
 8008102:	2300      	movs	r3, #0
static void rt_test_010_008_execute(void) {
 8008104:	e92d 43f0 	stmdb	sp!, {r4, r5, r6, r7, r8, r9, lr}
  return ch.rlist.current;
 8008108:	f8df 80d0 	ldr.w	r8, [pc, #208]	; 80081dc <rt_test_010_008_execute+0xdc>
 800810c:	b083      	sub	sp, #12
  test_set_step(1);
 800810e:	f8df 90d0 	ldr.w	r9, [pc, #208]	; 80081e0 <rt_test_010_008_execute+0xe0>
    n = 0;
 8008112:	ac02      	add	r4, sp, #8
 8008114:	f844 3d04 	str.w	r3, [r4, #-4]!
  test_set_step(1);
 8008118:	f8c9 2000 	str.w	r2, [r9]
    test_wait_tick();threads[0] = chThdCreateStatic(wa[0], WA_SIZE, chThdGetPriorityX()-1, bmk_thread8, (void *)&n);
 800811c:	f7fb fdb8 	bl	8003c90 <test_wait_tick>
  return chThdGetSelfX()->prio;
 8008120:	f8d8 3018 	ldr.w	r3, [r8, #24]
 8008124:	4f28      	ldr	r7, [pc, #160]	; (80081c8 <rt_test_010_008_execute+0xc8>)
 8008126:	4e29      	ldr	r6, [pc, #164]	; (80081cc <rt_test_010_008_execute+0xcc>)
 8008128:	6899      	ldr	r1, [r3, #8]
 800812a:	463a      	mov	r2, r7
 800812c:	4623      	mov	r3, r4
 800812e:	3901      	subs	r1, #1
 8008130:	4630      	mov	r0, r6
 8008132:	f7fa ff05 	bl	8002f40 <chThdCreateStatic.constprop.103>
 8008136:	f8d8 3018 	ldr.w	r3, [r8, #24]
 800813a:	4d25      	ldr	r5, [pc, #148]	; (80081d0 <rt_test_010_008_execute+0xd0>)
    threads[1] = chThdCreateStatic(wa[1], WA_SIZE, chThdGetPriorityX()-1, bmk_thread8, (void *)&n);
 800813c:	6899      	ldr	r1, [r3, #8]
 800813e:	463a      	mov	r2, r7
    test_wait_tick();threads[0] = chThdCreateStatic(wa[0], WA_SIZE, chThdGetPriorityX()-1, bmk_thread8, (void *)&n);
 8008140:	6028      	str	r0, [r5, #0]
    threads[1] = chThdCreateStatic(wa[1], WA_SIZE, chThdGetPriorityX()-1, bmk_thread8, (void *)&n);
 8008142:	4623      	mov	r3, r4
 8008144:	3901      	subs	r1, #1
 8008146:	f506 70a4 	add.w	r0, r6, #328	; 0x148
 800814a:	f7fa fef9 	bl	8002f40 <chThdCreateStatic.constprop.103>
 800814e:	f8d8 3018 	ldr.w	r3, [r8, #24]
 8008152:	6068      	str	r0, [r5, #4]
    threads[2] = chThdCreateStatic(wa[2], WA_SIZE, chThdGetPriorityX()-1, bmk_thread8, (void *)&n);
 8008154:	6899      	ldr	r1, [r3, #8]
 8008156:	463a      	mov	r2, r7
 8008158:	4623      	mov	r3, r4
 800815a:	3901      	subs	r1, #1
 800815c:	f506 7024 	add.w	r0, r6, #656	; 0x290
 8008160:	f7fa feee 	bl	8002f40 <chThdCreateStatic.constprop.103>
 8008164:	f8d8 3018 	ldr.w	r3, [r8, #24]
 8008168:	60a8      	str	r0, [r5, #8]
    threads[3] = chThdCreateStatic(wa[3], WA_SIZE, chThdGetPriorityX()-1, bmk_thread8, (void *)&n);
 800816a:	6899      	ldr	r1, [r3, #8]
 800816c:	463a      	mov	r2, r7
 800816e:	4623      	mov	r3, r4
 8008170:	3901      	subs	r1, #1
 8008172:	f506 7076 	add.w	r0, r6, #984	; 0x3d8
 8008176:	f7fa fee3 	bl	8002f40 <chThdCreateStatic.constprop.103>
 800817a:	f8d8 3018 	ldr.w	r3, [r8, #24]
    threads[4] = chThdCreateStatic(wa[4], WA_SIZE, chThdGetPriorityX()-1, bmk_thread8, (void *)&n);
 800817e:	463a      	mov	r2, r7
 8008180:	6899      	ldr	r1, [r3, #8]
    threads[3] = chThdCreateStatic(wa[3], WA_SIZE, chThdGetPriorityX()-1, bmk_thread8, (void *)&n);
 8008182:	60e8      	str	r0, [r5, #12]
    threads[4] = chThdCreateStatic(wa[4], WA_SIZE, chThdGetPriorityX()-1, bmk_thread8, (void *)&n);
 8008184:	3901      	subs	r1, #1
 8008186:	4623      	mov	r3, r4
 8008188:	f506 60a4 	add.w	r0, r6, #1312	; 0x520
 800818c:	f7fa fed8 	bl	8002f40 <chThdCreateStatic.constprop.103>
  test_set_step(2);
 8008190:	2302      	movs	r3, #2
    threads[4] = chThdCreateStatic(wa[4], WA_SIZE, chThdGetPriorityX()-1, bmk_thread8, (void *)&n);
 8008192:	6128      	str	r0, [r5, #16]
    chThdSleepSeconds(1);
 8008194:	f44f 60fa 	mov.w	r0, #2000	; 0x7d0
  test_set_step(2);
 8008198:	f8c9 3000 	str.w	r3, [r9]
    chThdSleepSeconds(1);
 800819c:	f7fb fcd8 	bl	8003b50 <chThdSleep>
    test_terminate_threads();
 80081a0:	f7f8 fc16 	bl	80009d0 <test_terminate_threads>
    test_wait_threads();
 80081a4:	f7ff ff94 	bl	80080d0 <test_wait_threads>
  test_set_step(3);
 80081a8:	2303      	movs	r3, #3
    test_print("--- Score : ");
 80081aa:	480a      	ldr	r0, [pc, #40]	; (80081d4 <rt_test_010_008_execute+0xd4>)
  test_set_step(3);
 80081ac:	f8c9 3000 	str.w	r3, [r9]
    test_print("--- Score : ");
 80081b0:	f7f8 fcce 	bl	8000b50 <test_print>
    test_printn(n);
 80081b4:	9801      	ldr	r0, [sp, #4]
 80081b6:	f7f8 fc5b 	bl	8000a70 <test_printn>
    test_println(" ctxswc/S");
 80081ba:	4807      	ldr	r0, [pc, #28]	; (80081d8 <rt_test_010_008_execute+0xd8>)
 80081bc:	f7f8 fca8 	bl	8000b10 <test_println>
}
 80081c0:	b003      	add	sp, #12
 80081c2:	e8bd 83f0 	ldmia.w	sp!, {r4, r5, r6, r7, r8, r9, pc}
 80081c6:	bf00      	nop
 80081c8:	08002eb1 	.word	0x08002eb1
 80081cc:	20001548 	.word	0x20001548
 80081d0:	20001c74 	.word	0x20001c74
 80081d4:	0800b7c0 	.word	0x0800b7c0
 80081d8:	0800b7a4 	.word	0x0800b7a4
 80081dc:	200012d0 	.word	0x200012d0
 80081e0:	20001c5c 	.word	0x20001c5c
	...

080081f0 <rt_test_010_004_execute>:
static void rt_test_010_004_execute(void) {
 80081f0:	e92d 4ff8 	stmdb	sp!, {r3, r4, r5, r6, r7, r8, r9, sl, fp, lr}
  test_set_step(1);
 80081f4:	2401      	movs	r4, #1
  return ch.rlist.current;
 80081f6:	4b2b      	ldr	r3, [pc, #172]	; (80082a4 <rt_test_010_004_execute+0xb4>)
 80081f8:	f8df b0c0 	ldr.w	fp, [pc, #192]	; 80082bc <rt_test_010_004_execute+0xcc>
  return chThdGetSelfX()->prio;
 80081fc:	699a      	ldr	r2, [r3, #24]
    tp = threads[0] = chThdCreateStatic(wa[0], WA_SIZE, chThdGetPriorityX()+1,
 80081fe:	482a      	ldr	r0, [pc, #168]	; (80082a8 <rt_test_010_004_execute+0xb8>)
 8008200:	6891      	ldr	r1, [r2, #8]
 8008202:	2300      	movs	r3, #0
 8008204:	4421      	add	r1, r4
 8008206:	4a29      	ldr	r2, [pc, #164]	; (80082ac <rt_test_010_004_execute+0xbc>)
  test_set_step(1);
 8008208:	f8cb 4000 	str.w	r4, [fp]
    tp = threads[0] = chThdCreateStatic(wa[0], WA_SIZE, chThdGetPriorityX()+1,
 800820c:	f7fa fe98 	bl	8002f40 <chThdCreateStatic.constprop.103>
  test_set_step(2);
 8008210:	2202      	movs	r2, #2
    tp = threads[0] = chThdCreateStatic(wa[0], WA_SIZE, chThdGetPriorityX()+1,
 8008212:	4b27      	ldr	r3, [pc, #156]	; (80082b0 <rt_test_010_004_execute+0xc0>)
 8008214:	4604      	mov	r4, r0
    n = 0;
 8008216:	2500      	movs	r5, #0
  test_set_step(2);
 8008218:	f8cb 2000 	str.w	r2, [fp]
    tp = threads[0] = chThdCreateStatic(wa[0], WA_SIZE, chThdGetPriorityX()+1,
 800821c:	6018      	str	r0, [r3, #0]
    start = test_wait_tick();
 800821e:	f7fb fd37 	bl	8003c90 <test_wait_tick>
      chSchWakeupS(tp, MSG_OK);
 8008222:	46a8      	mov	r8, r5
    start = test_wait_tick();
 8008224:	4607      	mov	r7, r0
 8008226:	f04f 0920 	mov.w	r9, #32
 800822a:	f04f 4a80 	mov.w	sl, #1073741824	; 0x40000000
  return systime + (systime_t)interval;
 800822e:	f500 66fa 	add.w	r6, r0, #2000	; 0x7d0
 8008232:	b2b6      	uxth	r6, r6
 8008234:	1a36      	subs	r6, r6, r0
 8008236:	f389 8811 	msr	BASEPRI, r9
      chSchWakeupS(tp, MSG_OK);
 800823a:	2100      	movs	r1, #0
 800823c:	4620      	mov	r0, r4
 800823e:	f7fa fe4f 	bl	8002ee0 <chSchWakeupS>
      chSchWakeupS(tp, MSG_OK);
 8008242:	4620      	mov	r0, r4
 8008244:	2100      	movs	r1, #0
 8008246:	f7fa fe4b 	bl	8002ee0 <chSchWakeupS>
      chSchWakeupS(tp, MSG_OK);
 800824a:	4620      	mov	r0, r4
 800824c:	2100      	movs	r1, #0
 800824e:	f7fa fe47 	bl	8002ee0 <chSchWakeupS>
      chSchWakeupS(tp, MSG_OK);
 8008252:	4620      	mov	r0, r4
 8008254:	2100      	movs	r1, #0
 8008256:	f7fa fe43 	bl	8002ee0 <chSchWakeupS>
 800825a:	f388 8811 	msr	BASEPRI, r8
 800825e:	f8da 3024 	ldr.w	r3, [sl, #36]	; 0x24
      n += 4;
 8008262:	3504      	adds	r5, #4
  return (bool)((time - start) < (end - start));
 8008264:	b29b      	uxth	r3, r3
 8008266:	1bdb      	subs	r3, r3, r7
    } while (chVTIsSystemTimeWithinX(start, end));
 8008268:	42b3      	cmp	r3, r6
 800826a:	dbe4      	blt.n	8008236 <rt_test_010_004_execute+0x46>
  test_set_step(3);
 800826c:	2303      	movs	r3, #3
 800826e:	f8cb 3000 	str.w	r3, [fp]
 8008272:	f389 8811 	msr	BASEPRI, r9
    chSchWakeupS(tp, MSG_TIMEOUT);
 8008276:	f04f 31ff 	mov.w	r1, #4294967295	; 0xffffffff
 800827a:	4620      	mov	r0, r4
 800827c:	f7fa fe30 	bl	8002ee0 <chSchWakeupS>
 8008280:	f388 8811 	msr	BASEPRI, r8
    test_wait_threads();
 8008284:	f7ff ff24 	bl	80080d0 <test_wait_threads>
  test_set_step(4);
 8008288:	2304      	movs	r3, #4
    test_print("--- Score : ");
 800828a:	480a      	ldr	r0, [pc, #40]	; (80082b4 <rt_test_010_004_execute+0xc4>)
  test_set_step(4);
 800828c:	f8cb 3000 	str.w	r3, [fp]
    test_print("--- Score : ");
 8008290:	f7f8 fc5e 	bl	8000b50 <test_print>
    test_printn(n * 2);
 8008294:	0068      	lsls	r0, r5, #1
 8008296:	f7f8 fbeb 	bl	8000a70 <test_printn>
}
 800829a:	e8bd 4ff8 	ldmia.w	sp!, {r3, r4, r5, r6, r7, r8, r9, sl, fp, lr}
    test_println(" ctxswc/S");
 800829e:	4806      	ldr	r0, [pc, #24]	; (80082b8 <rt_test_010_004_execute+0xc8>)
 80082a0:	f7f8 bc36 	b.w	8000b10 <test_println>
 80082a4:	200012d0 	.word	0x200012d0
 80082a8:	20001548 	.word	0x20001548
 80082ac:	08003181 	.word	0x08003181
 80082b0:	20001c74 	.word	0x20001c74
 80082b4:	0800b7c0 	.word	0x0800b7c0
 80082b8:	0800b7a4 	.word	0x0800b7a4
 80082bc:	20001c5c 	.word	0x20001c5c

080082c0 <rt_test_010_003_execute>:
static void rt_test_010_003_execute(void) {
 80082c0:	e92d 41f0 	stmdb	sp!, {r4, r5, r6, r7, r8, lr}
  test_set_step(1);
 80082c4:	2401      	movs	r4, #1
  return ch.rlist.current;
 80082c6:	4e2b      	ldr	r6, [pc, #172]	; (8008374 <rt_test_010_003_execute+0xb4>)
    threads[0] = chThdCreateStatic(wa[0], WA_SIZE, chThdGetPriorityX()+1, bmk_thread1, NULL);
 80082c8:	4d2b      	ldr	r5, [pc, #172]	; (8008378 <rt_test_010_003_execute+0xb8>)
  return chThdGetSelfX()->prio;
 80082ca:	69b3      	ldr	r3, [r6, #24]
  test_set_step(1);
 80082cc:	4f2b      	ldr	r7, [pc, #172]	; (800837c <rt_test_010_003_execute+0xbc>)
    threads[0] = chThdCreateStatic(wa[0], WA_SIZE, chThdGetPriorityX()+1, bmk_thread1, NULL);
 80082ce:	6899      	ldr	r1, [r3, #8]
 80082d0:	4628      	mov	r0, r5
 80082d2:	4421      	add	r1, r4
 80082d4:	2300      	movs	r3, #0
 80082d6:	4a2a      	ldr	r2, [pc, #168]	; (8008380 <rt_test_010_003_execute+0xc0>)
  test_set_step(1);
 80082d8:	603c      	str	r4, [r7, #0]
    threads[0] = chThdCreateStatic(wa[0], WA_SIZE, chThdGetPriorityX()+1, bmk_thread1, NULL);
 80082da:	f7fa fe31 	bl	8002f40 <chThdCreateStatic.constprop.103>
  test_set_step(2);
 80082de:	f04f 0c02 	mov.w	ip, #2
 80082e2:	69b3      	ldr	r3, [r6, #24]
    threads[0] = chThdCreateStatic(wa[0], WA_SIZE, chThdGetPriorityX()+1, bmk_thread1, NULL);
 80082e4:	4c27      	ldr	r4, [pc, #156]	; (8008384 <rt_test_010_003_execute+0xc4>)
    threads[1] = chThdCreateStatic(wa[1], WA_SIZE, chThdGetPriorityX()-2, bmk_thread3, NULL);
 80082e6:	f8df 80ac 	ldr.w	r8, [pc, #172]	; 8008394 <rt_test_010_003_execute+0xd4>
 80082ea:	6899      	ldr	r1, [r3, #8]
 80082ec:	4642      	mov	r2, r8
    threads[0] = chThdCreateStatic(wa[0], WA_SIZE, chThdGetPriorityX()+1, bmk_thread1, NULL);
 80082ee:	6020      	str	r0, [r4, #0]
    threads[1] = chThdCreateStatic(wa[1], WA_SIZE, chThdGetPriorityX()-2, bmk_thread3, NULL);
 80082f0:	3902      	subs	r1, #2
 80082f2:	f505 70a4 	add.w	r0, r5, #328	; 0x148
 80082f6:	2300      	movs	r3, #0
  test_set_step(2);
 80082f8:	f8c7 c000 	str.w	ip, [r7]
    threads[1] = chThdCreateStatic(wa[1], WA_SIZE, chThdGetPriorityX()-2, bmk_thread3, NULL);
 80082fc:	f7fa fe20 	bl	8002f40 <chThdCreateStatic.constprop.103>
 8008300:	69b3      	ldr	r3, [r6, #24]
 8008302:	6060      	str	r0, [r4, #4]
    threads[2] = chThdCreateStatic(wa[2], WA_SIZE, chThdGetPriorityX()-3, bmk_thread3, NULL);
 8008304:	6899      	ldr	r1, [r3, #8]
 8008306:	4642      	mov	r2, r8
 8008308:	3903      	subs	r1, #3
 800830a:	f505 7024 	add.w	r0, r5, #656	; 0x290
 800830e:	2300      	movs	r3, #0
 8008310:	f7fa fe16 	bl	8002f40 <chThdCreateStatic.constprop.103>
 8008314:	69b3      	ldr	r3, [r6, #24]
 8008316:	60a0      	str	r0, [r4, #8]
    threads[3] = chThdCreateStatic(wa[3], WA_SIZE, chThdGetPriorityX()-4, bmk_thread3, NULL);
 8008318:	6899      	ldr	r1, [r3, #8]
 800831a:	4642      	mov	r2, r8
 800831c:	3904      	subs	r1, #4
 800831e:	f505 7076 	add.w	r0, r5, #984	; 0x3d8
 8008322:	2300      	movs	r3, #0
 8008324:	f7fa fe0c 	bl	8002f40 <chThdCreateStatic.constprop.103>
 8008328:	69b3      	ldr	r3, [r6, #24]
    threads[4] = chThdCreateStatic(wa[4], WA_SIZE, chThdGetPriorityX()-5, bmk_thread3, NULL);
 800832a:	4642      	mov	r2, r8
 800832c:	6899      	ldr	r1, [r3, #8]
    threads[3] = chThdCreateStatic(wa[3], WA_SIZE, chThdGetPriorityX()-4, bmk_thread3, NULL);
 800832e:	60e0      	str	r0, [r4, #12]
    threads[4] = chThdCreateStatic(wa[4], WA_SIZE, chThdGetPriorityX()-5, bmk_thread3, NULL);
 8008330:	3905      	subs	r1, #5
 8008332:	f505 60a4 	add.w	r0, r5, #1312	; 0x520
 8008336:	2300      	movs	r3, #0
 8008338:	f7fa fe02 	bl	8002f40 <chThdCreateStatic.constprop.103>
  test_set_step(3);
 800833c:	2303      	movs	r3, #3
    threads[4] = chThdCreateStatic(wa[4], WA_SIZE, chThdGetPriorityX()-5, bmk_thread3, NULL);
 800833e:	6120      	str	r0, [r4, #16]
    n = msg_loop_test(threads[0]);
 8008340:	6820      	ldr	r0, [r4, #0]
  test_set_step(3);
 8008342:	603b      	str	r3, [r7, #0]
    n = msg_loop_test(threads[0]);
 8008344:	f7fb ff0c 	bl	8004160 <msg_loop_test>
 8008348:	4604      	mov	r4, r0
    test_wait_threads();
 800834a:	f7ff fec1 	bl	80080d0 <test_wait_threads>
  test_set_step(4);
 800834e:	2304      	movs	r3, #4
    test_print("--- Score : ");
 8008350:	480d      	ldr	r0, [pc, #52]	; (8008388 <rt_test_010_003_execute+0xc8>)
  test_set_step(4);
 8008352:	603b      	str	r3, [r7, #0]
    test_print("--- Score : ");
 8008354:	f7f8 fbfc 	bl	8000b50 <test_print>
    test_printn(n);
 8008358:	4620      	mov	r0, r4
 800835a:	f7f8 fb89 	bl	8000a70 <test_printn>
    test_print(" msgs/S, ");
 800835e:	480b      	ldr	r0, [pc, #44]	; (800838c <rt_test_010_003_execute+0xcc>)
 8008360:	f7f8 fbf6 	bl	8000b50 <test_print>
    test_printn(n << 1);
 8008364:	0060      	lsls	r0, r4, #1
 8008366:	f7f8 fb83 	bl	8000a70 <test_printn>
}
 800836a:	e8bd 41f0 	ldmia.w	sp!, {r4, r5, r6, r7, r8, lr}
    test_println(" ctxswc/S");
 800836e:	4808      	ldr	r0, [pc, #32]	; (8008390 <rt_test_010_003_execute+0xd0>)
 8008370:	f7f8 bbce 	b.w	8000b10 <test_println>
 8008374:	200012d0 	.word	0x200012d0
 8008378:	20001548 	.word	0x20001548
 800837c:	20001c5c 	.word	0x20001c5c
 8008380:	08004101 	.word	0x08004101
 8008384:	20001c74 	.word	0x20001c74
 8008388:	0800b7c0 	.word	0x0800b7c0
 800838c:	0800b728 	.word	0x0800b728
 8008390:	0800b7a4 	.word	0x0800b7a4
 8008394:	08005421 	.word	0x08005421
	...

080083a0 <rt_test_010_002_execute>:
static void rt_test_010_002_execute(void) {
 80083a0:	b538      	push	{r3, r4, r5, lr}
  test_set_step(1);
 80083a2:	2501      	movs	r5, #1
  return ch.rlist.current;
 80083a4:	4b13      	ldr	r3, [pc, #76]	; (80083f4 <rt_test_010_002_execute+0x54>)
 80083a6:	4c14      	ldr	r4, [pc, #80]	; (80083f8 <rt_test_010_002_execute+0x58>)
  return chThdGetSelfX()->prio;
 80083a8:	699a      	ldr	r2, [r3, #24]
    threads[0] = chThdCreateStatic(wa[0], WA_SIZE, chThdGetPriorityX()+1, bmk_thread1, NULL);
 80083aa:	4814      	ldr	r0, [pc, #80]	; (80083fc <rt_test_010_002_execute+0x5c>)
 80083ac:	6891      	ldr	r1, [r2, #8]
 80083ae:	2300      	movs	r3, #0
 80083b0:	4429      	add	r1, r5
 80083b2:	4a13      	ldr	r2, [pc, #76]	; (8008400 <rt_test_010_002_execute+0x60>)
  test_set_step(1);
 80083b4:	6025      	str	r5, [r4, #0]
    threads[0] = chThdCreateStatic(wa[0], WA_SIZE, chThdGetPriorityX()+1, bmk_thread1, NULL);
 80083b6:	f7fa fdc3 	bl	8002f40 <chThdCreateStatic.constprop.103>
  test_set_step(2);
 80083ba:	2202      	movs	r2, #2
    threads[0] = chThdCreateStatic(wa[0], WA_SIZE, chThdGetPriorityX()+1, bmk_thread1, NULL);
 80083bc:	4b11      	ldr	r3, [pc, #68]	; (8008404 <rt_test_010_002_execute+0x64>)
  test_set_step(2);
 80083be:	6022      	str	r2, [r4, #0]
    threads[0] = chThdCreateStatic(wa[0], WA_SIZE, chThdGetPriorityX()+1, bmk_thread1, NULL);
 80083c0:	6018      	str	r0, [r3, #0]
    n = msg_loop_test(threads[0]);
 80083c2:	f7fb fecd 	bl	8004160 <msg_loop_test>
 80083c6:	4605      	mov	r5, r0
    test_wait_threads();
 80083c8:	f7ff fe82 	bl	80080d0 <test_wait_threads>
  test_set_step(3);
 80083cc:	2303      	movs	r3, #3
    test_print("--- Score : ");
 80083ce:	480e      	ldr	r0, [pc, #56]	; (8008408 <rt_test_010_002_execute+0x68>)
  test_set_step(3);
 80083d0:	6023      	str	r3, [r4, #0]
    test_print("--- Score : ");
 80083d2:	f7f8 fbbd 	bl	8000b50 <test_print>
    test_printn(n);
 80083d6:	4628      	mov	r0, r5
 80083d8:	f7f8 fb4a 	bl	8000a70 <test_printn>
    test_print(" msgs/S, ");
 80083dc:	480b      	ldr	r0, [pc, #44]	; (800840c <rt_test_010_002_execute+0x6c>)
 80083de:	f7f8 fbb7 	bl	8000b50 <test_print>
    test_printn(n << 1);
 80083e2:	0068      	lsls	r0, r5, #1
 80083e4:	f7f8 fb44 	bl	8000a70 <test_printn>
}
 80083e8:	e8bd 4038 	ldmia.w	sp!, {r3, r4, r5, lr}
    test_println(" ctxswc/S");
 80083ec:	4808      	ldr	r0, [pc, #32]	; (8008410 <rt_test_010_002_execute+0x70>)
 80083ee:	f7f8 bb8f 	b.w	8000b10 <test_println>
 80083f2:	bf00      	nop
 80083f4:	200012d0 	.word	0x200012d0
 80083f8:	20001c5c 	.word	0x20001c5c
 80083fc:	20001548 	.word	0x20001548
 8008400:	08004101 	.word	0x08004101
 8008404:	20001c74 	.word	0x20001c74
 8008408:	0800b7c0 	.word	0x0800b7c0
 800840c:	0800b728 	.word	0x0800b728
 8008410:	0800b7a4 	.word	0x0800b7a4
	...

08008420 <rt_test_010_001_execute>:
static void rt_test_010_001_execute(void) {
 8008420:	b538      	push	{r3, r4, r5, lr}
  test_set_step(1);
 8008422:	2501      	movs	r5, #1
  return ch.rlist.current;
 8008424:	4b13      	ldr	r3, [pc, #76]	; (8008474 <rt_test_010_001_execute+0x54>)
 8008426:	4c14      	ldr	r4, [pc, #80]	; (8008478 <rt_test_010_001_execute+0x58>)
  return chThdGetSelfX()->prio;
 8008428:	699a      	ldr	r2, [r3, #24]
    threads[0] = chThdCreateStatic(wa[0], WA_SIZE, chThdGetPriorityX()-1, bmk_thread1, NULL);
 800842a:	4814      	ldr	r0, [pc, #80]	; (800847c <rt_test_010_001_execute+0x5c>)
 800842c:	6891      	ldr	r1, [r2, #8]
 800842e:	2300      	movs	r3, #0
 8008430:	3901      	subs	r1, #1
 8008432:	4a13      	ldr	r2, [pc, #76]	; (8008480 <rt_test_010_001_execute+0x60>)
  test_set_step(1);
 8008434:	6025      	str	r5, [r4, #0]
    threads[0] = chThdCreateStatic(wa[0], WA_SIZE, chThdGetPriorityX()-1, bmk_thread1, NULL);
 8008436:	f7fa fd83 	bl	8002f40 <chThdCreateStatic.constprop.103>
  test_set_step(2);
 800843a:	2202      	movs	r2, #2
    threads[0] = chThdCreateStatic(wa[0], WA_SIZE, chThdGetPriorityX()-1, bmk_thread1, NULL);
 800843c:	4b11      	ldr	r3, [pc, #68]	; (8008484 <rt_test_010_001_execute+0x64>)
  test_set_step(2);
 800843e:	6022      	str	r2, [r4, #0]
    threads[0] = chThdCreateStatic(wa[0], WA_SIZE, chThdGetPriorityX()-1, bmk_thread1, NULL);
 8008440:	6018      	str	r0, [r3, #0]
    n = msg_loop_test(threads[0]);
 8008442:	f7fb fe8d 	bl	8004160 <msg_loop_test>
 8008446:	4605      	mov	r5, r0
    test_wait_threads();
 8008448:	f7ff fe42 	bl	80080d0 <test_wait_threads>
  test_set_step(3);
 800844c:	2303      	movs	r3, #3
    test_print("--- Score : ");
 800844e:	480e      	ldr	r0, [pc, #56]	; (8008488 <rt_test_010_001_execute+0x68>)
  test_set_step(3);
 8008450:	6023      	str	r3, [r4, #0]
    test_print("--- Score : ");
 8008452:	f7f8 fb7d 	bl	8000b50 <test_print>
    test_printn(n);
 8008456:	4628      	mov	r0, r5
 8008458:	f7f8 fb0a 	bl	8000a70 <test_printn>
    test_print(" msgs/S, ");
 800845c:	480b      	ldr	r0, [pc, #44]	; (800848c <rt_test_010_001_execute+0x6c>)
 800845e:	f7f8 fb77 	bl	8000b50 <test_print>
    test_printn(n << 1);
 8008462:	0068      	lsls	r0, r5, #1
 8008464:	f7f8 fb04 	bl	8000a70 <test_printn>
}
 8008468:	e8bd 4038 	ldmia.w	sp!, {r3, r4, r5, lr}
    test_println(" ctxswc/S");
 800846c:	4808      	ldr	r0, [pc, #32]	; (8008490 <rt_test_010_001_execute+0x70>)
 800846e:	f7f8 bb4f 	b.w	8000b10 <test_println>
 8008472:	bf00      	nop
 8008474:	200012d0 	.word	0x200012d0
 8008478:	20001c5c 	.word	0x20001c5c
 800847c:	20001548 	.word	0x20001548
 8008480:	08004101 	.word	0x08004101
 8008484:	20001c74 	.word	0x20001c74
 8008488:	0800b7c0 	.word	0x0800b7c0
 800848c:	0800b728 	.word	0x0800b728
 8008490:	0800b7a4 	.word	0x0800b7a4
	...

080084a0 <rt_test_009_002_execute>:
static void rt_test_009_002_execute(void) {
  unsigned i;
  tprio_t prio;

  /* [9.2.1] Adding four working areas to the pool.*/
  test_set_step(1);
 80084a0:	2001      	movs	r0, #1
static void rt_test_009_002_execute(void) {
 80084a2:	b5f8      	push	{r3, r4, r5, r6, r7, lr}
 80084a4:	2720      	movs	r7, #32
 80084a6:	2600      	movs	r6, #0
  test_set_step(1);
 80084a8:	4d3b      	ldr	r5, [pc, #236]	; (8008598 <rt_test_009_002_execute+0xf8>)
 80084aa:	4b3c      	ldr	r3, [pc, #240]	; (800859c <rt_test_009_002_execute+0xfc>)
 80084ac:	4a3c      	ldr	r2, [pc, #240]	; (80085a0 <rt_test_009_002_execute+0x100>)
 80084ae:	493d      	ldr	r1, [pc, #244]	; (80085a4 <rt_test_009_002_execute+0x104>)
 80084b0:	6028      	str	r0, [r5, #0]
 80084b2:	f103 040c 	add.w	r4, r3, #12
 80084b6:	f387 8811 	msr	BASEPRI, r7
  php->next = mp->next;
 80084ba:	6808      	ldr	r0, [r1, #0]
 80084bc:	6010      	str	r0, [r2, #0]
  mp->next = php;
 80084be:	600a      	str	r2, [r1, #0]
 80084c0:	f386 8811 	msr	BASEPRI, r6
  {
    for (i = 0; i < 4; i++)
 80084c4:	429c      	cmp	r4, r3
 80084c6:	d002      	beq.n	80084ce <rt_test_009_002_execute+0x2e>
 80084c8:	f853 2b04 	ldr.w	r2, [r3], #4
 80084cc:	e7f3      	b.n	80084b6 <rt_test_009_002_execute+0x16>
  {
    prio = chThdGetPriorityX();
  }

  /* [9.2.3] Creating the five threads.*/
  test_set_step(3);
 80084ce:	2303      	movs	r3, #3
  return ch.rlist.current;
 80084d0:	4935      	ldr	r1, [pc, #212]	; (80085a8 <rt_test_009_002_execute+0x108>)
  {
    threads[0] = chThdCreateFromMemoryPool(&mp1, "dyn1", prio-1, dyn_thread1, "A");
 80084d2:	4a36      	ldr	r2, [pc, #216]	; (80085ac <rt_test_009_002_execute+0x10c>)
  return chThdGetSelfX()->prio;
 80084d4:	6989      	ldr	r1, [r1, #24]
 80084d6:	4836      	ldr	r0, [pc, #216]	; (80085b0 <rt_test_009_002_execute+0x110>)
 80084d8:	688e      	ldr	r6, [r1, #8]
  test_set_step(3);
 80084da:	602b      	str	r3, [r5, #0]
    threads[0] = chThdCreateFromMemoryPool(&mp1, "dyn1", prio-1, dyn_thread1, "A");
 80084dc:	1e71      	subs	r1, r6, #1
 80084de:	f7fa fd8f 	bl	8003000 <chThdCreateFromMemoryPool.constprop.74>
 80084e2:	4c34      	ldr	r4, [pc, #208]	; (80085b4 <rt_test_009_002_execute+0x114>)
    threads[1] = chThdCreateFromMemoryPool(&mp1, "dyn2", prio-2, dyn_thread1, "B");
 80084e4:	1eb1      	subs	r1, r6, #2
    threads[0] = chThdCreateFromMemoryPool(&mp1, "dyn1", prio-1, dyn_thread1, "A");
 80084e6:	6020      	str	r0, [r4, #0]
    threads[1] = chThdCreateFromMemoryPool(&mp1, "dyn2", prio-2, dyn_thread1, "B");
 80084e8:	4a33      	ldr	r2, [pc, #204]	; (80085b8 <rt_test_009_002_execute+0x118>)
 80084ea:	4834      	ldr	r0, [pc, #208]	; (80085bc <rt_test_009_002_execute+0x11c>)
 80084ec:	f7fa fd88 	bl	8003000 <chThdCreateFromMemoryPool.constprop.74>
    threads[2] = chThdCreateFromMemoryPool(&mp1, "dyn3", prio-3, dyn_thread1, "C");
 80084f0:	1ef1      	subs	r1, r6, #3
    threads[1] = chThdCreateFromMemoryPool(&mp1, "dyn2", prio-2, dyn_thread1, "B");
 80084f2:	6060      	str	r0, [r4, #4]
    threads[2] = chThdCreateFromMemoryPool(&mp1, "dyn3", prio-3, dyn_thread1, "C");
 80084f4:	4a32      	ldr	r2, [pc, #200]	; (80085c0 <rt_test_009_002_execute+0x120>)
 80084f6:	4833      	ldr	r0, [pc, #204]	; (80085c4 <rt_test_009_002_execute+0x124>)
 80084f8:	f7fa fd82 	bl	8003000 <chThdCreateFromMemoryPool.constprop.74>
    threads[3] = chThdCreateFromMemoryPool(&mp1, "dyn4", prio-4, dyn_thread1, "D");
 80084fc:	1f31      	subs	r1, r6, #4
    threads[2] = chThdCreateFromMemoryPool(&mp1, "dyn3", prio-3, dyn_thread1, "C");
 80084fe:	60a0      	str	r0, [r4, #8]
    threads[3] = chThdCreateFromMemoryPool(&mp1, "dyn4", prio-4, dyn_thread1, "D");
 8008500:	4a31      	ldr	r2, [pc, #196]	; (80085c8 <rt_test_009_002_execute+0x128>)
 8008502:	4832      	ldr	r0, [pc, #200]	; (80085cc <rt_test_009_002_execute+0x12c>)
 8008504:	f7fa fd7c 	bl	8003000 <chThdCreateFromMemoryPool.constprop.74>
    threads[4] = chThdCreateFromMemoryPool(&mp1, "dyn5", prio-5, dyn_thread1, "E");
 8008508:	1f71      	subs	r1, r6, #5
    threads[3] = chThdCreateFromMemoryPool(&mp1, "dyn4", prio-4, dyn_thread1, "D");
 800850a:	60e0      	str	r0, [r4, #12]
    threads[4] = chThdCreateFromMemoryPool(&mp1, "dyn5", prio-5, dyn_thread1, "E");
 800850c:	4a30      	ldr	r2, [pc, #192]	; (80085d0 <rt_test_009_002_execute+0x130>)
 800850e:	4831      	ldr	r0, [pc, #196]	; (80085d4 <rt_test_009_002_execute+0x134>)
 8008510:	f7fa fd76 	bl	8003000 <chThdCreateFromMemoryPool.constprop.74>
  }

  /* [9.2.4] Testing that only the fifth thread creation failed.*/
  test_set_step(4);
 8008514:	2304      	movs	r3, #4
    threads[4] = chThdCreateFromMemoryPool(&mp1, "dyn5", prio-5, dyn_thread1, "E");
 8008516:	4606      	mov	r6, r0
  {
    test_assert((threads[0] != NULL) &&
 8008518:	6820      	ldr	r0, [r4, #0]
    threads[4] = chThdCreateFromMemoryPool(&mp1, "dyn5", prio-5, dyn_thread1, "E");
 800851a:	6126      	str	r6, [r4, #16]
  test_set_step(4);
 800851c:	602b      	str	r3, [r5, #0]
    test_assert((threads[0] != NULL) &&
 800851e:	b138      	cbz	r0, 8008530 <rt_test_009_002_execute+0x90>
 8008520:	6860      	ldr	r0, [r4, #4]
 8008522:	b128      	cbz	r0, 8008530 <rt_test_009_002_execute+0x90>
 8008524:	68a0      	ldr	r0, [r4, #8]
 8008526:	b118      	cbz	r0, 8008530 <rt_test_009_002_execute+0x90>
 8008528:	68e0      	ldr	r0, [r4, #12]
 800852a:	3000      	adds	r0, #0
 800852c:	bf18      	it	ne
 800852e:	2001      	movne	r0, #1
 8008530:	4929      	ldr	r1, [pc, #164]	; (80085d8 <rt_test_009_002_execute+0x138>)
 8008532:	f7f8 fa0d 	bl	8000950 <_test_assert>
 8008536:	b100      	cbz	r0, 800853a <rt_test_009_002_execute+0x9a>
  {
    for (i = 0; i < 4; i++)
      test_assert(chPoolAlloc(&mp1) != NULL, "pool list empty");
    test_assert(chPoolAlloc(&mp1) == NULL, "pool list not empty");
  }
}
 8008538:	bdf8      	pop	{r3, r4, r5, r6, r7, pc}
    test_assert(threads[4] == NULL,
 800853a:	fab6 f086 	clz	r0, r6
 800853e:	4927      	ldr	r1, [pc, #156]	; (80085dc <rt_test_009_002_execute+0x13c>)
 8008540:	0940      	lsrs	r0, r0, #5
 8008542:	f7f8 fa05 	bl	8000950 <_test_assert>
 8008546:	2800      	cmp	r0, #0
 8008548:	d1f6      	bne.n	8008538 <rt_test_009_002_execute+0x98>
  test_set_step(5);
 800854a:	2305      	movs	r3, #5
 800854c:	602b      	str	r3, [r5, #0]
    test_wait_threads();
 800854e:	f7ff fdbf 	bl	80080d0 <test_wait_threads>
    test_assert_sequence("ABCD", "invalid sequence");
 8008552:	4923      	ldr	r1, [pc, #140]	; (80085e0 <rt_test_009_002_execute+0x140>)
 8008554:	4823      	ldr	r0, [pc, #140]	; (80085e4 <rt_test_009_002_execute+0x144>)
 8008556:	f7f8 fb13 	bl	8000b80 <_test_assert_sequence>
 800855a:	2800      	cmp	r0, #0
 800855c:	d1ec      	bne.n	8008538 <rt_test_009_002_execute+0x98>
  test_set_step(6);
 800855e:	2306      	movs	r3, #6
 8008560:	2404      	movs	r4, #4
      test_assert(chPoolAlloc(&mp1) != NULL, "pool list empty");
 8008562:	4f10      	ldr	r7, [pc, #64]	; (80085a4 <rt_test_009_002_execute+0x104>)
 8008564:	4e20      	ldr	r6, [pc, #128]	; (80085e8 <rt_test_009_002_execute+0x148>)
  test_set_step(6);
 8008566:	602b      	str	r3, [r5, #0]
      test_assert(chPoolAlloc(&mp1) != NULL, "pool list empty");
 8008568:	4638      	mov	r0, r7
 800856a:	f7f9 f8e1 	bl	8001730 <chPoolAlloc>
 800856e:	3000      	adds	r0, #0
 8008570:	bf18      	it	ne
 8008572:	2001      	movne	r0, #1
 8008574:	4631      	mov	r1, r6
 8008576:	f7f8 f9eb 	bl	8000950 <_test_assert>
 800857a:	2800      	cmp	r0, #0
 800857c:	d1dc      	bne.n	8008538 <rt_test_009_002_execute+0x98>
    for (i = 0; i < 4; i++)
 800857e:	3c01      	subs	r4, #1
 8008580:	d1f2      	bne.n	8008568 <rt_test_009_002_execute+0xc8>
    test_assert(chPoolAlloc(&mp1) == NULL, "pool list not empty");
 8008582:	4808      	ldr	r0, [pc, #32]	; (80085a4 <rt_test_009_002_execute+0x104>)
 8008584:	f7f9 f8d4 	bl	8001730 <chPoolAlloc>
}
 8008588:	e8bd 40f8 	ldmia.w	sp!, {r3, r4, r5, r6, r7, lr}
    test_assert(chPoolAlloc(&mp1) == NULL, "pool list not empty");
 800858c:	fab0 f080 	clz	r0, r0
 8008590:	4916      	ldr	r1, [pc, #88]	; (80085ec <rt_test_009_002_execute+0x14c>)
 8008592:	0940      	lsrs	r0, r0, #5
 8008594:	f7f8 b9dc 	b.w	8000950 <_test_assert>
 8008598:	20001c5c 	.word	0x20001c5c
 800859c:	0800c6b4 	.word	0x0800c6b4
 80085a0:	20001548 	.word	0x20001548
 80085a4:	200014f8 	.word	0x200014f8
 80085a8:	200012d0 	.word	0x200012d0
 80085ac:	0800b448 	.word	0x0800b448
 80085b0:	0800b674 	.word	0x0800b674
 80085b4:	20001c74 	.word	0x20001c74
 80085b8:	0800b44c 	.word	0x0800b44c
 80085bc:	0800b67c 	.word	0x0800b67c
 80085c0:	0800b684 	.word	0x0800b684
 80085c4:	0800b688 	.word	0x0800b688
 80085c8:	0800c3cc 	.word	0x0800c3cc
 80085cc:	0800b690 	.word	0x0800b690
 80085d0:	0800b4c4 	.word	0x0800b4c4
 80085d4:	0800b698 	.word	0x0800b698
 80085d8:	0800b6a0 	.word	0x0800b6a0
 80085dc:	0800b6b8 	.word	0x0800b6b8
 80085e0:	0800b524 	.word	0x0800b524
 80085e4:	0800a460 	.word	0x0800a460
 80085e8:	0800b6d4 	.word	0x0800b6d4
 80085ec:	0800b6e4 	.word	0x0800b6e4

080085f0 <rt_test_009_001_execute>:
  test_set_step(2);
 80085f0:	2302      	movs	r3, #2
static void rt_test_009_001_execute(void) {
 80085f2:	e92d 41f0 	stmdb	sp!, {r4, r5, r6, r7, r8, lr}
  return ch.rlist.current;
 80085f6:	4a48      	ldr	r2, [pc, #288]	; (8008718 <rt_test_009_001_execute+0x128>)
 80085f8:	b086      	sub	sp, #24
  return chThdGetSelfX()->prio;
 80085fa:	6995      	ldr	r5, [r2, #24]
  test_set_step(2);
 80085fc:	4c47      	ldr	r4, [pc, #284]	; (800871c <rt_test_009_001_execute+0x12c>)
    n1 = chHeapStatus(&heap1, &total1, &largest1);
 80085fe:	a905      	add	r1, sp, #20
 8008600:	aa04      	add	r2, sp, #16
 8008602:	4847      	ldr	r0, [pc, #284]	; (8008720 <rt_test_009_001_execute+0x130>)
 8008604:	68ae      	ldr	r6, [r5, #8]
  test_set_step(2);
 8008606:	6023      	str	r3, [r4, #0]
    n1 = chHeapStatus(&heap1, &total1, &largest1);
 8008608:	f7fe fbda 	bl	8006dc0 <chHeapStatus>
 800860c:	4605      	mov	r5, r0
    test_assert(n1 == 1, "heap fragmented");
 800860e:	f1a0 0001 	sub.w	r0, r0, #1
 8008612:	fab0 f080 	clz	r0, r0
 8008616:	4943      	ldr	r1, [pc, #268]	; (8008724 <rt_test_009_001_execute+0x134>)
 8008618:	0940      	lsrs	r0, r0, #5
 800861a:	f7f8 f999 	bl	8000950 <_test_assert>
 800861e:	b110      	cbz	r0, 8008626 <rt_test_009_001_execute+0x36>
}
 8008620:	b006      	add	sp, #24
 8008622:	e8bd 81f0 	ldmia.w	sp!, {r4, r5, r6, r7, r8, pc}
  test_set_step(3);
 8008626:	2703      	movs	r7, #3
    threads[0] = chThdCreateFromHeap(&heap1,
 8008628:	4b3f      	ldr	r3, [pc, #252]	; (8008728 <rt_test_009_001_execute+0x138>)
 800862a:	f8df 8134 	ldr.w	r8, [pc, #308]	; 8008760 <rt_test_009_001_execute+0x170>
 800862e:	f44f 71a4 	mov.w	r1, #328	; 0x148
 8008632:	e9cd 8300 	strd	r8, r3, [sp]
 8008636:	4a3d      	ldr	r2, [pc, #244]	; (800872c <rt_test_009_001_execute+0x13c>)
 8008638:	1e73      	subs	r3, r6, #1
 800863a:	4839      	ldr	r0, [pc, #228]	; (8008720 <rt_test_009_001_execute+0x130>)
  test_set_step(3);
 800863c:	6027      	str	r7, [r4, #0]
    threads[0] = chThdCreateFromHeap(&heap1,
 800863e:	f7fd fe1f 	bl	8006280 <chThdCreateFromHeap>
 8008642:	4603      	mov	r3, r0
 8008644:	4f3a      	ldr	r7, [pc, #232]	; (8008730 <rt_test_009_001_execute+0x140>)
    test_assert(threads[0] != NULL, "thread creation failed");
 8008646:	3000      	adds	r0, #0
 8008648:	bf18      	it	ne
 800864a:	2001      	movne	r0, #1
 800864c:	4939      	ldr	r1, [pc, #228]	; (8008734 <rt_test_009_001_execute+0x144>)
    threads[0] = chThdCreateFromHeap(&heap1,
 800864e:	603b      	str	r3, [r7, #0]
    test_assert(threads[0] != NULL, "thread creation failed");
 8008650:	f7f8 f97e 	bl	8000950 <_test_assert>
 8008654:	2800      	cmp	r0, #0
 8008656:	d1e3      	bne.n	8008620 <rt_test_009_001_execute+0x30>
  test_set_step(4);
 8008658:	f04f 0c04 	mov.w	ip, #4
    threads[1] = chThdCreateFromHeap(&heap1,
 800865c:	4b36      	ldr	r3, [pc, #216]	; (8008738 <rt_test_009_001_execute+0x148>)
 800865e:	f44f 71a4 	mov.w	r1, #328	; 0x148
 8008662:	e9cd 8300 	strd	r8, r3, [sp]
 8008666:	4a35      	ldr	r2, [pc, #212]	; (800873c <rt_test_009_001_execute+0x14c>)
 8008668:	1eb3      	subs	r3, r6, #2
 800866a:	482d      	ldr	r0, [pc, #180]	; (8008720 <rt_test_009_001_execute+0x130>)
  test_set_step(4);
 800866c:	f8c4 c000 	str.w	ip, [r4]
    threads[1] = chThdCreateFromHeap(&heap1,
 8008670:	f7fd fe06 	bl	8006280 <chThdCreateFromHeap>
 8008674:	4603      	mov	r3, r0
    test_assert(threads[1] != NULL, "thread creation failed");
 8008676:	3000      	adds	r0, #0
 8008678:	bf18      	it	ne
 800867a:	2001      	movne	r0, #1
 800867c:	492d      	ldr	r1, [pc, #180]	; (8008734 <rt_test_009_001_execute+0x144>)
    threads[1] = chThdCreateFromHeap(&heap1,
 800867e:	607b      	str	r3, [r7, #4]
    test_assert(threads[1] != NULL, "thread creation failed");
 8008680:	f7f8 f966 	bl	8000950 <_test_assert>
 8008684:	2800      	cmp	r0, #0
 8008686:	d1cb      	bne.n	8008620 <rt_test_009_001_execute+0x30>
  test_set_step(5);
 8008688:	f04f 0c05 	mov.w	ip, #5
    threads[2] = chThdCreateFromHeap(&heap1,
 800868c:	4a2c      	ldr	r2, [pc, #176]	; (8008740 <rt_test_009_001_execute+0x150>)
 800868e:	1ef3      	subs	r3, r6, #3
 8008690:	9201      	str	r2, [sp, #4]
 8008692:	f04f 4100 	mov.w	r1, #2147483648	; 0x80000000
 8008696:	f8cd 8000 	str.w	r8, [sp]
 800869a:	4a2a      	ldr	r2, [pc, #168]	; (8008744 <rt_test_009_001_execute+0x154>)
 800869c:	4820      	ldr	r0, [pc, #128]	; (8008720 <rt_test_009_001_execute+0x130>)
  test_set_step(5);
 800869e:	f8c4 c000 	str.w	ip, [r4]
    threads[2] = chThdCreateFromHeap(&heap1,
 80086a2:	f7fd fded 	bl	8006280 <chThdCreateFromHeap>
 80086a6:	4603      	mov	r3, r0
    test_assert(threads[2] == NULL, "thread creation not failed");
 80086a8:	fab0 f080 	clz	r0, r0
 80086ac:	4926      	ldr	r1, [pc, #152]	; (8008748 <rt_test_009_001_execute+0x158>)
 80086ae:	0940      	lsrs	r0, r0, #5
    threads[2] = chThdCreateFromHeap(&heap1,
 80086b0:	60bb      	str	r3, [r7, #8]
    test_assert(threads[2] == NULL, "thread creation not failed");
 80086b2:	f7f8 f94d 	bl	8000950 <_test_assert>
 80086b6:	2800      	cmp	r0, #0
 80086b8:	d1b2      	bne.n	8008620 <rt_test_009_001_execute+0x30>
  test_set_step(6);
 80086ba:	2306      	movs	r3, #6
 80086bc:	6023      	str	r3, [r4, #0]
    test_wait_threads();
 80086be:	f7ff fd07 	bl	80080d0 <test_wait_threads>
    test_assert_sequence("AB", "invalid sequence");
 80086c2:	4922      	ldr	r1, [pc, #136]	; (800874c <rt_test_009_001_execute+0x15c>)
 80086c4:	4822      	ldr	r0, [pc, #136]	; (8008750 <rt_test_009_001_execute+0x160>)
 80086c6:	f7f8 fa5b 	bl	8000b80 <_test_assert_sequence>
 80086ca:	2800      	cmp	r0, #0
 80086cc:	d1a8      	bne.n	8008620 <rt_test_009_001_execute+0x30>
  test_set_step(7);
 80086ce:	2307      	movs	r3, #7
    n2 = chHeapStatus(&heap1, &total2, &largest2);
 80086d0:	a903      	add	r1, sp, #12
 80086d2:	aa02      	add	r2, sp, #8
 80086d4:	4812      	ldr	r0, [pc, #72]	; (8008720 <rt_test_009_001_execute+0x130>)
  test_set_step(7);
 80086d6:	6023      	str	r3, [r4, #0]
    n2 = chHeapStatus(&heap1, &total2, &largest2);
 80086d8:	f7fe fb72 	bl	8006dc0 <chHeapStatus>
    test_assert(n1 == n2, "fragmentation changed");
 80086dc:	1a28      	subs	r0, r5, r0
 80086de:	fab0 f080 	clz	r0, r0
 80086e2:	491c      	ldr	r1, [pc, #112]	; (8008754 <rt_test_009_001_execute+0x164>)
 80086e4:	0940      	lsrs	r0, r0, #5
 80086e6:	f7f8 f933 	bl	8000950 <_test_assert>
 80086ea:	2800      	cmp	r0, #0
 80086ec:	d198      	bne.n	8008620 <rt_test_009_001_execute+0x30>
    test_assert(total1 == total2, "total free space changed");
 80086ee:	9805      	ldr	r0, [sp, #20]
 80086f0:	9b03      	ldr	r3, [sp, #12]
 80086f2:	4919      	ldr	r1, [pc, #100]	; (8008758 <rt_test_009_001_execute+0x168>)
 80086f4:	1ac0      	subs	r0, r0, r3
 80086f6:	fab0 f080 	clz	r0, r0
 80086fa:	0940      	lsrs	r0, r0, #5
 80086fc:	f7f8 f928 	bl	8000950 <_test_assert>
 8008700:	2800      	cmp	r0, #0
 8008702:	d18d      	bne.n	8008620 <rt_test_009_001_execute+0x30>
    test_assert(largest1 == largest2, "largest fragment size changed");
 8008704:	9804      	ldr	r0, [sp, #16]
 8008706:	9b02      	ldr	r3, [sp, #8]
 8008708:	4914      	ldr	r1, [pc, #80]	; (800875c <rt_test_009_001_execute+0x16c>)
 800870a:	1ac3      	subs	r3, r0, r3
 800870c:	4258      	negs	r0, r3
 800870e:	4158      	adcs	r0, r3
 8008710:	f7f8 f91e 	bl	8000950 <_test_assert>
 8008714:	e784      	b.n	8008620 <rt_test_009_001_execute+0x30>
 8008716:	bf00      	nop
 8008718:	200012d0 	.word	0x200012d0
 800871c:	20001c5c 	.word	0x20001c5c
 8008720:	200014cc 	.word	0x200014cc
 8008724:	0800a508 	.word	0x0800a508
 8008728:	0800b448 	.word	0x0800b448
 800872c:	0800b674 	.word	0x0800b674
 8008730:	20001c74 	.word	0x20001c74
 8008734:	0800b6a0 	.word	0x0800b6a0
 8008738:	0800b44c 	.word	0x0800b44c
 800873c:	0800b67c 	.word	0x0800b67c
 8008740:	0800b684 	.word	0x0800b684
 8008744:	0800b688 	.word	0x0800b688
 8008748:	0800b6b8 	.word	0x0800b6b8
 800874c:	0800b524 	.word	0x0800b524
 8008750:	0800b60c 	.word	0x0800b60c
 8008754:	0800b610 	.word	0x0800b610
 8008758:	0800b628 	.word	0x0800b628
 800875c:	0800b644 	.word	0x0800b644
 8008760:	08000b01 	.word	0x08000b01
	...

08008770 <rt_test_008_007_execute>:

static void rt_test_008_007_execute(void) {
 8008770:	e92d 4ff0 	stmdb	sp!, {r4, r5, r6, r7, r8, r9, sl, fp, lr}
  event_listener_t el1, el2;
  systime_t target_time;

  /* [8.7.1] Registering on two event sources associating them with
     flags 1 and 4.*/
  test_set_step(1);
 8008774:	2501      	movs	r5, #1
 8008776:	4e3f      	ldr	r6, [pc, #252]	; (8008874 <rt_test_008_007_execute+0x104>)
static void rt_test_008_007_execute(void) {
 8008778:	b08b      	sub	sp, #44	; 0x2c
 800877a:	2420      	movs	r4, #32
  test_set_step(1);
 800877c:	6035      	str	r5, [r6, #0]
 800877e:	f384 8811 	msr	BASEPRI, r4
  elp->flags    = (eventflags_t)0;
 8008782:	2300      	movs	r3, #0
  elp->wflags   = wflags;
 8008784:	f04f 30ff 	mov.w	r0, #4294967295	; 0xffffffff
  elp->next     = esp->next;
 8008788:	f8df 8104 	ldr.w	r8, [pc, #260]	; 8008890 <rt_test_008_007_execute+0x120>
  elp->listener = currp;
 800878c:	f8df b104 	ldr.w	fp, [pc, #260]	; 8008894 <rt_test_008_007_execute+0x124>
  elp->next     = esp->next;
 8008790:	f8d8 1000 	ldr.w	r1, [r8]
 8008794:	af0a      	add	r7, sp, #40	; 0x28
  elp->listener = currp;
 8008796:	f8db 2018 	ldr.w	r2, [fp, #24]
  elp->next     = esp->next;
 800879a:	f847 1d14 	str.w	r1, [r7, #-20]!
  elp->listener = currp;
 800879e:	e9cd 2506 	strd	r2, r5, [sp, #24]
  esp->next     = elp;
 80087a2:	f8c8 7000 	str.w	r7, [r8]
  elp->wflags   = wflags;
 80087a6:	e9cd 3008 	strd	r3, r0, [sp, #32]
 80087aa:	f383 8811 	msr	BASEPRI, r3
 80087ae:	f384 8811 	msr	BASEPRI, r4
  elp->events   = events;
 80087b2:	f04f 0a04 	mov.w	sl, #4
  elp->next     = esp->next;
 80087b6:	f8df 90e0 	ldr.w	r9, [pc, #224]	; 8008898 <rt_test_008_007_execute+0x128>
 80087ba:	ad0a      	add	r5, sp, #40	; 0x28
 80087bc:	f8d9 1000 	ldr.w	r1, [r9]
  elp->listener = currp;
 80087c0:	f8db 2018 	ldr.w	r2, [fp, #24]
  elp->next     = esp->next;
 80087c4:	f845 1d28 	str.w	r1, [r5, #-40]!
  elp->flags    = (eventflags_t)0;
 80087c8:	9303      	str	r3, [sp, #12]
  elp->wflags   = wflags;
 80087ca:	9004      	str	r0, [sp, #16]
  elp->listener = currp;
 80087cc:	9201      	str	r2, [sp, #4]
  esp->next     = elp;
 80087ce:	f8c9 5000 	str.w	r5, [r9]
  elp->events   = events;
 80087d2:	f8cd a008 	str.w	sl, [sp, #8]
 80087d6:	f383 8811 	msr	BASEPRI, r3
  }

  /* [8.7.2] Getting current time and starting a broadcaster thread,
     the thread broadcast the first Event Source immediately and the
     other after 50mS.*/
  test_set_step(2);
 80087da:	2302      	movs	r3, #2
 80087dc:	6033      	str	r3, [r6, #0]
  {
    target_time = chTimeAddX(test_wait_tick(), TIME_MS2I(50));
 80087de:	f7fb fa57 	bl	8003c90 <test_wait_tick>
 80087e2:	f8db 2018 	ldr.w	r2, [fp, #24]
 80087e6:	4604      	mov	r4, r0
    threads[0] = chThdCreateStatic(wa[0], WA_SIZE, chThdGetPriorityX() - 1,
 80087e8:	6891      	ldr	r1, [r2, #8]
 80087ea:	4b23      	ldr	r3, [pc, #140]	; (8008878 <rt_test_008_007_execute+0x108>)
 80087ec:	3901      	subs	r1, #1
 80087ee:	4a23      	ldr	r2, [pc, #140]	; (800887c <rt_test_008_007_execute+0x10c>)
 80087f0:	4823      	ldr	r0, [pc, #140]	; (8008880 <rt_test_008_007_execute+0x110>)
 80087f2:	f7fa fba5 	bl	8002f40 <chThdCreateStatic.constprop.103>
  }

  /* [8.7.3] Calling chEvtWaitAll() then verifying that both event
     flags have been received after 50mS and that the event flags mask
     has been emptied.*/
  test_set_step(3);
 80087f6:	2203      	movs	r2, #3
    threads[0] = chThdCreateStatic(wa[0], WA_SIZE, chThdGetPriorityX() - 1,
 80087f8:	4b22      	ldr	r3, [pc, #136]	; (8008884 <rt_test_008_007_execute+0x114>)
  test_set_step(3);
 80087fa:	6032      	str	r2, [r6, #0]
    threads[0] = chThdCreateStatic(wa[0], WA_SIZE, chThdGetPriorityX() - 1,
 80087fc:	6018      	str	r0, [r3, #0]
  {
    m = chEvtWaitAll(5);
 80087fe:	f7fa fc9f 	bl	8003140 <chEvtWaitAll.constprop.79>
  return systime + (systime_t)interval;
 8008802:	f104 0168 	add.w	r1, r4, #104	; 0x68
 8008806:	f104 0064 	add.w	r0, r4, #100	; 0x64
    test_assert_time_window(target_time,
 800880a:	b289      	uxth	r1, r1
 800880c:	b280      	uxth	r0, r0
 800880e:	f7f7 feaf 	bl	8000570 <_test_assert_time_window.constprop.3>
 8008812:	b110      	cbz	r0, 800881a <rt_test_008_007_execute+0xaa>
    chEvtUnregister(&es1, &el1);
    chEvtUnregister(&es2, &el2);
    test_assert(!chEvtIsListeningI(&es1), "stuck listener");
    test_assert(!chEvtIsListeningI(&es2), "stuck listener");
  }
}
 8008814:	b00b      	add	sp, #44	; 0x2c
 8008816:	e8bd 8ff0 	ldmia.w	sp!, {r4, r5, r6, r7, r8, r9, sl, fp, pc}
    m = chEvtGetAndClearEvents(ALL_EVENTS);
 800881a:	f7f7 fe99 	bl	8000550 <chEvtGetAndClearEvents.constprop.85>
    test_assert(m == 0, "stuck event");
 800881e:	fab0 f080 	clz	r0, r0
 8008822:	4919      	ldr	r1, [pc, #100]	; (8008888 <rt_test_008_007_execute+0x118>)
 8008824:	0940      	lsrs	r0, r0, #5
 8008826:	f7f8 f893 	bl	8000950 <_test_assert>
 800882a:	2800      	cmp	r0, #0
 800882c:	d1f2      	bne.n	8008814 <rt_test_008_007_execute+0xa4>
    test_wait_threads();
 800882e:	f7ff fc4f 	bl	80080d0 <test_wait_threads>
    chEvtUnregister(&es1, &el1);
 8008832:	4639      	mov	r1, r7
 8008834:	4640      	mov	r0, r8
  test_set_step(4);
 8008836:	f8c6 a000 	str.w	sl, [r6]
    chEvtUnregister(&es1, &el1);
 800883a:	f7f9 f829 	bl	8001890 <chEvtUnregister>
    chEvtUnregister(&es2, &el2);
 800883e:	4629      	mov	r1, r5
 8008840:	4648      	mov	r0, r9
 8008842:	f7f9 f825 	bl	8001890 <chEvtUnregister>
    test_assert(!chEvtIsListeningI(&es1), "stuck listener");
 8008846:	f8d8 0000 	ldr.w	r0, [r8]
 800884a:	4910      	ldr	r1, [pc, #64]	; (800888c <rt_test_008_007_execute+0x11c>)
 800884c:	eba0 0008 	sub.w	r0, r0, r8
 8008850:	fab0 f080 	clz	r0, r0
 8008854:	0940      	lsrs	r0, r0, #5
 8008856:	f7f8 f87b 	bl	8000950 <_test_assert>
 800885a:	2800      	cmp	r0, #0
 800885c:	d1da      	bne.n	8008814 <rt_test_008_007_execute+0xa4>
    test_assert(!chEvtIsListeningI(&es2), "stuck listener");
 800885e:	f8d9 0000 	ldr.w	r0, [r9]
 8008862:	490a      	ldr	r1, [pc, #40]	; (800888c <rt_test_008_007_execute+0x11c>)
 8008864:	eba0 0009 	sub.w	r0, r0, r9
 8008868:	fab0 f080 	clz	r0, r0
 800886c:	0940      	lsrs	r0, r0, #5
 800886e:	f7f8 f86f 	bl	8000950 <_test_assert>
 8008872:	e7cf      	b.n	8008814 <rt_test_008_007_execute+0xa4>
 8008874:	20001c5c 	.word	0x20001c5c
 8008878:	0800b448 	.word	0x0800b448
 800887c:	08005f91 	.word	0x08005f91
 8008880:	20001548 	.word	0x20001548
 8008884:	20001c74 	.word	0x20001c74
 8008888:	0800b5f0 	.word	0x0800b5f0
 800888c:	0800b504 	.word	0x0800b504
 8008890:	20000814 	.word	0x20000814
 8008894:	200012d0 	.word	0x200012d0
 8008898:	20000818 	.word	0x20000818
 800889c:	00000000 	.word	0x00000000

080088a0 <rt_test_008_005_execute>:
static void rt_test_008_005_execute(void) {
 80088a0:	b538      	push	{r3, r4, r5, lr}
    chEvtAddEvents(5);
 80088a2:	2005      	movs	r0, #5
 80088a4:	f7f8 ffe4 	bl	8001870 <chEvtAddEvents>
  test_set_step(2);
 80088a8:	2302      	movs	r3, #2
 80088aa:	4c28      	ldr	r4, [pc, #160]	; (800894c <rt_test_008_005_execute+0xac>)
 80088ac:	6023      	str	r3, [r4, #0]
    m = chEvtWaitAll(5);
 80088ae:	f7fa fc47 	bl	8003140 <chEvtWaitAll.constprop.79>
    test_assert(m == 5, "unexpected pending bit");
 80088b2:	f1a0 0005 	sub.w	r0, r0, #5
 80088b6:	fab0 f080 	clz	r0, r0
 80088ba:	4925      	ldr	r1, [pc, #148]	; (8008950 <rt_test_008_005_execute+0xb0>)
 80088bc:	0940      	lsrs	r0, r0, #5
 80088be:	f7f8 f847 	bl	8000950 <_test_assert>
 80088c2:	b100      	cbz	r0, 80088c6 <rt_test_008_005_execute+0x26>
}
 80088c4:	bd38      	pop	{r3, r4, r5, pc}
    m = chEvtGetAndClearEvents(ALL_EVENTS);
 80088c6:	f7f7 fe43 	bl	8000550 <chEvtGetAndClearEvents.constprop.85>
    test_assert(m == 0, "stuck event");
 80088ca:	fab0 f080 	clz	r0, r0
 80088ce:	4921      	ldr	r1, [pc, #132]	; (8008954 <rt_test_008_005_execute+0xb4>)
 80088d0:	0940      	lsrs	r0, r0, #5
 80088d2:	f7f8 f83d 	bl	8000950 <_test_assert>
 80088d6:	2800      	cmp	r0, #0
 80088d8:	d1f4      	bne.n	80088c4 <rt_test_008_005_execute+0x24>
    chEvtAddEvents(4);
 80088da:	2004      	movs	r0, #4
 80088dc:	f7f8 ffc8 	bl	8001870 <chEvtAddEvents>
  test_set_step(4);
 80088e0:	2304      	movs	r3, #4
 80088e2:	6023      	str	r3, [r4, #0]
    target_time = chTimeAddX(test_wait_tick(), TIME_MS2I(50));
 80088e4:	f7fb f9d4 	bl	8003c90 <test_wait_tick>
  return ch.rlist.current;
 80088e8:	4b1b      	ldr	r3, [pc, #108]	; (8008958 <rt_test_008_005_execute+0xb8>)
 80088ea:	4605      	mov	r5, r0
 80088ec:	699b      	ldr	r3, [r3, #24]
    threads[0] = chThdCreateStatic(wa[0], WA_SIZE, chThdGetPriorityX() - 1,
 80088ee:	4a1b      	ldr	r2, [pc, #108]	; (800895c <rt_test_008_005_execute+0xbc>)
 80088f0:	6899      	ldr	r1, [r3, #8]
 80088f2:	481b      	ldr	r0, [pc, #108]	; (8008960 <rt_test_008_005_execute+0xc0>)
 80088f4:	3901      	subs	r1, #1
 80088f6:	f7fa fb23 	bl	8002f40 <chThdCreateStatic.constprop.103>
  test_set_step(5);
 80088fa:	2205      	movs	r2, #5
    threads[0] = chThdCreateStatic(wa[0], WA_SIZE, chThdGetPriorityX() - 1,
 80088fc:	4b19      	ldr	r3, [pc, #100]	; (8008964 <rt_test_008_005_execute+0xc4>)
  test_set_step(5);
 80088fe:	6022      	str	r2, [r4, #0]
    threads[0] = chThdCreateStatic(wa[0], WA_SIZE, chThdGetPriorityX() - 1,
 8008900:	6018      	str	r0, [r3, #0]
    m = chEvtWaitAll(5);
 8008902:	f7fa fc1d 	bl	8003140 <chEvtWaitAll.constprop.79>
 8008906:	f105 0168 	add.w	r1, r5, #104	; 0x68
 800890a:	4604      	mov	r4, r0
 800890c:	f105 0064 	add.w	r0, r5, #100	; 0x64
    test_assert_time_window(target_time,
 8008910:	b289      	uxth	r1, r1
 8008912:	b280      	uxth	r0, r0
 8008914:	f7f7 fe2c 	bl	8000570 <_test_assert_time_window.constprop.3>
 8008918:	2800      	cmp	r0, #0
 800891a:	d1d3      	bne.n	80088c4 <rt_test_008_005_execute+0x24>
    test_assert(m == 5, "event flags error");
 800891c:	f1a4 0005 	sub.w	r0, r4, #5
 8008920:	fab0 f080 	clz	r0, r0
 8008924:	4910      	ldr	r1, [pc, #64]	; (8008968 <rt_test_008_005_execute+0xc8>)
 8008926:	0940      	lsrs	r0, r0, #5
 8008928:	f7f8 f812 	bl	8000950 <_test_assert>
 800892c:	2800      	cmp	r0, #0
 800892e:	d1c9      	bne.n	80088c4 <rt_test_008_005_execute+0x24>
    m = chEvtGetAndClearEvents(ALL_EVENTS);
 8008930:	f7f7 fe0e 	bl	8000550 <chEvtGetAndClearEvents.constprop.85>
    test_assert(m == 0, "stuck event");
 8008934:	fab0 f080 	clz	r0, r0
 8008938:	4906      	ldr	r1, [pc, #24]	; (8008954 <rt_test_008_005_execute+0xb4>)
 800893a:	0940      	lsrs	r0, r0, #5
 800893c:	f7f8 f808 	bl	8000950 <_test_assert>
 8008940:	2800      	cmp	r0, #0
 8008942:	d1bf      	bne.n	80088c4 <rt_test_008_005_execute+0x24>
}
 8008944:	e8bd 4038 	ldmia.w	sp!, {r3, r4, r5, lr}
    test_wait_threads();
 8008948:	f7ff bbc2 	b.w	80080d0 <test_wait_threads>
 800894c:	20001c5c 	.word	0x20001c5c
 8008950:	0800b594 	.word	0x0800b594
 8008954:	0800b5f0 	.word	0x0800b5f0
 8008958:	200012d0 	.word	0x200012d0
 800895c:	08005fd1 	.word	0x08005fd1
 8008960:	20001548 	.word	0x20001548
 8008964:	20001c74 	.word	0x20001c74
 8008968:	0800b5ac 	.word	0x0800b5ac
 800896c:	00000000 	.word	0x00000000

08008970 <rt_test_008_004_execute>:
static void rt_test_008_004_execute(void) {
 8008970:	b538      	push	{r3, r4, r5, lr}
    chEvtAddEvents(5);
 8008972:	2005      	movs	r0, #5
 8008974:	f7f8 ff7c 	bl	8001870 <chEvtAddEvents>
  test_set_step(2);
 8008978:	2302      	movs	r3, #2
 800897a:	4c27      	ldr	r4, [pc, #156]	; (8008a18 <rt_test_008_004_execute+0xa8>)
 800897c:	6023      	str	r3, [r4, #0]
    m = chEvtWaitAny(ALL_EVENTS);
 800897e:	f7fa fbc7 	bl	8003110 <chEvtWaitAny.constprop.80>
    test_assert(m == 5, "unexpected pending bit");
 8008982:	f1a0 0005 	sub.w	r0, r0, #5
 8008986:	fab0 f080 	clz	r0, r0
 800898a:	4924      	ldr	r1, [pc, #144]	; (8008a1c <rt_test_008_004_execute+0xac>)
 800898c:	0940      	lsrs	r0, r0, #5
 800898e:	f7f7 ffdf 	bl	8000950 <_test_assert>
 8008992:	b100      	cbz	r0, 8008996 <rt_test_008_004_execute+0x26>
}
 8008994:	bd38      	pop	{r3, r4, r5, pc}
    m = chEvtGetAndClearEvents(ALL_EVENTS);
 8008996:	f7f7 fddb 	bl	8000550 <chEvtGetAndClearEvents.constprop.85>
    test_assert(m == 0, "stuck event");
 800899a:	fab0 f080 	clz	r0, r0
 800899e:	4920      	ldr	r1, [pc, #128]	; (8008a20 <rt_test_008_004_execute+0xb0>)
 80089a0:	0940      	lsrs	r0, r0, #5
 80089a2:	f7f7 ffd5 	bl	8000950 <_test_assert>
 80089a6:	2800      	cmp	r0, #0
 80089a8:	d1f4      	bne.n	8008994 <rt_test_008_004_execute+0x24>
  test_set_step(3);
 80089aa:	2303      	movs	r3, #3
 80089ac:	6023      	str	r3, [r4, #0]
    target_time = chTimeAddX(test_wait_tick(), TIME_MS2I(50));
 80089ae:	f7fb f96f 	bl	8003c90 <test_wait_tick>
 80089b2:	4b1c      	ldr	r3, [pc, #112]	; (8008a24 <rt_test_008_004_execute+0xb4>)
 80089b4:	4605      	mov	r5, r0
 80089b6:	699b      	ldr	r3, [r3, #24]
    threads[0] = chThdCreateStatic(wa[0], WA_SIZE, chThdGetPriorityX() - 1,
 80089b8:	4a1b      	ldr	r2, [pc, #108]	; (8008a28 <rt_test_008_004_execute+0xb8>)
 80089ba:	6899      	ldr	r1, [r3, #8]
 80089bc:	481b      	ldr	r0, [pc, #108]	; (8008a2c <rt_test_008_004_execute+0xbc>)
 80089be:	3901      	subs	r1, #1
 80089c0:	f7fa fabe 	bl	8002f40 <chThdCreateStatic.constprop.103>
  test_set_step(4);
 80089c4:	2204      	movs	r2, #4
    threads[0] = chThdCreateStatic(wa[0], WA_SIZE, chThdGetPriorityX() - 1,
 80089c6:	4b1a      	ldr	r3, [pc, #104]	; (8008a30 <rt_test_008_004_execute+0xc0>)
  test_set_step(4);
 80089c8:	6022      	str	r2, [r4, #0]
    threads[0] = chThdCreateStatic(wa[0], WA_SIZE, chThdGetPriorityX() - 1,
 80089ca:	6018      	str	r0, [r3, #0]
    m = chEvtWaitAny(ALL_EVENTS);
 80089cc:	f7fa fba0 	bl	8003110 <chEvtWaitAny.constprop.80>
 80089d0:	f105 0168 	add.w	r1, r5, #104	; 0x68
 80089d4:	4604      	mov	r4, r0
 80089d6:	f105 0064 	add.w	r0, r5, #100	; 0x64
    test_assert_time_window(target_time,
 80089da:	b289      	uxth	r1, r1
 80089dc:	b280      	uxth	r0, r0
 80089de:	f7f7 fdc7 	bl	8000570 <_test_assert_time_window.constprop.3>
 80089e2:	2800      	cmp	r0, #0
 80089e4:	d1d6      	bne.n	8008994 <rt_test_008_004_execute+0x24>
    test_assert(m == 1, "event flag error");
 80089e6:	f1a4 0001 	sub.w	r0, r4, #1
 80089ea:	fab0 f080 	clz	r0, r0
 80089ee:	4911      	ldr	r1, [pc, #68]	; (8008a34 <rt_test_008_004_execute+0xc4>)
 80089f0:	0940      	lsrs	r0, r0, #5
 80089f2:	f7f7 ffad 	bl	8000950 <_test_assert>
 80089f6:	2800      	cmp	r0, #0
 80089f8:	d1cc      	bne.n	8008994 <rt_test_008_004_execute+0x24>
    m = chEvtGetAndClearEvents(ALL_EVENTS);
 80089fa:	f7f7 fda9 	bl	8000550 <chEvtGetAndClearEvents.constprop.85>
    test_assert(m == 0, "stuck event");
 80089fe:	fab0 f080 	clz	r0, r0
 8008a02:	4907      	ldr	r1, [pc, #28]	; (8008a20 <rt_test_008_004_execute+0xb0>)
 8008a04:	0940      	lsrs	r0, r0, #5
 8008a06:	f7f7 ffa3 	bl	8000950 <_test_assert>
 8008a0a:	2800      	cmp	r0, #0
 8008a0c:	d1c2      	bne.n	8008994 <rt_test_008_004_execute+0x24>
}
 8008a0e:	e8bd 4038 	ldmia.w	sp!, {r3, r4, r5, lr}
    test_wait_threads();
 8008a12:	f7ff bb5d 	b.w	80080d0 <test_wait_threads>
 8008a16:	bf00      	nop
 8008a18:	20001c5c 	.word	0x20001c5c
 8008a1c:	0800b594 	.word	0x0800b594
 8008a20:	0800b5f0 	.word	0x0800b5f0
 8008a24:	200012d0 	.word	0x200012d0
 8008a28:	08005fd1 	.word	0x08005fd1
 8008a2c:	20001548 	.word	0x20001548
 8008a30:	20001c74 	.word	0x20001c74
 8008a34:	0800b570 	.word	0x0800b570
	...

08008a40 <rt_test_008_003_execute>:
static void rt_test_008_003_execute(void) {
 8008a40:	b538      	push	{r3, r4, r5, lr}
    chEvtAddEvents(7);
 8008a42:	2007      	movs	r0, #7
 8008a44:	f7f8 ff14 	bl	8001870 <chEvtAddEvents>
  test_set_step(2);
 8008a48:	2302      	movs	r3, #2
 8008a4a:	4c33      	ldr	r4, [pc, #204]	; (8008b18 <rt_test_008_003_execute+0xd8>)
 8008a4c:	6023      	str	r3, [r4, #0]
    m = chEvtWaitOne(ALL_EVENTS);
 8008a4e:	f7fa fb3f 	bl	80030d0 <chEvtWaitOne.constprop.81>
    test_assert(m == 1, "single event error");
 8008a52:	f1a0 0001 	sub.w	r0, r0, #1
 8008a56:	fab0 f080 	clz	r0, r0
 8008a5a:	4930      	ldr	r1, [pc, #192]	; (8008b1c <rt_test_008_003_execute+0xdc>)
 8008a5c:	0940      	lsrs	r0, r0, #5
 8008a5e:	f7f7 ff77 	bl	8000950 <_test_assert>
 8008a62:	b100      	cbz	r0, 8008a66 <rt_test_008_003_execute+0x26>
}
 8008a64:	bd38      	pop	{r3, r4, r5, pc}
    m = chEvtWaitOne(ALL_EVENTS);
 8008a66:	f7fa fb33 	bl	80030d0 <chEvtWaitOne.constprop.81>
    test_assert(m == 2, "single event error");
 8008a6a:	f1a0 0002 	sub.w	r0, r0, #2
 8008a6e:	fab0 f080 	clz	r0, r0
 8008a72:	492a      	ldr	r1, [pc, #168]	; (8008b1c <rt_test_008_003_execute+0xdc>)
 8008a74:	0940      	lsrs	r0, r0, #5
 8008a76:	f7f7 ff6b 	bl	8000950 <_test_assert>
 8008a7a:	2800      	cmp	r0, #0
 8008a7c:	d1f2      	bne.n	8008a64 <rt_test_008_003_execute+0x24>
    m = chEvtWaitOne(ALL_EVENTS);
 8008a7e:	f7fa fb27 	bl	80030d0 <chEvtWaitOne.constprop.81>
    test_assert(m == 4, "single event error");
 8008a82:	f1a0 0004 	sub.w	r0, r0, #4
 8008a86:	fab0 f080 	clz	r0, r0
 8008a8a:	4924      	ldr	r1, [pc, #144]	; (8008b1c <rt_test_008_003_execute+0xdc>)
 8008a8c:	0940      	lsrs	r0, r0, #5
 8008a8e:	f7f7 ff5f 	bl	8000950 <_test_assert>
 8008a92:	2800      	cmp	r0, #0
 8008a94:	d1e6      	bne.n	8008a64 <rt_test_008_003_execute+0x24>
    m = chEvtGetAndClearEvents(ALL_EVENTS);
 8008a96:	f7f7 fd5b 	bl	8000550 <chEvtGetAndClearEvents.constprop.85>
    test_assert(m == 0, "stuck event");
 8008a9a:	fab0 f080 	clz	r0, r0
 8008a9e:	4920      	ldr	r1, [pc, #128]	; (8008b20 <rt_test_008_003_execute+0xe0>)
 8008aa0:	0940      	lsrs	r0, r0, #5
 8008aa2:	f7f7 ff55 	bl	8000950 <_test_assert>
 8008aa6:	2800      	cmp	r0, #0
 8008aa8:	d1dc      	bne.n	8008a64 <rt_test_008_003_execute+0x24>
  test_set_step(3);
 8008aaa:	2303      	movs	r3, #3
 8008aac:	6023      	str	r3, [r4, #0]
    target_time = chTimeAddX(test_wait_tick(), TIME_MS2I(50));
 8008aae:	f7fb f8ef 	bl	8003c90 <test_wait_tick>
 8008ab2:	4b1c      	ldr	r3, [pc, #112]	; (8008b24 <rt_test_008_003_execute+0xe4>)
 8008ab4:	4605      	mov	r5, r0
 8008ab6:	699b      	ldr	r3, [r3, #24]
    threads[0] = chThdCreateStatic(wa[0], WA_SIZE, chThdGetPriorityX() - 1,
 8008ab8:	4a1b      	ldr	r2, [pc, #108]	; (8008b28 <rt_test_008_003_execute+0xe8>)
 8008aba:	6899      	ldr	r1, [r3, #8]
 8008abc:	481b      	ldr	r0, [pc, #108]	; (8008b2c <rt_test_008_003_execute+0xec>)
 8008abe:	3901      	subs	r1, #1
 8008ac0:	f7fa fa3e 	bl	8002f40 <chThdCreateStatic.constprop.103>
  test_set_step(4);
 8008ac4:	2204      	movs	r2, #4
    threads[0] = chThdCreateStatic(wa[0], WA_SIZE, chThdGetPriorityX() - 1,
 8008ac6:	4b1a      	ldr	r3, [pc, #104]	; (8008b30 <rt_test_008_003_execute+0xf0>)
  test_set_step(4);
 8008ac8:	6022      	str	r2, [r4, #0]
    threads[0] = chThdCreateStatic(wa[0], WA_SIZE, chThdGetPriorityX() - 1,
 8008aca:	6018      	str	r0, [r3, #0]
    m = chEvtWaitOne(ALL_EVENTS);
 8008acc:	f7fa fb00 	bl	80030d0 <chEvtWaitOne.constprop.81>
 8008ad0:	f105 0168 	add.w	r1, r5, #104	; 0x68
 8008ad4:	4604      	mov	r4, r0
 8008ad6:	f105 0064 	add.w	r0, r5, #100	; 0x64
    test_assert_time_window(target_time,
 8008ada:	b289      	uxth	r1, r1
 8008adc:	b280      	uxth	r0, r0
 8008ade:	f7f7 fd47 	bl	8000570 <_test_assert_time_window.constprop.3>
 8008ae2:	2800      	cmp	r0, #0
 8008ae4:	d1be      	bne.n	8008a64 <rt_test_008_003_execute+0x24>
    test_assert(m == 1, "event flag error");
 8008ae6:	f1a4 0001 	sub.w	r0, r4, #1
 8008aea:	fab0 f080 	clz	r0, r0
 8008aee:	4911      	ldr	r1, [pc, #68]	; (8008b34 <rt_test_008_003_execute+0xf4>)
 8008af0:	0940      	lsrs	r0, r0, #5
 8008af2:	f7f7 ff2d 	bl	8000950 <_test_assert>
 8008af6:	2800      	cmp	r0, #0
 8008af8:	d1b4      	bne.n	8008a64 <rt_test_008_003_execute+0x24>
    m = chEvtGetAndClearEvents(ALL_EVENTS);
 8008afa:	f7f7 fd29 	bl	8000550 <chEvtGetAndClearEvents.constprop.85>
    test_assert(m == 0, "stuck event");
 8008afe:	fab0 f080 	clz	r0, r0
 8008b02:	4907      	ldr	r1, [pc, #28]	; (8008b20 <rt_test_008_003_execute+0xe0>)
 8008b04:	0940      	lsrs	r0, r0, #5
 8008b06:	f7f7 ff23 	bl	8000950 <_test_assert>
 8008b0a:	2800      	cmp	r0, #0
 8008b0c:	d1aa      	bne.n	8008a64 <rt_test_008_003_execute+0x24>
}
 8008b0e:	e8bd 4038 	ldmia.w	sp!, {r3, r4, r5, lr}
    test_wait_threads();
 8008b12:	f7ff badd 	b.w	80080d0 <test_wait_threads>
 8008b16:	bf00      	nop
 8008b18:	20001c5c 	.word	0x20001c5c
 8008b1c:	0800b54c 	.word	0x0800b54c
 8008b20:	0800b5f0 	.word	0x0800b5f0
 8008b24:	200012d0 	.word	0x200012d0
 8008b28:	08005fd1 	.word	0x08005fd1
 8008b2c:	20001548 	.word	0x20001548
 8008b30:	20001c74 	.word	0x20001c74
 8008b34:	0800b570 	.word	0x0800b570
	...

08008b40 <rt_test_007_001_execute>:
 * - [7.1.1] Starting the messenger thread.
 * - [7.1.2] Waiting for four messages then testing the receive order.
 * .
 */

static void rt_test_007_001_execute(void) {
 8008b40:	b5f8      	push	{r3, r4, r5, r6, r7, lr}
  thread_t *tp;
  msg_t msg;

  /* [7.1.1] Starting the messenger thread.*/
  test_set_step(1);
 8008b42:	2401      	movs	r4, #1
 8008b44:	4b13      	ldr	r3, [pc, #76]	; (8008b94 <rt_test_007_001_execute+0x54>)
 8008b46:	4d14      	ldr	r5, [pc, #80]	; (8008b98 <rt_test_007_001_execute+0x58>)
 8008b48:	699b      	ldr	r3, [r3, #24]
  {
    threads[0] = chThdCreateStatic(wa[0], WA_SIZE, chThdGetPriorityX() + 1,
 8008b4a:	4a14      	ldr	r2, [pc, #80]	; (8008b9c <rt_test_007_001_execute+0x5c>)
 8008b4c:	6899      	ldr	r1, [r3, #8]
 8008b4e:	4814      	ldr	r0, [pc, #80]	; (8008ba0 <rt_test_007_001_execute+0x60>)
 8008b50:	4421      	add	r1, r4
  test_set_step(1);
 8008b52:	602c      	str	r4, [r5, #0]
    threads[0] = chThdCreateStatic(wa[0], WA_SIZE, chThdGetPriorityX() + 1,
 8008b54:	f7fa f9f4 	bl	8002f40 <chThdCreateStatic.constprop.103>
                                   msg_thread1, chThdGetSelfX());
  }

  /* [7.1.2] Waiting for four messages then testing the receive
     order.*/
  test_set_step(2);
 8008b58:	2202      	movs	r2, #2
 8008b5a:	2404      	movs	r4, #4
 8008b5c:	2720      	movs	r7, #32
 8008b5e:	2600      	movs	r6, #0
    threads[0] = chThdCreateStatic(wa[0], WA_SIZE, chThdGetPriorityX() + 1,
 8008b60:	4b10      	ldr	r3, [pc, #64]	; (8008ba4 <rt_test_007_001_execute+0x64>)
  test_set_step(2);
 8008b62:	602a      	str	r2, [r5, #0]
    threads[0] = chThdCreateStatic(wa[0], WA_SIZE, chThdGetPriorityX() + 1,
 8008b64:	6018      	str	r0, [r3, #0]
  {
    unsigned i;

    for (i = 0; i < 4; i++) {
      tp = chMsgWait();
 8008b66:	f7fb faab 	bl	80040c0 <chMsgWait>
 8008b6a:	6a45      	ldr	r5, [r0, #36]	; 0x24
 8008b6c:	f387 8811 	msr	BASEPRI, r7
 8008b70:	4629      	mov	r1, r5
 8008b72:	f7fa f9b5 	bl	8002ee0 <chSchWakeupS>
 8008b76:	f386 8811 	msr	BASEPRI, r6
      msg = chMsgGet(tp);
      chMsgRelease(tp, msg);
      test_emit_token(msg);
 8008b7a:	b2e8      	uxtb	r0, r5
 8008b7c:	f7f7 ff88 	bl	8000a90 <test_emit_token>
    for (i = 0; i < 4; i++) {
 8008b80:	3c01      	subs	r4, #1
 8008b82:	d1f0      	bne.n	8008b66 <rt_test_007_001_execute+0x26>
    }
    test_wait_threads();
 8008b84:	f7ff faa4 	bl	80080d0 <test_wait_threads>
    test_assert_sequence("ABCD", "invalid sequence");
  }
}
 8008b88:	e8bd 40f8 	ldmia.w	sp!, {r3, r4, r5, r6, r7, lr}
    test_assert_sequence("ABCD", "invalid sequence");
 8008b8c:	4906      	ldr	r1, [pc, #24]	; (8008ba8 <rt_test_007_001_execute+0x68>)
 8008b8e:	4807      	ldr	r0, [pc, #28]	; (8008bac <rt_test_007_001_execute+0x6c>)
 8008b90:	f7f7 bff6 	b.w	8000b80 <_test_assert_sequence>
 8008b94:	200012d0 	.word	0x200012d0
 8008b98:	20001c5c 	.word	0x20001c5c
 8008b9c:	080041a1 	.word	0x080041a1
 8008ba0:	20001548 	.word	0x20001548
 8008ba4:	20001c74 	.word	0x20001c74
 8008ba8:	0800b524 	.word	0x0800b524
 8008bac:	0800a460 	.word	0x0800a460

08008bb0 <rt_test_006_009_execute>:

static void rt_test_006_009_execute(void) {
 8008bb0:	b5f8      	push	{r3, r4, r5, r6, r7, lr}
    prio = chThdGetPriorityX();
  }

  /* [6.9.2] Thread A is created at priority P(+1), it locks M2, locks
     M1 and goes to wait on C1.*/
  test_set_step(2);
 8008bb2:	2502      	movs	r5, #2
 8008bb4:	4b1b      	ldr	r3, [pc, #108]	; (8008c24 <rt_test_006_009_execute+0x74>)
  {
    threads[0] = chThdCreateStatic(wa[0], WA_SIZE, prio+1, thread8, "A");
 8008bb6:	4e1c      	ldr	r6, [pc, #112]	; (8008c28 <rt_test_006_009_execute+0x78>)
  return chThdGetSelfX()->prio;
 8008bb8:	699b      	ldr	r3, [r3, #24]
  test_set_step(2);
 8008bba:	4c1c      	ldr	r4, [pc, #112]	; (8008c2c <rt_test_006_009_execute+0x7c>)
 8008bbc:	689f      	ldr	r7, [r3, #8]
    threads[0] = chThdCreateStatic(wa[0], WA_SIZE, prio+1, thread8, "A");
 8008bbe:	4630      	mov	r0, r6
 8008bc0:	1c79      	adds	r1, r7, #1
 8008bc2:	4b1b      	ldr	r3, [pc, #108]	; (8008c30 <rt_test_006_009_execute+0x80>)
 8008bc4:	4a1b      	ldr	r2, [pc, #108]	; (8008c34 <rt_test_006_009_execute+0x84>)
  test_set_step(2);
 8008bc6:	6025      	str	r5, [r4, #0]
    threads[0] = chThdCreateStatic(wa[0], WA_SIZE, prio+1, thread8, "A");
 8008bc8:	f7fa f9ba 	bl	8002f40 <chThdCreateStatic.constprop.103>
  }

  /* [6.9.3] Thread C is created at priority P(+2), it enqueues on M1
     and boosts TA priority at P(+2).*/
  test_set_step(3);
 8008bcc:	f04f 0c03 	mov.w	ip, #3
    threads[0] = chThdCreateStatic(wa[0], WA_SIZE, prio+1, thread8, "A");
 8008bd0:	4d19      	ldr	r5, [pc, #100]	; (8008c38 <rt_test_006_009_execute+0x88>)
  {
    threads[1] = chThdCreateStatic(wa[1], WA_SIZE, prio+2, thread6, "C");
 8008bd2:	1cb9      	adds	r1, r7, #2
    threads[0] = chThdCreateStatic(wa[0], WA_SIZE, prio+1, thread8, "A");
 8008bd4:	6028      	str	r0, [r5, #0]
    threads[1] = chThdCreateStatic(wa[1], WA_SIZE, prio+2, thread6, "C");
 8008bd6:	4b19      	ldr	r3, [pc, #100]	; (8008c3c <rt_test_006_009_execute+0x8c>)
 8008bd8:	f506 70a4 	add.w	r0, r6, #328	; 0x148
 8008bdc:	4a18      	ldr	r2, [pc, #96]	; (8008c40 <rt_test_006_009_execute+0x90>)
  test_set_step(3);
 8008bde:	f8c4 c000 	str.w	ip, [r4]
    threads[1] = chThdCreateStatic(wa[1], WA_SIZE, prio+2, thread6, "C");
 8008be2:	f7fa f9ad 	bl	8002f40 <chThdCreateStatic.constprop.103>
  }

  /* [6.9.4] Thread B is created at priority P(+3), it enqueues on M2
     and boosts TA priority at P(+3).*/
  test_set_step(4);
 8008be6:	f04f 0c04 	mov.w	ip, #4
  {
    threads[2] = chThdCreateStatic(wa[2], WA_SIZE, prio+3, thread9, "B");
 8008bea:	1cf9      	adds	r1, r7, #3
 8008bec:	4a15      	ldr	r2, [pc, #84]	; (8008c44 <rt_test_006_009_execute+0x94>)
    threads[1] = chThdCreateStatic(wa[1], WA_SIZE, prio+2, thread6, "C");
 8008bee:	6068      	str	r0, [r5, #4]
    threads[2] = chThdCreateStatic(wa[2], WA_SIZE, prio+3, thread9, "B");
 8008bf0:	4b15      	ldr	r3, [pc, #84]	; (8008c48 <rt_test_006_009_execute+0x98>)
 8008bf2:	f506 7024 	add.w	r0, r6, #656	; 0x290
  test_set_step(4);
 8008bf6:	f8c4 c000 	str.w	ip, [r4]
    threads[2] = chThdCreateStatic(wa[2], WA_SIZE, prio+3, thread9, "B");
 8008bfa:	f7fa f9a1 	bl	8002f40 <chThdCreateStatic.constprop.103>
  }

  /* [6.9.5] Signaling C1: TA wakes up, unlocks M1 and priority goes to
     P(+2). TB locks M1, unlocks M1 and completes. TA unlocks M2 and
     priority goes to P(+1). TC waits on C1. TA completes.*/
  test_set_step(5);
 8008bfe:	2305      	movs	r3, #5
    threads[2] = chThdCreateStatic(wa[2], WA_SIZE, prio+3, thread9, "B");
 8008c00:	60a8      	str	r0, [r5, #8]
  test_set_step(5);
 8008c02:	6023      	str	r3, [r4, #0]
  {
    chCondSignal(&c1);
 8008c04:	f7fa f9e4 	bl	8002fd0 <chCondSignal.constprop.93>
  }

  /* [6.9.6] Signaling C1: TC wakes up, unlocks M1 and completes.*/
  test_set_step(6);
 8008c08:	2306      	movs	r3, #6
 8008c0a:	6023      	str	r3, [r4, #0]
  {
    chCondSignal(&c1);
 8008c0c:	f7fa f9e0 	bl	8002fd0 <chCondSignal.constprop.93>
  }

  /* [6.9.7] Checking the order of operations.*/
  test_set_step(7);
 8008c10:	2307      	movs	r3, #7
 8008c12:	6023      	str	r3, [r4, #0]
  {
    test_wait_threads();
 8008c14:	f7ff fa5c 	bl	80080d0 <test_wait_threads>
    test_assert_sequence("ABC", "invalid sequence");
  }
}
 8008c18:	e8bd 40f8 	ldmia.w	sp!, {r3, r4, r5, r6, r7, lr}
    test_assert_sequence("ABC", "invalid sequence");
 8008c1c:	490b      	ldr	r1, [pc, #44]	; (8008c4c <rt_test_006_009_execute+0x9c>)
 8008c1e:	480c      	ldr	r0, [pc, #48]	; (8008c50 <rt_test_006_009_execute+0xa0>)
 8008c20:	f7f7 bfae 	b.w	8000b80 <_test_assert_sequence>
 8008c24:	200012d0 	.word	0x200012d0
 8008c28:	20001548 	.word	0x20001548
 8008c2c:	20001c5c 	.word	0x20001c5c
 8008c30:	0800b448 	.word	0x0800b448
 8008c34:	08006601 	.word	0x08006601
 8008c38:	20001c74 	.word	0x20001c74
 8008c3c:	0800b684 	.word	0x0800b684
 8008c40:	08006691 	.word	0x08006691
 8008c44:	08006701 	.word	0x08006701
 8008c48:	0800b44c 	.word	0x0800b44c
 8008c4c:	0800b524 	.word	0x0800b524
 8008c50:	0800b538 	.word	0x0800b538
	...

08008c60 <rt_test_006_008_execute>:
static void rt_test_006_008_execute(void) {
 8008c60:	b570      	push	{r4, r5, r6, lr}
  test_set_step(1);
 8008c62:	2401      	movs	r4, #1
  return ch.rlist.current;
 8008c64:	4b25      	ldr	r3, [pc, #148]	; (8008cfc <rt_test_006_008_execute+0x9c>)
 8008c66:	4e26      	ldr	r6, [pc, #152]	; (8008d00 <rt_test_006_008_execute+0xa0>)
  return chThdGetSelfX()->prio;
 8008c68:	699a      	ldr	r2, [r3, #24]
    threads[0] = chThdCreateStatic(wa[0], WA_SIZE, prio+1, thread6, "E");
 8008c6a:	4826      	ldr	r0, [pc, #152]	; (8008d04 <rt_test_006_008_execute+0xa4>)
 8008c6c:	6895      	ldr	r5, [r2, #8]
 8008c6e:	4b26      	ldr	r3, [pc, #152]	; (8008d08 <rt_test_006_008_execute+0xa8>)
 8008c70:	1929      	adds	r1, r5, r4
 8008c72:	4a26      	ldr	r2, [pc, #152]	; (8008d0c <rt_test_006_008_execute+0xac>)
  test_set_step(1);
 8008c74:	6034      	str	r4, [r6, #0]
    threads[0] = chThdCreateStatic(wa[0], WA_SIZE, prio+1, thread6, "E");
 8008c76:	f7fa f963 	bl	8002f40 <chThdCreateStatic.constprop.103>
 8008c7a:	4c25      	ldr	r4, [pc, #148]	; (8008d10 <rt_test_006_008_execute+0xb0>)
    threads[1] = chThdCreateStatic(wa[1], WA_SIZE, prio+2, thread6, "D");
 8008c7c:	1ca9      	adds	r1, r5, #2
    threads[0] = chThdCreateStatic(wa[0], WA_SIZE, prio+1, thread6, "E");
 8008c7e:	6020      	str	r0, [r4, #0]
    threads[1] = chThdCreateStatic(wa[1], WA_SIZE, prio+2, thread6, "D");
 8008c80:	4b24      	ldr	r3, [pc, #144]	; (8008d14 <rt_test_006_008_execute+0xb4>)
 8008c82:	4a22      	ldr	r2, [pc, #136]	; (8008d0c <rt_test_006_008_execute+0xac>)
 8008c84:	4824      	ldr	r0, [pc, #144]	; (8008d18 <rt_test_006_008_execute+0xb8>)
 8008c86:	f7fa f95b 	bl	8002f40 <chThdCreateStatic.constprop.103>
    threads[2] = chThdCreateStatic(wa[2], WA_SIZE, prio+3, thread6, "C");
 8008c8a:	1ce9      	adds	r1, r5, #3
    threads[1] = chThdCreateStatic(wa[1], WA_SIZE, prio+2, thread6, "D");
 8008c8c:	6060      	str	r0, [r4, #4]
    threads[2] = chThdCreateStatic(wa[2], WA_SIZE, prio+3, thread6, "C");
 8008c8e:	4b23      	ldr	r3, [pc, #140]	; (8008d1c <rt_test_006_008_execute+0xbc>)
 8008c90:	4a1e      	ldr	r2, [pc, #120]	; (8008d0c <rt_test_006_008_execute+0xac>)
 8008c92:	4823      	ldr	r0, [pc, #140]	; (8008d20 <rt_test_006_008_execute+0xc0>)
 8008c94:	f7fa f954 	bl	8002f40 <chThdCreateStatic.constprop.103>
    threads[3] = chThdCreateStatic(wa[3], WA_SIZE, prio+4, thread6, "B");
 8008c98:	1d29      	adds	r1, r5, #4
    threads[2] = chThdCreateStatic(wa[2], WA_SIZE, prio+3, thread6, "C");
 8008c9a:	60a0      	str	r0, [r4, #8]
    threads[3] = chThdCreateStatic(wa[3], WA_SIZE, prio+4, thread6, "B");
 8008c9c:	4b21      	ldr	r3, [pc, #132]	; (8008d24 <rt_test_006_008_execute+0xc4>)
 8008c9e:	4a1b      	ldr	r2, [pc, #108]	; (8008d0c <rt_test_006_008_execute+0xac>)
 8008ca0:	4821      	ldr	r0, [pc, #132]	; (8008d28 <rt_test_006_008_execute+0xc8>)
 8008ca2:	f7fa f94d 	bl	8002f40 <chThdCreateStatic.constprop.103>
    threads[4] = chThdCreateStatic(wa[4], WA_SIZE, prio+5, thread6, "A");
 8008ca6:	1d69      	adds	r1, r5, #5
    threads[3] = chThdCreateStatic(wa[3], WA_SIZE, prio+4, thread6, "B");
 8008ca8:	60e0      	str	r0, [r4, #12]
    threads[4] = chThdCreateStatic(wa[4], WA_SIZE, prio+5, thread6, "A");
 8008caa:	4b20      	ldr	r3, [pc, #128]	; (8008d2c <rt_test_006_008_execute+0xcc>)
 8008cac:	4a17      	ldr	r2, [pc, #92]	; (8008d0c <rt_test_006_008_execute+0xac>)
 8008cae:	4820      	ldr	r0, [pc, #128]	; (8008d30 <rt_test_006_008_execute+0xd0>)
 8008cb0:	f7fa f946 	bl	8002f40 <chThdCreateStatic.constprop.103>
  test_set_step(2);
 8008cb4:	2302      	movs	r3, #2
    threads[4] = chThdCreateStatic(wa[4], WA_SIZE, prio+5, thread6, "A");
 8008cb6:	6120      	str	r0, [r4, #16]
  test_set_step(2);
 8008cb8:	6033      	str	r3, [r6, #0]
 8008cba:	2320      	movs	r3, #32
 8008cbc:	f383 8811 	msr	BASEPRI, r3
  return (bool)(tqp->next != (const thread_t *)tqp);
 8008cc0:	4c1c      	ldr	r4, [pc, #112]	; (8008d34 <rt_test_006_008_execute+0xd4>)
 8008cc2:	6823      	ldr	r3, [r4, #0]
  while (queue_notempty(&cp->queue)) {
 8008cc4:	42a3      	cmp	r3, r4
 8008cc6:	d00b      	beq.n	8008ce0 <rt_test_006_008_execute+0x80>
    chSchReadyI(queue_fifo_remove(&cp->queue))->u.rdymsg = MSG_RESET;
 8008cc8:	f06f 0501 	mvn.w	r5, #1
  tqp->next             = tp->queue.next;
 8008ccc:	681a      	ldr	r2, [r3, #0]
 8008cce:	4618      	mov	r0, r3
  tqp->next->queue.prev = (thread_t *)tqp;
 8008cd0:	6054      	str	r4, [r2, #4]
  tqp->next             = tp->queue.next;
 8008cd2:	6022      	str	r2, [r4, #0]
 8008cd4:	f7f8 feec 	bl	8001ab0 <chSchReadyI>
  return (bool)(tqp->next != (const thread_t *)tqp);
 8008cd8:	6823      	ldr	r3, [r4, #0]
 8008cda:	6245      	str	r5, [r0, #36]	; 0x24
  while (queue_notempty(&cp->queue)) {
 8008cdc:	42a3      	cmp	r3, r4
 8008cde:	d1f5      	bne.n	8008ccc <rt_test_006_008_execute+0x6c>
  chSchRescheduleS();
 8008ce0:	f7fc fbc6 	bl	8005470 <chSchRescheduleS>
 8008ce4:	2300      	movs	r3, #0
 8008ce6:	f383 8811 	msr	BASEPRI, r3
    test_wait_threads();
 8008cea:	f7ff f9f1 	bl	80080d0 <test_wait_threads>
}
 8008cee:	e8bd 4070 	ldmia.w	sp!, {r4, r5, r6, lr}
    test_assert_sequence("ABCDE", "invalid sequence");
 8008cf2:	4911      	ldr	r1, [pc, #68]	; (8008d38 <rt_test_006_008_execute+0xd8>)
 8008cf4:	4811      	ldr	r0, [pc, #68]	; (8008d3c <rt_test_006_008_execute+0xdc>)
 8008cf6:	f7f7 bf43 	b.w	8000b80 <_test_assert_sequence>
 8008cfa:	bf00      	nop
 8008cfc:	200012d0 	.word	0x200012d0
 8008d00:	20001c5c 	.word	0x20001c5c
 8008d04:	20001548 	.word	0x20001548
 8008d08:	0800b4c4 	.word	0x0800b4c4
 8008d0c:	08006691 	.word	0x08006691
 8008d10:	20001c74 	.word	0x20001c74
 8008d14:	0800c3cc 	.word	0x0800c3cc
 8008d18:	20001690 	.word	0x20001690
 8008d1c:	0800b684 	.word	0x0800b684
 8008d20:	200017d8 	.word	0x200017d8
 8008d24:	0800b44c 	.word	0x0800b44c
 8008d28:	20001920 	.word	0x20001920
 8008d2c:	0800b448 	.word	0x0800b448
 8008d30:	20001a68 	.word	0x20001a68
 8008d34:	2000080c 	.word	0x2000080c
 8008d38:	0800b524 	.word	0x0800b524
 8008d3c:	0800b4c0 	.word	0x0800b4c0

08008d40 <rt_test_006_007_execute>:
static void rt_test_006_007_execute(void) {
 8008d40:	e92d 41f0 	stmdb	sp!, {r4, r5, r6, r7, r8, lr}
  test_set_step(1);
 8008d44:	2401      	movs	r4, #1
  return ch.rlist.current;
 8008d46:	4b27      	ldr	r3, [pc, #156]	; (8008de4 <rt_test_006_007_execute+0xa4>)
    threads[0] = chThdCreateStatic(wa[0], WA_SIZE, prio+1, thread6, "E");
 8008d48:	4e27      	ldr	r6, [pc, #156]	; (8008de8 <rt_test_006_007_execute+0xa8>)
  return chThdGetSelfX()->prio;
 8008d4a:	699b      	ldr	r3, [r3, #24]
 8008d4c:	4d27      	ldr	r5, [pc, #156]	; (8008dec <rt_test_006_007_execute+0xac>)
 8008d4e:	689f      	ldr	r7, [r3, #8]
  test_set_step(1);
 8008d50:	f8df 80bc 	ldr.w	r8, [pc, #188]	; 8008e10 <rt_test_006_007_execute+0xd0>
    threads[0] = chThdCreateStatic(wa[0], WA_SIZE, prio+1, thread6, "E");
 8008d54:	1939      	adds	r1, r7, r4
 8008d56:	4632      	mov	r2, r6
 8008d58:	4628      	mov	r0, r5
 8008d5a:	4b25      	ldr	r3, [pc, #148]	; (8008df0 <rt_test_006_007_execute+0xb0>)
  test_set_step(1);
 8008d5c:	f8c8 4000 	str.w	r4, [r8]
    threads[0] = chThdCreateStatic(wa[0], WA_SIZE, prio+1, thread6, "E");
 8008d60:	f7fa f8ee 	bl	8002f40 <chThdCreateStatic.constprop.103>
 8008d64:	4c23      	ldr	r4, [pc, #140]	; (8008df4 <rt_test_006_007_execute+0xb4>)
    threads[1] = chThdCreateStatic(wa[1], WA_SIZE, prio+2, thread6, "D");
 8008d66:	1cb9      	adds	r1, r7, #2
    threads[0] = chThdCreateStatic(wa[0], WA_SIZE, prio+1, thread6, "E");
 8008d68:	6020      	str	r0, [r4, #0]
    threads[1] = chThdCreateStatic(wa[1], WA_SIZE, prio+2, thread6, "D");
 8008d6a:	4632      	mov	r2, r6
 8008d6c:	f505 70a4 	add.w	r0, r5, #328	; 0x148
 8008d70:	4b21      	ldr	r3, [pc, #132]	; (8008df8 <rt_test_006_007_execute+0xb8>)
 8008d72:	f7fa f8e5 	bl	8002f40 <chThdCreateStatic.constprop.103>
    threads[2] = chThdCreateStatic(wa[2], WA_SIZE, prio+3, thread6, "C");
 8008d76:	1cf9      	adds	r1, r7, #3
    threads[1] = chThdCreateStatic(wa[1], WA_SIZE, prio+2, thread6, "D");
 8008d78:	6060      	str	r0, [r4, #4]
    threads[2] = chThdCreateStatic(wa[2], WA_SIZE, prio+3, thread6, "C");
 8008d7a:	4632      	mov	r2, r6
 8008d7c:	f505 7024 	add.w	r0, r5, #656	; 0x290
 8008d80:	4b1e      	ldr	r3, [pc, #120]	; (8008dfc <rt_test_006_007_execute+0xbc>)
 8008d82:	f7fa f8dd 	bl	8002f40 <chThdCreateStatic.constprop.103>
    threads[3] = chThdCreateStatic(wa[3], WA_SIZE, prio+4, thread6, "B");
 8008d86:	1d39      	adds	r1, r7, #4
    threads[2] = chThdCreateStatic(wa[2], WA_SIZE, prio+3, thread6, "C");
 8008d88:	60a0      	str	r0, [r4, #8]
    threads[3] = chThdCreateStatic(wa[3], WA_SIZE, prio+4, thread6, "B");
 8008d8a:	4632      	mov	r2, r6
 8008d8c:	f505 7076 	add.w	r0, r5, #984	; 0x3d8
 8008d90:	4b1b      	ldr	r3, [pc, #108]	; (8008e00 <rt_test_006_007_execute+0xc0>)
 8008d92:	f7fa f8d5 	bl	8002f40 <chThdCreateStatic.constprop.103>
    threads[4] = chThdCreateStatic(wa[4], WA_SIZE, prio+5, thread6, "A");
 8008d96:	1d79      	adds	r1, r7, #5
    threads[3] = chThdCreateStatic(wa[3], WA_SIZE, prio+4, thread6, "B");
 8008d98:	60e0      	str	r0, [r4, #12]
    threads[4] = chThdCreateStatic(wa[4], WA_SIZE, prio+5, thread6, "A");
 8008d9a:	4632      	mov	r2, r6
 8008d9c:	f505 60a4 	add.w	r0, r5, #1312	; 0x520
 8008da0:	4b18      	ldr	r3, [pc, #96]	; (8008e04 <rt_test_006_007_execute+0xc4>)
 8008da2:	f7fa f8cd 	bl	8002f40 <chThdCreateStatic.constprop.103>
  test_set_step(2);
 8008da6:	2302      	movs	r3, #2
    threads[4] = chThdCreateStatic(wa[4], WA_SIZE, prio+5, thread6, "A");
 8008da8:	6120      	str	r0, [r4, #16]
  test_set_step(2);
 8008daa:	f8c8 3000 	str.w	r3, [r8]
 8008dae:	2320      	movs	r3, #32
 8008db0:	f383 8811 	msr	BASEPRI, r3
    chCondSignalI(&c1);
 8008db4:	f7f8 ff1c 	bl	8001bf0 <chCondSignalI.constprop.92>
    chCondSignalI(&c1);
 8008db8:	f7f8 ff1a 	bl	8001bf0 <chCondSignalI.constprop.92>
    chCondSignalI(&c1);
 8008dbc:	f7f8 ff18 	bl	8001bf0 <chCondSignalI.constprop.92>
    chCondSignalI(&c1);
 8008dc0:	f7f8 ff16 	bl	8001bf0 <chCondSignalI.constprop.92>
    chCondSignalI(&c1);
 8008dc4:	f7f8 ff14 	bl	8001bf0 <chCondSignalI.constprop.92>
    chSchRescheduleS();
 8008dc8:	f7fc fb52 	bl	8005470 <chSchRescheduleS>
 8008dcc:	2300      	movs	r3, #0
 8008dce:	f383 8811 	msr	BASEPRI, r3
    test_wait_threads();
 8008dd2:	f7ff f97d 	bl	80080d0 <test_wait_threads>
}
 8008dd6:	e8bd 41f0 	ldmia.w	sp!, {r4, r5, r6, r7, r8, lr}
    test_assert_sequence("ABCDE", "invalid sequence");
 8008dda:	490b      	ldr	r1, [pc, #44]	; (8008e08 <rt_test_006_007_execute+0xc8>)
 8008ddc:	480b      	ldr	r0, [pc, #44]	; (8008e0c <rt_test_006_007_execute+0xcc>)
 8008dde:	f7f7 becf 	b.w	8000b80 <_test_assert_sequence>
 8008de2:	bf00      	nop
 8008de4:	200012d0 	.word	0x200012d0
 8008de8:	08006691 	.word	0x08006691
 8008dec:	20001548 	.word	0x20001548
 8008df0:	0800b4c4 	.word	0x0800b4c4
 8008df4:	20001c74 	.word	0x20001c74
 8008df8:	0800c3cc 	.word	0x0800c3cc
 8008dfc:	0800b684 	.word	0x0800b684
 8008e00:	0800b44c 	.word	0x0800b44c
 8008e04:	0800b448 	.word	0x0800b448
 8008e08:	0800b524 	.word	0x0800b524
 8008e0c:	0800b4c0 	.word	0x0800b4c0
 8008e10:	20001c5c 	.word	0x20001c5c
	...

08008e20 <rt_test_005_006_teardown>:
 *   must not change from "not taken".
 * .
 */

static void rt_test_005_006_teardown(void) {
  test_wait_threads();
 8008e20:	f7ff b956 	b.w	80080d0 <test_wait_threads>
	...

08008e30 <rt_test_006_004_teardown>:
 8008e30:	f7ff b94e 	b.w	80080d0 <test_wait_threads>
	...

08008e40 <rt_test_006_001_execute>:
static void rt_test_006_001_execute(void) {
 8008e40:	b5f8      	push	{r3, r4, r5, r6, r7, lr}
  test_set_step(2);
 8008e42:	2302      	movs	r3, #2
  test_set_step(3);
 8008e44:	2503      	movs	r5, #3
  return ch.rlist.current;
 8008e46:	4f22      	ldr	r7, [pc, #136]	; (8008ed0 <rt_test_006_001_execute+0x90>)
  test_set_step(2);
 8008e48:	4e22      	ldr	r6, [pc, #136]	; (8008ed4 <rt_test_006_001_execute+0x94>)
  return chThdGetSelfX()->prio;
 8008e4a:	69ba      	ldr	r2, [r7, #24]
    chMtxLock(&m1);
 8008e4c:	4822      	ldr	r0, [pc, #136]	; (8008ed8 <rt_test_006_001_execute+0x98>)
 8008e4e:	6894      	ldr	r4, [r2, #8]
  test_set_step(2);
 8008e50:	6033      	str	r3, [r6, #0]
    chMtxLock(&m1);
 8008e52:	f7fb fa35 	bl	80042c0 <chMtxLock>
    threads[0] = chThdCreateStatic(wa[0], WA_SIZE, prio+1, thread1, "E");
 8008e56:	1c61      	adds	r1, r4, #1
 8008e58:	4b20      	ldr	r3, [pc, #128]	; (8008edc <rt_test_006_001_execute+0x9c>)
 8008e5a:	4a21      	ldr	r2, [pc, #132]	; (8008ee0 <rt_test_006_001_execute+0xa0>)
 8008e5c:	4821      	ldr	r0, [pc, #132]	; (8008ee4 <rt_test_006_001_execute+0xa4>)
  test_set_step(3);
 8008e5e:	6035      	str	r5, [r6, #0]
    threads[0] = chThdCreateStatic(wa[0], WA_SIZE, prio+1, thread1, "E");
 8008e60:	f7fa f86e 	bl	8002f40 <chThdCreateStatic.constprop.103>
 8008e64:	4d20      	ldr	r5, [pc, #128]	; (8008ee8 <rt_test_006_001_execute+0xa8>)
    threads[1] = chThdCreateStatic(wa[1], WA_SIZE, prio+2, thread1, "D");
 8008e66:	1ca1      	adds	r1, r4, #2
    threads[0] = chThdCreateStatic(wa[0], WA_SIZE, prio+1, thread1, "E");
 8008e68:	6028      	str	r0, [r5, #0]
    threads[1] = chThdCreateStatic(wa[1], WA_SIZE, prio+2, thread1, "D");
 8008e6a:	4b20      	ldr	r3, [pc, #128]	; (8008eec <rt_test_006_001_execute+0xac>)
 8008e6c:	4a1c      	ldr	r2, [pc, #112]	; (8008ee0 <rt_test_006_001_execute+0xa0>)
 8008e6e:	4820      	ldr	r0, [pc, #128]	; (8008ef0 <rt_test_006_001_execute+0xb0>)
 8008e70:	f7fa f866 	bl	8002f40 <chThdCreateStatic.constprop.103>
    threads[2] = chThdCreateStatic(wa[2], WA_SIZE, prio+3, thread1, "C");
 8008e74:	1ce1      	adds	r1, r4, #3
    threads[1] = chThdCreateStatic(wa[1], WA_SIZE, prio+2, thread1, "D");
 8008e76:	6068      	str	r0, [r5, #4]
    threads[2] = chThdCreateStatic(wa[2], WA_SIZE, prio+3, thread1, "C");
 8008e78:	4b1e      	ldr	r3, [pc, #120]	; (8008ef4 <rt_test_006_001_execute+0xb4>)
 8008e7a:	4a19      	ldr	r2, [pc, #100]	; (8008ee0 <rt_test_006_001_execute+0xa0>)
 8008e7c:	481e      	ldr	r0, [pc, #120]	; (8008ef8 <rt_test_006_001_execute+0xb8>)
 8008e7e:	f7fa f85f 	bl	8002f40 <chThdCreateStatic.constprop.103>
    threads[3] = chThdCreateStatic(wa[3], WA_SIZE, prio+4, thread1, "B");
 8008e82:	1d21      	adds	r1, r4, #4
    threads[2] = chThdCreateStatic(wa[2], WA_SIZE, prio+3, thread1, "C");
 8008e84:	60a8      	str	r0, [r5, #8]
    threads[3] = chThdCreateStatic(wa[3], WA_SIZE, prio+4, thread1, "B");
 8008e86:	4b1d      	ldr	r3, [pc, #116]	; (8008efc <rt_test_006_001_execute+0xbc>)
 8008e88:	4a15      	ldr	r2, [pc, #84]	; (8008ee0 <rt_test_006_001_execute+0xa0>)
 8008e8a:	481d      	ldr	r0, [pc, #116]	; (8008f00 <rt_test_006_001_execute+0xc0>)
 8008e8c:	f7fa f858 	bl	8002f40 <chThdCreateStatic.constprop.103>
    threads[4] = chThdCreateStatic(wa[4], WA_SIZE, prio+5, thread1, "A");
 8008e90:	1d61      	adds	r1, r4, #5
 8008e92:	4a13      	ldr	r2, [pc, #76]	; (8008ee0 <rt_test_006_001_execute+0xa0>)
    threads[3] = chThdCreateStatic(wa[3], WA_SIZE, prio+4, thread1, "B");
 8008e94:	60e8      	str	r0, [r5, #12]
    threads[4] = chThdCreateStatic(wa[4], WA_SIZE, prio+5, thread1, "A");
 8008e96:	4b1b      	ldr	r3, [pc, #108]	; (8008f04 <rt_test_006_001_execute+0xc4>)
 8008e98:	481b      	ldr	r0, [pc, #108]	; (8008f08 <rt_test_006_001_execute+0xc8>)
 8008e9a:	f7fa f851 	bl	8002f40 <chThdCreateStatic.constprop.103>
  test_set_step(4);
 8008e9e:	2304      	movs	r3, #4
    threads[4] = chThdCreateStatic(wa[4], WA_SIZE, prio+5, thread1, "A");
 8008ea0:	6128      	str	r0, [r5, #16]
    chMtxUnlock(&m1);
 8008ea2:	480d      	ldr	r0, [pc, #52]	; (8008ed8 <rt_test_006_001_execute+0x98>)
  test_set_step(4);
 8008ea4:	6033      	str	r3, [r6, #0]
    chMtxUnlock(&m1);
 8008ea6:	f7fd f913 	bl	80060d0 <chMtxUnlock>
    test_wait_threads();
 8008eaa:	f7ff f911 	bl	80080d0 <test_wait_threads>
 8008eae:	69bb      	ldr	r3, [r7, #24]
    test_assert(prio == chThdGetPriorityX(), "wrong priority level");
 8008eb0:	4916      	ldr	r1, [pc, #88]	; (8008f0c <rt_test_006_001_execute+0xcc>)
 8008eb2:	6898      	ldr	r0, [r3, #8]
 8008eb4:	1b00      	subs	r0, r0, r4
 8008eb6:	fab0 f080 	clz	r0, r0
 8008eba:	0940      	lsrs	r0, r0, #5
 8008ebc:	f7f7 fd48 	bl	8000950 <_test_assert>
 8008ec0:	b100      	cbz	r0, 8008ec4 <rt_test_006_001_execute+0x84>
}
 8008ec2:	bdf8      	pop	{r3, r4, r5, r6, r7, pc}
    test_assert_sequence("ABCDE", "invalid sequence");
 8008ec4:	4912      	ldr	r1, [pc, #72]	; (8008f10 <rt_test_006_001_execute+0xd0>)
 8008ec6:	4813      	ldr	r0, [pc, #76]	; (8008f14 <rt_test_006_001_execute+0xd4>)
}
 8008ec8:	e8bd 40f8 	ldmia.w	sp!, {r3, r4, r5, r6, r7, lr}
    test_assert_sequence("ABCDE", "invalid sequence");
 8008ecc:	f7f7 be58 	b.w	8000b80 <_test_assert_sequence>
 8008ed0:	200012d0 	.word	0x200012d0
 8008ed4:	20001c5c 	.word	0x20001c5c
 8008ed8:	20000840 	.word	0x20000840
 8008edc:	0800b4c4 	.word	0x0800b4c4
 8008ee0:	080069d1 	.word	0x080069d1
 8008ee4:	20001548 	.word	0x20001548
 8008ee8:	20001c74 	.word	0x20001c74
 8008eec:	0800c3cc 	.word	0x0800c3cc
 8008ef0:	20001690 	.word	0x20001690
 8008ef4:	0800b684 	.word	0x0800b684
 8008ef8:	200017d8 	.word	0x200017d8
 8008efc:	0800b44c 	.word	0x0800b44c
 8008f00:	20001920 	.word	0x20001920
 8008f04:	0800b448 	.word	0x0800b448
 8008f08:	20001a68 	.word	0x20001a68
 8008f0c:	0800b488 	.word	0x0800b488
 8008f10:	0800b524 	.word	0x0800b524
 8008f14:	0800b4c0 	.word	0x0800b4c0
	...

08008f20 <rt_test_005_005_teardown>:
 8008f20:	f7ff b8d6 	b.w	80080d0 <test_wait_threads>
	...

08008f30 <rt_test_005_004_execute>:
static void rt_test_005_004_execute(void) {
 8008f30:	b570      	push	{r4, r5, r6, lr}
  test_set_step(1);
 8008f32:	2501      	movs	r5, #1
  return ch.rlist.current;
 8008f34:	4b22      	ldr	r3, [pc, #136]	; (8008fc0 <rt_test_005_004_execute+0x90>)
 8008f36:	4c23      	ldr	r4, [pc, #140]	; (8008fc4 <rt_test_005_004_execute+0x94>)
  return chThdGetSelfX()->prio;
 8008f38:	699a      	ldr	r2, [r3, #24]
    threads[0] = chThdCreateStatic(wa[0], WA_SIZE, chThdGetPriorityX()+1, thread1, "A");
 8008f3a:	4823      	ldr	r0, [pc, #140]	; (8008fc8 <rt_test_005_004_execute+0x98>)
 8008f3c:	6891      	ldr	r1, [r2, #8]
 8008f3e:	4b23      	ldr	r3, [pc, #140]	; (8008fcc <rt_test_005_004_execute+0x9c>)
 8008f40:	4429      	add	r1, r5
 8008f42:	4a23      	ldr	r2, [pc, #140]	; (8008fd0 <rt_test_005_004_execute+0xa0>)
  test_set_step(1);
 8008f44:	6025      	str	r5, [r4, #0]
    threads[0] = chThdCreateStatic(wa[0], WA_SIZE, chThdGetPriorityX()+1, thread1, "A");
 8008f46:	f7f9 fffb 	bl	8002f40 <chThdCreateStatic.constprop.103>
  test_set_step(2);
 8008f4a:	2502      	movs	r5, #2
    threads[0] = chThdCreateStatic(wa[0], WA_SIZE, chThdGetPriorityX()+1, thread1, "A");
 8008f4c:	4b21      	ldr	r3, [pc, #132]	; (8008fd4 <rt_test_005_004_execute+0xa4>)
  test_set_step(2);
 8008f4e:	6025      	str	r5, [r4, #0]
    threads[0] = chThdCreateStatic(wa[0], WA_SIZE, chThdGetPriorityX()+1, thread1, "A");
 8008f50:	6018      	str	r0, [r3, #0]
 8008f52:	2320      	movs	r3, #32
 8008f54:	f383 8811 	msr	BASEPRI, r3
 8008f58:	4c1f      	ldr	r4, [pc, #124]	; (8008fd8 <rt_test_005_004_execute+0xa8>)
      chSchReadyI(queue_fifo_remove(&sp->queue))->u.rdymsg = MSG_OK;
 8008f5a:	2600      	movs	r6, #0
 8008f5c:	e002      	b.n	8008f64 <rt_test_005_004_execute+0x34>
  while (n > (cnt_t)0) {
 8008f5e:	2d01      	cmp	r5, #1
 8008f60:	d00e      	beq.n	8008f80 <rt_test_005_004_execute+0x50>
 8008f62:	2501      	movs	r5, #1
    if (++sp->cnt <= (cnt_t)0) {
 8008f64:	68a3      	ldr	r3, [r4, #8]
 8008f66:	3301      	adds	r3, #1
 8008f68:	2b00      	cmp	r3, #0
 8008f6a:	60a3      	str	r3, [r4, #8]
 8008f6c:	dcf7      	bgt.n	8008f5e <rt_test_005_004_execute+0x2e>
  thread_t *tp = tqp->next;
 8008f6e:	6820      	ldr	r0, [r4, #0]
  tqp->next             = tp->queue.next;
 8008f70:	6803      	ldr	r3, [r0, #0]
  tqp->next->queue.prev = (thread_t *)tqp;
 8008f72:	605c      	str	r4, [r3, #4]
  tqp->next             = tp->queue.next;
 8008f74:	6023      	str	r3, [r4, #0]
      chSchReadyI(queue_fifo_remove(&sp->queue))->u.rdymsg = MSG_OK;
 8008f76:	f7f8 fd9b 	bl	8001ab0 <chSchReadyI>
  while (n > (cnt_t)0) {
 8008f7a:	2d01      	cmp	r5, #1
      chSchReadyI(queue_fifo_remove(&sp->queue))->u.rdymsg = MSG_OK;
 8008f7c:	6246      	str	r6, [r0, #36]	; 0x24
  while (n > (cnt_t)0) {
 8008f7e:	d1f0      	bne.n	8008f62 <rt_test_005_004_execute+0x32>
    chSchRescheduleS();
 8008f80:	f7fc fa76 	bl	8005470 <chSchRescheduleS>
 8008f84:	2500      	movs	r5, #0
 8008f86:	f385 8811 	msr	BASEPRI, r5
    test_wait_threads();
 8008f8a:	f7ff f8a1 	bl	80080d0 <test_wait_threads>
 8008f8e:	2320      	movs	r3, #32
 8008f90:	f383 8811 	msr	BASEPRI, r3
    test_assert_lock(chSemGetCounterI(&sem1) == 1, "invalid counter");
 8008f94:	68a0      	ldr	r0, [r4, #8]
 8008f96:	4911      	ldr	r1, [pc, #68]	; (8008fdc <rt_test_005_004_execute+0xac>)
 8008f98:	f1a0 0001 	sub.w	r0, r0, #1
 8008f9c:	fab0 f080 	clz	r0, r0
 8008fa0:	0940      	lsrs	r0, r0, #5
 8008fa2:	f7f7 fcd5 	bl	8000950 <_test_assert>
 8008fa6:	b110      	cbz	r0, 8008fae <rt_test_005_004_execute+0x7e>
 8008fa8:	f385 8811 	msr	BASEPRI, r5
}
 8008fac:	bd70      	pop	{r4, r5, r6, pc}
 8008fae:	f380 8811 	msr	BASEPRI, r0
    test_assert_sequence("A", "invalid sequence");
 8008fb2:	490b      	ldr	r1, [pc, #44]	; (8008fe0 <rt_test_005_004_execute+0xb0>)
 8008fb4:	4805      	ldr	r0, [pc, #20]	; (8008fcc <rt_test_005_004_execute+0x9c>)
}
 8008fb6:	e8bd 4070 	ldmia.w	sp!, {r4, r5, r6, lr}
    test_assert_sequence("A", "invalid sequence");
 8008fba:	f7f7 bde1 	b.w	8000b80 <_test_assert_sequence>
 8008fbe:	bf00      	nop
 8008fc0:	200012d0 	.word	0x200012d0
 8008fc4:	20001c5c 	.word	0x20001c5c
 8008fc8:	20001548 	.word	0x20001548
 8008fcc:	0800b448 	.word	0x0800b448
 8008fd0:	08004411 	.word	0x08004411
 8008fd4:	20001c74 	.word	0x20001c74
 8008fd8:	20001528 	.word	0x20001528
 8008fdc:	0800b394 	.word	0x0800b394
 8008fe0:	0800b524 	.word	0x0800b524
	...

08008ff0 <rt_test_005_003_execute>:
  test_set_step(1);
 8008ff0:	2001      	movs	r0, #1
static void rt_test_005_003_execute(void) {
 8008ff2:	e92d 43f8 	stmdb	sp!, {r3, r4, r5, r6, r7, r8, r9, lr}
  test_set_step(1);
 8008ff6:	4d4b      	ldr	r5, [pc, #300]	; (8009124 <rt_test_005_003_execute+0x134>)
 8008ff8:	2320      	movs	r3, #32
 8008ffa:	6028      	str	r0, [r5, #0]
 8008ffc:	f383 8811 	msr	BASEPRI, r3
  if (--sp->cnt < (cnt_t)0) {
 8009000:	4c49      	ldr	r4, [pc, #292]	; (8009128 <rt_test_005_003_execute+0x138>)
 8009002:	68a3      	ldr	r3, [r4, #8]
 8009004:	3b01      	subs	r3, #1
 8009006:	bf5c      	itt	pl
 8009008:	60a3      	strpl	r3, [r4, #8]
 800900a:	2000      	movpl	r0, #0
 800900c:	2300      	movs	r3, #0
 800900e:	f383 8811 	msr	BASEPRI, r3
    test_assert(msg == MSG_TIMEOUT, "wrong wake-up message");
 8009012:	4946      	ldr	r1, [pc, #280]	; (800912c <rt_test_005_003_execute+0x13c>)
 8009014:	f7f7 fc9c 	bl	8000950 <_test_assert>
 8009018:	b108      	cbz	r0, 800901e <rt_test_005_003_execute+0x2e>
}
 800901a:	e8bd 83f8 	ldmia.w	sp!, {r3, r4, r5, r6, r7, r8, r9, pc}
  return (bool)(tqp->next == (const thread_t *)tqp);
 800901e:	6820      	ldr	r0, [r4, #0]
    test_assert(queue_isempty(&sem1.queue), "queue not empty");
 8009020:	4943      	ldr	r1, [pc, #268]	; (8009130 <rt_test_005_003_execute+0x140>)
 8009022:	1b00      	subs	r0, r0, r4
 8009024:	fab0 f080 	clz	r0, r0
 8009028:	0940      	lsrs	r0, r0, #5
 800902a:	f7f7 fc91 	bl	8000950 <_test_assert>
 800902e:	2800      	cmp	r0, #0
 8009030:	d1f3      	bne.n	800901a <rt_test_005_003_execute+0x2a>
    test_assert(sem1.cnt == 0, "counter not zero");
 8009032:	68a0      	ldr	r0, [r4, #8]
 8009034:	493f      	ldr	r1, [pc, #252]	; (8009134 <rt_test_005_003_execute+0x144>)
 8009036:	fab0 f080 	clz	r0, r0
 800903a:	0940      	lsrs	r0, r0, #5
 800903c:	f7f7 fc88 	bl	8000950 <_test_assert>
 8009040:	2800      	cmp	r0, #0
 8009042:	d1ea      	bne.n	800901a <rt_test_005_003_execute+0x2a>
  test_set_step(2);
 8009044:	2602      	movs	r6, #2
  return ch.rlist.current;
 8009046:	4a3c      	ldr	r2, [pc, #240]	; (8009138 <rt_test_005_003_execute+0x148>)
    threads[0] = chThdCreateStatic(wa[0], WA_SIZE, chThdGetPriorityX() - 1,
 8009048:	4603      	mov	r3, r0
  return chThdGetSelfX()->prio;
 800904a:	6991      	ldr	r1, [r2, #24]
 800904c:	483b      	ldr	r0, [pc, #236]	; (800913c <rt_test_005_003_execute+0x14c>)
 800904e:	6889      	ldr	r1, [r1, #8]
 8009050:	4a3b      	ldr	r2, [pc, #236]	; (8009140 <rt_test_005_003_execute+0x150>)
 8009052:	3901      	subs	r1, #1
  test_set_step(2);
 8009054:	602e      	str	r6, [r5, #0]
    threads[0] = chThdCreateStatic(wa[0], WA_SIZE, chThdGetPriorityX() - 1,
 8009056:	f7f9 ff73 	bl	8002f40 <chThdCreateStatic.constprop.103>
 800905a:	4b3a      	ldr	r3, [pc, #232]	; (8009144 <rt_test_005_003_execute+0x154>)
 800905c:	6018      	str	r0, [r3, #0]
    msg = chSemWaitTimeout(&sem1, TIME_MS2I(500));
 800905e:	f44f 707a 	mov.w	r0, #1000	; 0x3e8
 8009062:	f7fa f8cd 	bl	8003200 <chSemWaitTimeout.constprop.100>
 8009066:	4606      	mov	r6, r0
    test_wait_threads();
 8009068:	f7ff f832 	bl	80080d0 <test_wait_threads>
    test_assert(msg == MSG_OK, "wrong wake-up message");
 800906c:	fab6 f086 	clz	r0, r6
 8009070:	492e      	ldr	r1, [pc, #184]	; (800912c <rt_test_005_003_execute+0x13c>)
 8009072:	0940      	lsrs	r0, r0, #5
 8009074:	f7f7 fc6c 	bl	8000950 <_test_assert>
 8009078:	2800      	cmp	r0, #0
 800907a:	d1ce      	bne.n	800901a <rt_test_005_003_execute+0x2a>
 800907c:	6820      	ldr	r0, [r4, #0]
    test_assert(queue_isempty(&sem1.queue), "queue not empty");
 800907e:	492c      	ldr	r1, [pc, #176]	; (8009130 <rt_test_005_003_execute+0x140>)
 8009080:	1b00      	subs	r0, r0, r4
 8009082:	fab0 f080 	clz	r0, r0
 8009086:	0940      	lsrs	r0, r0, #5
 8009088:	f7f7 fc62 	bl	8000950 <_test_assert>
 800908c:	2800      	cmp	r0, #0
 800908e:	d1c4      	bne.n	800901a <rt_test_005_003_execute+0x2a>
    test_assert(sem1.cnt == 0, "counter not zero");
 8009090:	68a0      	ldr	r0, [r4, #8]
 8009092:	4928      	ldr	r1, [pc, #160]	; (8009134 <rt_test_005_003_execute+0x144>)
 8009094:	fab0 f080 	clz	r0, r0
 8009098:	0940      	lsrs	r0, r0, #5
 800909a:	f7f7 fc59 	bl	8000950 <_test_assert>
 800909e:	2800      	cmp	r0, #0
 80090a0:	d1bb      	bne.n	800901a <rt_test_005_003_execute+0x2a>
  test_set_step(3);
 80090a2:	2303      	movs	r3, #3
 80090a4:	602b      	str	r3, [r5, #0]
    target_time = chTimeAddX(test_wait_tick(), TIME_MS2I(5 * 50));
 80090a6:	f7fa fdf3 	bl	8003c90 <test_wait_tick>
 80090aa:	2641      	movs	r6, #65	; 0x41
 80090ac:	4681      	mov	r9, r0
      test_assert(msg == MSG_TIMEOUT, "wrong wake-up message");
 80090ae:	f8df 807c 	ldr.w	r8, [pc, #124]	; 800912c <rt_test_005_003_execute+0x13c>
      test_assert(queue_isempty(&sem1.queue), "queue not empty");
 80090b2:	4f1f      	ldr	r7, [pc, #124]	; (8009130 <rt_test_005_003_execute+0x140>)
      test_assert(sem1.cnt == 0, "counter not zero");
 80090b4:	4d1f      	ldr	r5, [pc, #124]	; (8009134 <rt_test_005_003_execute+0x144>)
      test_emit_token('A' + i);
 80090b6:	4630      	mov	r0, r6
 80090b8:	f7f7 fcea 	bl	8000a90 <test_emit_token>
      msg = chSemWaitTimeout(&sem1, TIME_MS2I(50));
 80090bc:	2064      	movs	r0, #100	; 0x64
 80090be:	f7fa f89f 	bl	8003200 <chSemWaitTimeout.constprop.100>
      test_assert(msg == MSG_TIMEOUT, "wrong wake-up message");
 80090c2:	f1a0 30ff 	sub.w	r0, r0, #4294967295	; 0xffffffff
 80090c6:	fab0 f080 	clz	r0, r0
 80090ca:	4641      	mov	r1, r8
 80090cc:	0940      	lsrs	r0, r0, #5
 80090ce:	f7f7 fc3f 	bl	8000950 <_test_assert>
 80090d2:	2800      	cmp	r0, #0
 80090d4:	d1a1      	bne.n	800901a <rt_test_005_003_execute+0x2a>
 80090d6:	6820      	ldr	r0, [r4, #0]
      test_assert(queue_isempty(&sem1.queue), "queue not empty");
 80090d8:	4639      	mov	r1, r7
 80090da:	1b00      	subs	r0, r0, r4
 80090dc:	fab0 f080 	clz	r0, r0
 80090e0:	0940      	lsrs	r0, r0, #5
 80090e2:	f7f7 fc35 	bl	8000950 <_test_assert>
 80090e6:	2800      	cmp	r0, #0
 80090e8:	d197      	bne.n	800901a <rt_test_005_003_execute+0x2a>
      test_assert(sem1.cnt == 0, "counter not zero");
 80090ea:	68a0      	ldr	r0, [r4, #8]
 80090ec:	4629      	mov	r1, r5
 80090ee:	fab0 f080 	clz	r0, r0
 80090f2:	0940      	lsrs	r0, r0, #5
 80090f4:	f7f7 fc2c 	bl	8000950 <_test_assert>
 80090f8:	3601      	adds	r6, #1
 80090fa:	b2f6      	uxtb	r6, r6
 80090fc:	2800      	cmp	r0, #0
 80090fe:	d18c      	bne.n	800901a <rt_test_005_003_execute+0x2a>
    for (i = 0; i < 5; i++) {
 8009100:	2e46      	cmp	r6, #70	; 0x46
 8009102:	d1d8      	bne.n	80090b6 <rt_test_005_003_execute+0xc6>
    test_assert_sequence("ABCDE", "invalid sequence");
 8009104:	4910      	ldr	r1, [pc, #64]	; (8009148 <rt_test_005_003_execute+0x158>)
 8009106:	4811      	ldr	r0, [pc, #68]	; (800914c <rt_test_005_003_execute+0x15c>)
 8009108:	f7f7 fd3a 	bl	8000b80 <_test_assert_sequence>
 800910c:	2800      	cmp	r0, #0
 800910e:	d184      	bne.n	800901a <rt_test_005_003_execute+0x2a>
 8009110:	f509 71fc 	add.w	r1, r9, #504	; 0x1f8
 8009114:	f509 70fa 	add.w	r0, r9, #500	; 0x1f4
    test_assert_time_window(target_time,
 8009118:	b289      	uxth	r1, r1
 800911a:	b280      	uxth	r0, r0
}
 800911c:	e8bd 43f8 	ldmia.w	sp!, {r3, r4, r5, r6, r7, r8, r9, lr}
    test_assert_time_window(target_time,
 8009120:	f7f7 ba26 	b.w	8000570 <_test_assert_time_window.constprop.3>
 8009124:	20001c5c 	.word	0x20001c5c
 8009128:	20001528 	.word	0x20001528
 800912c:	0800a478 	.word	0x0800a478
 8009130:	0800b3b4 	.word	0x0800b3b4
 8009134:	0800b3c4 	.word	0x0800b3c4
 8009138:	200012d0 	.word	0x200012d0
 800913c:	20001548 	.word	0x20001548
 8009140:	08006031 	.word	0x08006031
 8009144:	20001c74 	.word	0x20001c74
 8009148:	0800b524 	.word	0x0800b524
 800914c:	0800b4c0 	.word	0x0800b4c0

08009150 <rt_test_005_002_execute>:
static void rt_test_005_002_execute(void) {
 8009150:	e92d 41f0 	stmdb	sp!, {r4, r5, r6, r7, r8, lr}
  test_set_step(1);
 8009154:	2501      	movs	r5, #1
  return ch.rlist.current;
 8009156:	4f2a      	ldr	r7, [pc, #168]	; (8009200 <rt_test_005_002_execute+0xb0>)
    threads[0] = chThdCreateStatic(wa[0], WA_SIZE, chThdGetPriorityX()+5, thread1, "A");
 8009158:	4e2a      	ldr	r6, [pc, #168]	; (8009204 <rt_test_005_002_execute+0xb4>)
  return chThdGetSelfX()->prio;
 800915a:	69bb      	ldr	r3, [r7, #24]
 800915c:	4c2a      	ldr	r4, [pc, #168]	; (8009208 <rt_test_005_002_execute+0xb8>)
 800915e:	6899      	ldr	r1, [r3, #8]
  test_set_step(1);
 8009160:	f8df 80cc 	ldr.w	r8, [pc, #204]	; 8009230 <rt_test_005_002_execute+0xe0>
    threads[0] = chThdCreateStatic(wa[0], WA_SIZE, chThdGetPriorityX()+5, thread1, "A");
 8009164:	4632      	mov	r2, r6
 8009166:	3105      	adds	r1, #5
 8009168:	4620      	mov	r0, r4
 800916a:	4b28      	ldr	r3, [pc, #160]	; (800920c <rt_test_005_002_execute+0xbc>)
  test_set_step(1);
 800916c:	f8c8 5000 	str.w	r5, [r8]
    threads[0] = chThdCreateStatic(wa[0], WA_SIZE, chThdGetPriorityX()+5, thread1, "A");
 8009170:	f7f9 fee6 	bl	8002f40 <chThdCreateStatic.constprop.103>
 8009174:	69bb      	ldr	r3, [r7, #24]
 8009176:	4d26      	ldr	r5, [pc, #152]	; (8009210 <rt_test_005_002_execute+0xc0>)
    threads[1] = chThdCreateStatic(wa[1], WA_SIZE, chThdGetPriorityX()+1, thread1, "B");
 8009178:	6899      	ldr	r1, [r3, #8]
 800917a:	4632      	mov	r2, r6
    threads[0] = chThdCreateStatic(wa[0], WA_SIZE, chThdGetPriorityX()+5, thread1, "A");
 800917c:	6028      	str	r0, [r5, #0]
    threads[1] = chThdCreateStatic(wa[1], WA_SIZE, chThdGetPriorityX()+1, thread1, "B");
 800917e:	3101      	adds	r1, #1
 8009180:	f504 70a4 	add.w	r0, r4, #328	; 0x148
 8009184:	4b23      	ldr	r3, [pc, #140]	; (8009214 <rt_test_005_002_execute+0xc4>)
 8009186:	f7f9 fedb 	bl	8002f40 <chThdCreateStatic.constprop.103>
 800918a:	69bb      	ldr	r3, [r7, #24]
 800918c:	6068      	str	r0, [r5, #4]
    threads[2] = chThdCreateStatic(wa[2], WA_SIZE, chThdGetPriorityX()+3, thread1, "C");
 800918e:	6899      	ldr	r1, [r3, #8]
 8009190:	4632      	mov	r2, r6
 8009192:	3103      	adds	r1, #3
 8009194:	f504 7024 	add.w	r0, r4, #656	; 0x290
 8009198:	4b1f      	ldr	r3, [pc, #124]	; (8009218 <rt_test_005_002_execute+0xc8>)
 800919a:	f7f9 fed1 	bl	8002f40 <chThdCreateStatic.constprop.103>
 800919e:	69bb      	ldr	r3, [r7, #24]
 80091a0:	60a8      	str	r0, [r5, #8]
    threads[3] = chThdCreateStatic(wa[3], WA_SIZE, chThdGetPriorityX()+4, thread1, "D");
 80091a2:	6899      	ldr	r1, [r3, #8]
 80091a4:	4632      	mov	r2, r6
 80091a6:	3104      	adds	r1, #4
 80091a8:	f504 7076 	add.w	r0, r4, #984	; 0x3d8
 80091ac:	4b1b      	ldr	r3, [pc, #108]	; (800921c <rt_test_005_002_execute+0xcc>)
 80091ae:	f7f9 fec7 	bl	8002f40 <chThdCreateStatic.constprop.103>
 80091b2:	69bb      	ldr	r3, [r7, #24]
    threads[4] = chThdCreateStatic(wa[4], WA_SIZE, chThdGetPriorityX()+2, thread1, "E");
 80091b4:	4632      	mov	r2, r6
 80091b6:	6899      	ldr	r1, [r3, #8]
    threads[3] = chThdCreateStatic(wa[3], WA_SIZE, chThdGetPriorityX()+4, thread1, "D");
 80091b8:	60e8      	str	r0, [r5, #12]
    threads[4] = chThdCreateStatic(wa[4], WA_SIZE, chThdGetPriorityX()+2, thread1, "E");
 80091ba:	3102      	adds	r1, #2
 80091bc:	f504 60a4 	add.w	r0, r4, #1312	; 0x520
 80091c0:	4b17      	ldr	r3, [pc, #92]	; (8009220 <rt_test_005_002_execute+0xd0>)
 80091c2:	f7f9 febd 	bl	8002f40 <chThdCreateStatic.constprop.103>
  test_set_step(2);
 80091c6:	2302      	movs	r3, #2
    chSemSignal(&sem1);
 80091c8:	4c16      	ldr	r4, [pc, #88]	; (8009224 <rt_test_005_002_execute+0xd4>)
    threads[4] = chThdCreateStatic(wa[4], WA_SIZE, chThdGetPriorityX()+2, thread1, "E");
 80091ca:	6128      	str	r0, [r5, #16]
    chSemSignal(&sem1);
 80091cc:	4620      	mov	r0, r4
  test_set_step(2);
 80091ce:	f8c8 3000 	str.w	r3, [r8]
    chSemSignal(&sem1);
 80091d2:	f7f9 ff45 	bl	8003060 <chSemSignal>
    chSemSignal(&sem1);
 80091d6:	4620      	mov	r0, r4
 80091d8:	f7f9 ff42 	bl	8003060 <chSemSignal>
    chSemSignal(&sem1);
 80091dc:	4620      	mov	r0, r4
 80091de:	f7f9 ff3f 	bl	8003060 <chSemSignal>
    chSemSignal(&sem1);
 80091e2:	4620      	mov	r0, r4
 80091e4:	f7f9 ff3c 	bl	8003060 <chSemSignal>
    chSemSignal(&sem1);
 80091e8:	4620      	mov	r0, r4
 80091ea:	f7f9 ff39 	bl	8003060 <chSemSignal>
    test_wait_threads();
 80091ee:	f7fe ff6f 	bl	80080d0 <test_wait_threads>
}
 80091f2:	e8bd 41f0 	ldmia.w	sp!, {r4, r5, r6, r7, r8, lr}
    test_assert_sequence("ABCDE", "invalid sequence");
 80091f6:	490c      	ldr	r1, [pc, #48]	; (8009228 <rt_test_005_002_execute+0xd8>)
 80091f8:	480c      	ldr	r0, [pc, #48]	; (800922c <rt_test_005_002_execute+0xdc>)
 80091fa:	f7f7 bcc1 	b.w	8000b80 <_test_assert_sequence>
 80091fe:	bf00      	nop
 8009200:	200012d0 	.word	0x200012d0
 8009204:	08004411 	.word	0x08004411
 8009208:	20001548 	.word	0x20001548
 800920c:	0800b448 	.word	0x0800b448
 8009210:	20001c74 	.word	0x20001c74
 8009214:	0800b44c 	.word	0x0800b44c
 8009218:	0800b684 	.word	0x0800b684
 800921c:	0800c3cc 	.word	0x0800c3cc
 8009220:	0800b4c4 	.word	0x0800b4c4
 8009224:	20001528 	.word	0x20001528
 8009228:	0800b524 	.word	0x0800b524
 800922c:	0800b4c0 	.word	0x0800b4c0
 8009230:	20001c5c 	.word	0x20001c5c
	...

08009240 <rt_test_004_001_execute>:

static void rt_test_004_001_execute(void) {
 8009240:	e92d 41f0 	stmdb	sp!, {r4, r5, r6, r7, r8, lr}
  msg_t msg;

  /* [4.1.1] The function chThdSuspendTimeoutS() is invoked, the thread
     is remotely resumed with message @p MSG_OK. On return the message
     and the state of the reference are tested.*/
  test_set_step(1);
 8009244:	2401      	movs	r4, #1
  return ch.rlist.current;
 8009246:	4d31      	ldr	r5, [pc, #196]	; (800930c <rt_test_004_001_execute+0xcc>)
 8009248:	4f31      	ldr	r7, [pc, #196]	; (8009310 <rt_test_004_001_execute+0xd0>)
  return chThdGetSelfX()->prio;
 800924a:	69aa      	ldr	r2, [r5, #24]
  {
    threads[0] = chThdCreateStatic(wa[0], WA_SIZE, chThdGetPriorityX()-1, thread1, "A");
 800924c:	4b31      	ldr	r3, [pc, #196]	; (8009314 <rt_test_004_001_execute+0xd4>)
 800924e:	6891      	ldr	r1, [r2, #8]
 8009250:	4831      	ldr	r0, [pc, #196]	; (8009318 <rt_test_004_001_execute+0xd8>)
 8009252:	4a32      	ldr	r2, [pc, #200]	; (800931c <rt_test_004_001_execute+0xdc>)
 8009254:	3901      	subs	r1, #1
  test_set_step(1);
 8009256:	603c      	str	r4, [r7, #0]
    threads[0] = chThdCreateStatic(wa[0], WA_SIZE, chThdGetPriorityX()-1, thread1, "A");
 8009258:	f7f9 fe72 	bl	8002f40 <chThdCreateStatic.constprop.103>
 800925c:	4b30      	ldr	r3, [pc, #192]	; (8009320 <rt_test_004_001_execute+0xe0>)
 800925e:	2620      	movs	r6, #32
 8009260:	6018      	str	r0, [r3, #0]
 8009262:	f386 8811 	msr	BASEPRI, r6
  *trp = tp;
 8009266:	4c2f      	ldr	r4, [pc, #188]	; (8009324 <rt_test_004_001_execute+0xe4>)
  return ch.rlist.current;
 8009268:	69ab      	ldr	r3, [r5, #24]
    chSchGoSleepS(newstate);
 800926a:	2003      	movs	r0, #3
  tp->u.wttrp = trp;
 800926c:	625c      	str	r4, [r3, #36]	; 0x24
  *trp = tp;
 800926e:	6023      	str	r3, [r4, #0]
 8009270:	f7f9 ff16 	bl	80030a0 <chSchGoSleepS>
  return currp->u.rdymsg;
 8009274:	69aa      	ldr	r2, [r5, #24]
 8009276:	2300      	movs	r3, #0
 8009278:	f8d2 8024 	ldr.w	r8, [r2, #36]	; 0x24
 800927c:	f383 8811 	msr	BASEPRI, r3
    chSysLock();
    msg = chThdSuspendTimeoutS(&tr1, TIME_INFINITE);
    chSysUnlock();
    test_assert(NULL == tr1, "not NULL");
 8009280:	6820      	ldr	r0, [r4, #0]
 8009282:	4929      	ldr	r1, [pc, #164]	; (8009328 <rt_test_004_001_execute+0xe8>)
 8009284:	fab0 f080 	clz	r0, r0
 8009288:	0940      	lsrs	r0, r0, #5
 800928a:	f7f7 fb61 	bl	8000950 <_test_assert>
 800928e:	b108      	cbz	r0, 8009294 <rt_test_004_001_execute+0x54>
                            chTimeAddX(time, TIME_MS2I(1000) + CH_CFG_ST_TIMEDELTA + 1),
                            "out of time window");
    test_assert(NULL == tr1, "not NULL");
    test_assert(MSG_TIMEOUT == msg, "wrong returned message");
  }
}
 8009290:	e8bd 81f0 	ldmia.w	sp!, {r4, r5, r6, r7, r8, pc}
    test_assert(MSG_OK == msg,"wrong returned message");
 8009294:	fab8 f088 	clz	r0, r8
 8009298:	4924      	ldr	r1, [pc, #144]	; (800932c <rt_test_004_001_execute+0xec>)
 800929a:	0940      	lsrs	r0, r0, #5
 800929c:	f7f7 fb58 	bl	8000950 <_test_assert>
 80092a0:	4680      	mov	r8, r0
 80092a2:	2800      	cmp	r0, #0
 80092a4:	d1f4      	bne.n	8009290 <rt_test_004_001_execute+0x50>
    test_wait_threads();
 80092a6:	f7fe ff13 	bl	80080d0 <test_wait_threads>
  test_set_step(2);
 80092aa:	2302      	movs	r3, #2
 80092ac:	603b      	str	r3, [r7, #0]
 80092ae:	f386 8811 	msr	BASEPRI, r6
 80092b2:	f04f 4280 	mov.w	r2, #1073741824	; 0x40000000
 80092b6:	69ab      	ldr	r3, [r5, #24]
  return chSchGoSleepTimeoutS(CH_STATE_SUSPENDED, timeout);
 80092b8:	f44f 61fa 	mov.w	r1, #2000	; 0x7d0
 80092bc:	6a55      	ldr	r5, [r2, #36]	; 0x24
 80092be:	2003      	movs	r0, #3
  tp->u.wttrp = trp;
 80092c0:	625c      	str	r4, [r3, #36]	; 0x24
  *trp = tp;
 80092c2:	6023      	str	r3, [r4, #0]
  return chSchGoSleepTimeoutS(CH_STATE_SUSPENDED, timeout);
 80092c4:	f7f9 ff74 	bl	80031b0 <chSchGoSleepTimeoutS>
 80092c8:	b2ad      	uxth	r5, r5
 80092ca:	4606      	mov	r6, r0
 80092cc:	f388 8811 	msr	BASEPRI, r8
 80092d0:	f205 71d3 	addw	r1, r5, #2003	; 0x7d3
 80092d4:	f505 60fa 	add.w	r0, r5, #2000	; 0x7d0
    test_assert_time_window(chTimeAddX(time, TIME_MS2I(1000)),
 80092d8:	b289      	uxth	r1, r1
 80092da:	b280      	uxth	r0, r0
 80092dc:	f7f7 f948 	bl	8000570 <_test_assert_time_window.constprop.3>
 80092e0:	2800      	cmp	r0, #0
 80092e2:	d1d5      	bne.n	8009290 <rt_test_004_001_execute+0x50>
    test_assert(NULL == tr1, "not NULL");
 80092e4:	6820      	ldr	r0, [r4, #0]
 80092e6:	4910      	ldr	r1, [pc, #64]	; (8009328 <rt_test_004_001_execute+0xe8>)
 80092e8:	fab0 f080 	clz	r0, r0
 80092ec:	0940      	lsrs	r0, r0, #5
 80092ee:	f7f7 fb2f 	bl	8000950 <_test_assert>
 80092f2:	2800      	cmp	r0, #0
 80092f4:	d1cc      	bne.n	8009290 <rt_test_004_001_execute+0x50>
    test_assert(MSG_TIMEOUT == msg, "wrong returned message");
 80092f6:	f1a6 30ff 	sub.w	r0, r6, #4294967295	; 0xffffffff
 80092fa:	fab0 f080 	clz	r0, r0
}
 80092fe:	e8bd 41f0 	ldmia.w	sp!, {r4, r5, r6, r7, r8, lr}
    test_assert(MSG_TIMEOUT == msg, "wrong returned message");
 8009302:	0940      	lsrs	r0, r0, #5
 8009304:	4909      	ldr	r1, [pc, #36]	; (800932c <rt_test_004_001_execute+0xec>)
 8009306:	f7f7 bb23 	b.w	8000950 <_test_assert>
 800930a:	bf00      	nop
 800930c:	200012d0 	.word	0x200012d0
 8009310:	20001c5c 	.word	0x20001c5c
 8009314:	0800b448 	.word	0x0800b448
 8009318:	20001548 	.word	0x20001548
 800931c:	08006091 	.word	0x08006091
 8009320:	20001c74 	.word	0x20001c74
 8009324:	20001c88 	.word	0x20001c88
 8009328:	0800b31c 	.word	0x0800b31c
 800932c:	0800b328 	.word	0x0800b328

08009330 <rt_test_003_002_execute>:
 * - [3.2.3] Creating 5 threads with pseudo-random priority, execution
 *   sequence is tested.
 * .
 */

static void rt_test_003_002_execute(void) {
 8009330:	b5f8      	push	{r3, r4, r5, r6, r7, lr}

  /* [3.2.1] Creating 5 threads with increasing priority, execution
     sequence is tested.*/
  test_set_step(1);
 8009332:	2401      	movs	r4, #1
 8009334:	4d53      	ldr	r5, [pc, #332]	; (8009484 <rt_test_003_002_execute+0x154>)
 8009336:	4e54      	ldr	r6, [pc, #336]	; (8009488 <rt_test_003_002_execute+0x158>)
  return chThdGetSelfX()->prio;
 8009338:	69aa      	ldr	r2, [r5, #24]
  {
    threads[0] = chThdCreateStatic(wa[0], WA_SIZE, chThdGetPriorityX()-5, thread, "E");
 800933a:	4b54      	ldr	r3, [pc, #336]	; (800948c <rt_test_003_002_execute+0x15c>)
 800933c:	6891      	ldr	r1, [r2, #8]
 800933e:	4854      	ldr	r0, [pc, #336]	; (8009490 <rt_test_003_002_execute+0x160>)
 8009340:	4a54      	ldr	r2, [pc, #336]	; (8009494 <rt_test_003_002_execute+0x164>)
 8009342:	3905      	subs	r1, #5
  test_set_step(1);
 8009344:	6034      	str	r4, [r6, #0]
    threads[0] = chThdCreateStatic(wa[0], WA_SIZE, chThdGetPriorityX()-5, thread, "E");
 8009346:	f7f9 fdfb 	bl	8002f40 <chThdCreateStatic.constprop.103>
 800934a:	69ab      	ldr	r3, [r5, #24]
 800934c:	4c52      	ldr	r4, [pc, #328]	; (8009498 <rt_test_003_002_execute+0x168>)
    threads[1] = chThdCreateStatic(wa[1], WA_SIZE, chThdGetPriorityX()-4, thread, "D");
 800934e:	6899      	ldr	r1, [r3, #8]
 8009350:	4a50      	ldr	r2, [pc, #320]	; (8009494 <rt_test_003_002_execute+0x164>)
    threads[0] = chThdCreateStatic(wa[0], WA_SIZE, chThdGetPriorityX()-5, thread, "E");
 8009352:	6020      	str	r0, [r4, #0]
    threads[1] = chThdCreateStatic(wa[1], WA_SIZE, chThdGetPriorityX()-4, thread, "D");
 8009354:	3904      	subs	r1, #4
 8009356:	4b51      	ldr	r3, [pc, #324]	; (800949c <rt_test_003_002_execute+0x16c>)
 8009358:	4851      	ldr	r0, [pc, #324]	; (80094a0 <rt_test_003_002_execute+0x170>)
 800935a:	f7f9 fdf1 	bl	8002f40 <chThdCreateStatic.constprop.103>
 800935e:	69ab      	ldr	r3, [r5, #24]
 8009360:	6060      	str	r0, [r4, #4]
    threads[2] = chThdCreateStatic(wa[2], WA_SIZE, chThdGetPriorityX()-3, thread, "C");
 8009362:	6899      	ldr	r1, [r3, #8]
 8009364:	4a4b      	ldr	r2, [pc, #300]	; (8009494 <rt_test_003_002_execute+0x164>)
 8009366:	4b4f      	ldr	r3, [pc, #316]	; (80094a4 <rt_test_003_002_execute+0x174>)
 8009368:	3903      	subs	r1, #3
 800936a:	484f      	ldr	r0, [pc, #316]	; (80094a8 <rt_test_003_002_execute+0x178>)
 800936c:	f7f9 fde8 	bl	8002f40 <chThdCreateStatic.constprop.103>
 8009370:	69ab      	ldr	r3, [r5, #24]
 8009372:	60a0      	str	r0, [r4, #8]
    threads[3] = chThdCreateStatic(wa[3], WA_SIZE, chThdGetPriorityX()-2, thread, "B");
 8009374:	6899      	ldr	r1, [r3, #8]
 8009376:	4a47      	ldr	r2, [pc, #284]	; (8009494 <rt_test_003_002_execute+0x164>)
 8009378:	4b4c      	ldr	r3, [pc, #304]	; (80094ac <rt_test_003_002_execute+0x17c>)
 800937a:	3902      	subs	r1, #2
 800937c:	484c      	ldr	r0, [pc, #304]	; (80094b0 <rt_test_003_002_execute+0x180>)
 800937e:	f7f9 fddf 	bl	8002f40 <chThdCreateStatic.constprop.103>
 8009382:	69ab      	ldr	r3, [r5, #24]
 8009384:	60e0      	str	r0, [r4, #12]
    threads[4] = chThdCreateStatic(wa[4], WA_SIZE, chThdGetPriorityX()-1, thread, "A");
 8009386:	6899      	ldr	r1, [r3, #8]
 8009388:	4a42      	ldr	r2, [pc, #264]	; (8009494 <rt_test_003_002_execute+0x164>)
 800938a:	3901      	subs	r1, #1
 800938c:	4b49      	ldr	r3, [pc, #292]	; (80094b4 <rt_test_003_002_execute+0x184>)
 800938e:	484a      	ldr	r0, [pc, #296]	; (80094b8 <rt_test_003_002_execute+0x188>)
 8009390:	f7f9 fdd6 	bl	8002f40 <chThdCreateStatic.constprop.103>
 8009394:	6120      	str	r0, [r4, #16]
    test_wait_threads();
 8009396:	f7fe fe9b 	bl	80080d0 <test_wait_threads>
    test_assert_sequence("ABCDE", "invalid sequence");
 800939a:	4948      	ldr	r1, [pc, #288]	; (80094bc <rt_test_003_002_execute+0x18c>)
 800939c:	4848      	ldr	r0, [pc, #288]	; (80094c0 <rt_test_003_002_execute+0x190>)
 800939e:	f7f7 fbef 	bl	8000b80 <_test_assert_sequence>
 80093a2:	b100      	cbz	r0, 80093a6 <rt_test_003_002_execute+0x76>
    threads[3] = chThdCreateStatic(wa[3], WA_SIZE, chThdGetPriorityX()-2, thread, "B");
    threads[2] = chThdCreateStatic(wa[2], WA_SIZE, chThdGetPriorityX()-3, thread, "C");
    test_wait_threads();
    test_assert_sequence("ABCDE", "invalid sequence");
  }
}
 80093a4:	bdf8      	pop	{r3, r4, r5, r6, r7, pc}
  test_set_step(2);
 80093a6:	2702      	movs	r7, #2
 80093a8:	69aa      	ldr	r2, [r5, #24]
    threads[4] = chThdCreateStatic(wa[4], WA_SIZE, chThdGetPriorityX()-1, thread, "A");
 80093aa:	4b42      	ldr	r3, [pc, #264]	; (80094b4 <rt_test_003_002_execute+0x184>)
 80093ac:	6891      	ldr	r1, [r2, #8]
 80093ae:	4842      	ldr	r0, [pc, #264]	; (80094b8 <rt_test_003_002_execute+0x188>)
 80093b0:	4a38      	ldr	r2, [pc, #224]	; (8009494 <rt_test_003_002_execute+0x164>)
 80093b2:	3901      	subs	r1, #1
  test_set_step(2);
 80093b4:	6037      	str	r7, [r6, #0]
    threads[4] = chThdCreateStatic(wa[4], WA_SIZE, chThdGetPriorityX()-1, thread, "A");
 80093b6:	f7f9 fdc3 	bl	8002f40 <chThdCreateStatic.constprop.103>
 80093ba:	69ab      	ldr	r3, [r5, #24]
 80093bc:	6120      	str	r0, [r4, #16]
    threads[3] = chThdCreateStatic(wa[3], WA_SIZE, chThdGetPriorityX()-2, thread, "B");
 80093be:	6899      	ldr	r1, [r3, #8]
 80093c0:	4a34      	ldr	r2, [pc, #208]	; (8009494 <rt_test_003_002_execute+0x164>)
 80093c2:	4b3a      	ldr	r3, [pc, #232]	; (80094ac <rt_test_003_002_execute+0x17c>)
 80093c4:	3902      	subs	r1, #2
 80093c6:	483a      	ldr	r0, [pc, #232]	; (80094b0 <rt_test_003_002_execute+0x180>)
 80093c8:	f7f9 fdba 	bl	8002f40 <chThdCreateStatic.constprop.103>
 80093cc:	69ab      	ldr	r3, [r5, #24]
 80093ce:	60e0      	str	r0, [r4, #12]
    threads[2] = chThdCreateStatic(wa[2], WA_SIZE, chThdGetPriorityX()-3, thread, "C");
 80093d0:	6899      	ldr	r1, [r3, #8]
 80093d2:	4a30      	ldr	r2, [pc, #192]	; (8009494 <rt_test_003_002_execute+0x164>)
 80093d4:	4b33      	ldr	r3, [pc, #204]	; (80094a4 <rt_test_003_002_execute+0x174>)
 80093d6:	3903      	subs	r1, #3
 80093d8:	4833      	ldr	r0, [pc, #204]	; (80094a8 <rt_test_003_002_execute+0x178>)
 80093da:	f7f9 fdb1 	bl	8002f40 <chThdCreateStatic.constprop.103>
 80093de:	69ab      	ldr	r3, [r5, #24]
 80093e0:	60a0      	str	r0, [r4, #8]
    threads[1] = chThdCreateStatic(wa[1], WA_SIZE, chThdGetPriorityX()-4, thread, "D");
 80093e2:	6899      	ldr	r1, [r3, #8]
 80093e4:	4a2b      	ldr	r2, [pc, #172]	; (8009494 <rt_test_003_002_execute+0x164>)
 80093e6:	4b2d      	ldr	r3, [pc, #180]	; (800949c <rt_test_003_002_execute+0x16c>)
 80093e8:	3904      	subs	r1, #4
 80093ea:	482d      	ldr	r0, [pc, #180]	; (80094a0 <rt_test_003_002_execute+0x170>)
 80093ec:	f7f9 fda8 	bl	8002f40 <chThdCreateStatic.constprop.103>
 80093f0:	69ab      	ldr	r3, [r5, #24]
 80093f2:	6060      	str	r0, [r4, #4]
    threads[0] = chThdCreateStatic(wa[0], WA_SIZE, chThdGetPriorityX()-5, thread, "E");
 80093f4:	6899      	ldr	r1, [r3, #8]
 80093f6:	4a27      	ldr	r2, [pc, #156]	; (8009494 <rt_test_003_002_execute+0x164>)
 80093f8:	3905      	subs	r1, #5
 80093fa:	4b24      	ldr	r3, [pc, #144]	; (800948c <rt_test_003_002_execute+0x15c>)
 80093fc:	4824      	ldr	r0, [pc, #144]	; (8009490 <rt_test_003_002_execute+0x160>)
 80093fe:	f7f9 fd9f 	bl	8002f40 <chThdCreateStatic.constprop.103>
 8009402:	6020      	str	r0, [r4, #0]
    test_wait_threads();
 8009404:	f7fe fe64 	bl	80080d0 <test_wait_threads>
    test_assert_sequence("ABCDE", "invalid sequence");
 8009408:	492c      	ldr	r1, [pc, #176]	; (80094bc <rt_test_003_002_execute+0x18c>)
 800940a:	482d      	ldr	r0, [pc, #180]	; (80094c0 <rt_test_003_002_execute+0x190>)
 800940c:	f7f7 fbb8 	bl	8000b80 <_test_assert_sequence>
 8009410:	2800      	cmp	r0, #0
 8009412:	d1c7      	bne.n	80093a4 <rt_test_003_002_execute+0x74>
  test_set_step(3);
 8009414:	2003      	movs	r0, #3
 8009416:	69aa      	ldr	r2, [r5, #24]
 8009418:	6030      	str	r0, [r6, #0]
    threads[1] = chThdCreateStatic(wa[1], WA_SIZE, chThdGetPriorityX()-4, thread, "D");
 800941a:	6891      	ldr	r1, [r2, #8]
 800941c:	4b1f      	ldr	r3, [pc, #124]	; (800949c <rt_test_003_002_execute+0x16c>)
 800941e:	4a1d      	ldr	r2, [pc, #116]	; (8009494 <rt_test_003_002_execute+0x164>)
 8009420:	3904      	subs	r1, #4
 8009422:	481f      	ldr	r0, [pc, #124]	; (80094a0 <rt_test_003_002_execute+0x170>)
 8009424:	f7f9 fd8c 	bl	8002f40 <chThdCreateStatic.constprop.103>
 8009428:	69ab      	ldr	r3, [r5, #24]
 800942a:	6060      	str	r0, [r4, #4]
    threads[0] = chThdCreateStatic(wa[0], WA_SIZE, chThdGetPriorityX()-5, thread, "E");
 800942c:	6899      	ldr	r1, [r3, #8]
 800942e:	4a19      	ldr	r2, [pc, #100]	; (8009494 <rt_test_003_002_execute+0x164>)
 8009430:	4b16      	ldr	r3, [pc, #88]	; (800948c <rt_test_003_002_execute+0x15c>)
 8009432:	3905      	subs	r1, #5
 8009434:	4816      	ldr	r0, [pc, #88]	; (8009490 <rt_test_003_002_execute+0x160>)
 8009436:	f7f9 fd83 	bl	8002f40 <chThdCreateStatic.constprop.103>
 800943a:	69ab      	ldr	r3, [r5, #24]
 800943c:	6020      	str	r0, [r4, #0]
    threads[4] = chThdCreateStatic(wa[4], WA_SIZE, chThdGetPriorityX()-1, thread, "A");
 800943e:	6899      	ldr	r1, [r3, #8]
 8009440:	4a14      	ldr	r2, [pc, #80]	; (8009494 <rt_test_003_002_execute+0x164>)
 8009442:	4b1c      	ldr	r3, [pc, #112]	; (80094b4 <rt_test_003_002_execute+0x184>)
 8009444:	3901      	subs	r1, #1
 8009446:	481c      	ldr	r0, [pc, #112]	; (80094b8 <rt_test_003_002_execute+0x188>)
 8009448:	f7f9 fd7a 	bl	8002f40 <chThdCreateStatic.constprop.103>
 800944c:	69ab      	ldr	r3, [r5, #24]
 800944e:	6120      	str	r0, [r4, #16]
    threads[3] = chThdCreateStatic(wa[3], WA_SIZE, chThdGetPriorityX()-2, thread, "B");
 8009450:	6899      	ldr	r1, [r3, #8]
 8009452:	4a10      	ldr	r2, [pc, #64]	; (8009494 <rt_test_003_002_execute+0x164>)
 8009454:	4b15      	ldr	r3, [pc, #84]	; (80094ac <rt_test_003_002_execute+0x17c>)
 8009456:	3902      	subs	r1, #2
 8009458:	4815      	ldr	r0, [pc, #84]	; (80094b0 <rt_test_003_002_execute+0x180>)
 800945a:	f7f9 fd71 	bl	8002f40 <chThdCreateStatic.constprop.103>
 800945e:	69ab      	ldr	r3, [r5, #24]
 8009460:	60e0      	str	r0, [r4, #12]
    threads[2] = chThdCreateStatic(wa[2], WA_SIZE, chThdGetPriorityX()-3, thread, "C");
 8009462:	6899      	ldr	r1, [r3, #8]
 8009464:	4a0b      	ldr	r2, [pc, #44]	; (8009494 <rt_test_003_002_execute+0x164>)
 8009466:	4b0f      	ldr	r3, [pc, #60]	; (80094a4 <rt_test_003_002_execute+0x174>)
 8009468:	3903      	subs	r1, #3
 800946a:	480f      	ldr	r0, [pc, #60]	; (80094a8 <rt_test_003_002_execute+0x178>)
 800946c:	f7f9 fd68 	bl	8002f40 <chThdCreateStatic.constprop.103>
 8009470:	60a0      	str	r0, [r4, #8]
    test_wait_threads();
 8009472:	f7fe fe2d 	bl	80080d0 <test_wait_threads>
}
 8009476:	e8bd 40f8 	ldmia.w	sp!, {r3, r4, r5, r6, r7, lr}
    test_assert_sequence("ABCDE", "invalid sequence");
 800947a:	4910      	ldr	r1, [pc, #64]	; (80094bc <rt_test_003_002_execute+0x18c>)
 800947c:	4810      	ldr	r0, [pc, #64]	; (80094c0 <rt_test_003_002_execute+0x190>)
 800947e:	f7f7 bb7f 	b.w	8000b80 <_test_assert_sequence>
 8009482:	bf00      	nop
 8009484:	200012d0 	.word	0x200012d0
 8009488:	20001c5c 	.word	0x20001c5c
 800948c:	0800b4c4 	.word	0x0800b4c4
 8009490:	20001548 	.word	0x20001548
 8009494:	08000af1 	.word	0x08000af1
 8009498:	20001c74 	.word	0x20001c74
 800949c:	0800c3cc 	.word	0x0800c3cc
 80094a0:	20001690 	.word	0x20001690
 80094a4:	0800b684 	.word	0x0800b684
 80094a8:	200017d8 	.word	0x200017d8
 80094ac:	0800b44c 	.word	0x0800b44c
 80094b0:	20001920 	.word	0x20001920
 80094b4:	0800b448 	.word	0x0800b448
 80094b8:	20001a68 	.word	0x20001a68
 80094bc:	0800b524 	.word	0x0800b524
 80094c0:	0800b4c0 	.word	0x0800b4c0
	...

080094d0 <chSemReset>:
void chSemReset(semaphore_t *sp, cnt_t n) {
 80094d0:	b570      	push	{r4, r5, r6, lr}
 80094d2:	2320      	movs	r3, #32
 80094d4:	f383 8811 	msr	BASEPRI, r3
  cnt = sp->cnt;
 80094d8:	6884      	ldr	r4, [r0, #8]
  sp->cnt = n;
 80094da:	6081      	str	r1, [r0, #8]
  while (++cnt <= (cnt_t)0) {
 80094dc:	3401      	adds	r4, #1
 80094de:	2c00      	cmp	r4, #0
 80094e0:	dc0c      	bgt.n	80094fc <chSemReset+0x2c>
 80094e2:	4605      	mov	r5, r0
    chSchReadyI(queue_lifo_remove(&sp->queue))->u.rdymsg = MSG_RESET;
 80094e4:	f06f 0601 	mvn.w	r6, #1
  thread_t *tp = tqp->prev;
 80094e8:	6868      	ldr	r0, [r5, #4]
  while (++cnt <= (cnt_t)0) {
 80094ea:	3401      	adds	r4, #1
  tqp->prev             = tp->queue.prev;
 80094ec:	6843      	ldr	r3, [r0, #4]
 80094ee:	606b      	str	r3, [r5, #4]
  tqp->prev->queue.next = (thread_t *)tqp;
 80094f0:	601d      	str	r5, [r3, #0]
    chSchReadyI(queue_lifo_remove(&sp->queue))->u.rdymsg = MSG_RESET;
 80094f2:	f7f8 fadd 	bl	8001ab0 <chSchReadyI>
  while (++cnt <= (cnt_t)0) {
 80094f6:	2c01      	cmp	r4, #1
    chSchReadyI(queue_lifo_remove(&sp->queue))->u.rdymsg = MSG_RESET;
 80094f8:	6246      	str	r6, [r0, #36]	; 0x24
  while (++cnt <= (cnt_t)0) {
 80094fa:	d1f5      	bne.n	80094e8 <chSemReset+0x18>
  chSchRescheduleS();
 80094fc:	f7fb ffb8 	bl	8005470 <chSchRescheduleS>
 8009500:	2300      	movs	r3, #0
 8009502:	f383 8811 	msr	BASEPRI, r3
}
 8009506:	bd70      	pop	{r4, r5, r6, pc}
	...

08009510 <rt_test_010_007_execute>:
static void rt_test_010_007_execute(void) {
 8009510:	e92d 43f8 	stmdb	sp!, {r3, r4, r5, r6, r7, r8, r9, lr}
  test_set_step(1);
 8009514:	2401      	movs	r4, #1
  return ch.rlist.current;
 8009516:	4d37      	ldr	r5, [pc, #220]	; (80095f4 <rt_test_010_007_execute+0xe4>)
 8009518:	f8df 8108 	ldr.w	r8, [pc, #264]	; 8009624 <rt_test_010_007_execute+0x114>
  return chThdGetSelfX()->prio;
 800951c:	69aa      	ldr	r2, [r5, #24]
    threads[0] = chThdCreateStatic(wa[0], WA_SIZE, chThdGetPriorityX()+5, bmk_thread7, NULL);
 800951e:	2300      	movs	r3, #0
 8009520:	6891      	ldr	r1, [r2, #8]
 8009522:	4835      	ldr	r0, [pc, #212]	; (80095f8 <rt_test_010_007_execute+0xe8>)
 8009524:	4a35      	ldr	r2, [pc, #212]	; (80095fc <rt_test_010_007_execute+0xec>)
 8009526:	3105      	adds	r1, #5
  test_set_step(1);
 8009528:	f8c8 4000 	str.w	r4, [r8]
    threads[0] = chThdCreateStatic(wa[0], WA_SIZE, chThdGetPriorityX()+5, bmk_thread7, NULL);
 800952c:	f7f9 fd08 	bl	8002f40 <chThdCreateStatic.constprop.103>
 8009530:	69ab      	ldr	r3, [r5, #24]
 8009532:	4c33      	ldr	r4, [pc, #204]	; (8009600 <rt_test_010_007_execute+0xf0>)
    threads[1] = chThdCreateStatic(wa[1], WA_SIZE, chThdGetPriorityX()+4, bmk_thread7, NULL);
 8009534:	6899      	ldr	r1, [r3, #8]
 8009536:	4a31      	ldr	r2, [pc, #196]	; (80095fc <rt_test_010_007_execute+0xec>)
    threads[0] = chThdCreateStatic(wa[0], WA_SIZE, chThdGetPriorityX()+5, bmk_thread7, NULL);
 8009538:	6020      	str	r0, [r4, #0]
    threads[1] = chThdCreateStatic(wa[1], WA_SIZE, chThdGetPriorityX()+4, bmk_thread7, NULL);
 800953a:	3104      	adds	r1, #4
 800953c:	2300      	movs	r3, #0
 800953e:	4831      	ldr	r0, [pc, #196]	; (8009604 <rt_test_010_007_execute+0xf4>)
 8009540:	f7f9 fcfe 	bl	8002f40 <chThdCreateStatic.constprop.103>
 8009544:	69ab      	ldr	r3, [r5, #24]
 8009546:	6060      	str	r0, [r4, #4]
    threads[2] = chThdCreateStatic(wa[2], WA_SIZE, chThdGetPriorityX()+3, bmk_thread7, NULL);
 8009548:	6899      	ldr	r1, [r3, #8]
 800954a:	4a2c      	ldr	r2, [pc, #176]	; (80095fc <rt_test_010_007_execute+0xec>)
 800954c:	2300      	movs	r3, #0
 800954e:	3103      	adds	r1, #3
 8009550:	482d      	ldr	r0, [pc, #180]	; (8009608 <rt_test_010_007_execute+0xf8>)
 8009552:	f7f9 fcf5 	bl	8002f40 <chThdCreateStatic.constprop.103>
 8009556:	69ab      	ldr	r3, [r5, #24]
 8009558:	60a0      	str	r0, [r4, #8]
    threads[3] = chThdCreateStatic(wa[3], WA_SIZE, chThdGetPriorityX()+2, bmk_thread7, NULL);
 800955a:	6899      	ldr	r1, [r3, #8]
 800955c:	4a27      	ldr	r2, [pc, #156]	; (80095fc <rt_test_010_007_execute+0xec>)
 800955e:	2300      	movs	r3, #0
 8009560:	3102      	adds	r1, #2
 8009562:	482a      	ldr	r0, [pc, #168]	; (800960c <rt_test_010_007_execute+0xfc>)
 8009564:	f7f9 fcec 	bl	8002f40 <chThdCreateStatic.constprop.103>
 8009568:	69ab      	ldr	r3, [r5, #24]
 800956a:	60e0      	str	r0, [r4, #12]
    threads[4] = chThdCreateStatic(wa[4], WA_SIZE, chThdGetPriorityX()+1, bmk_thread7, NULL);
 800956c:	6899      	ldr	r1, [r3, #8]
 800956e:	4a23      	ldr	r2, [pc, #140]	; (80095fc <rt_test_010_007_execute+0xec>)
 8009570:	2300      	movs	r3, #0
 8009572:	3101      	adds	r1, #1
 8009574:	4826      	ldr	r0, [pc, #152]	; (8009610 <rt_test_010_007_execute+0x100>)
 8009576:	f7f9 fce3 	bl	8002f40 <chThdCreateStatic.constprop.103>
  test_set_step(2);
 800957a:	2302      	movs	r3, #2
    threads[4] = chThdCreateStatic(wa[4], WA_SIZE, chThdGetPriorityX()+1, bmk_thread7, NULL);
 800957c:	6120      	str	r0, [r4, #16]
  test_set_step(2);
 800957e:	f8c8 3000 	str.w	r3, [r8]
    start = test_wait_tick();
 8009582:	f7fa fb85 	bl	8003c90 <test_wait_tick>
    n = 0;
 8009586:	f04f 0900 	mov.w	r9, #0
    start = test_wait_tick();
 800958a:	4605      	mov	r5, r0
 800958c:	f04f 4780 	mov.w	r7, #1073741824	; 0x40000000
 8009590:	f500 64fa 	add.w	r4, r0, #2000	; 0x7d0
 8009594:	b2a4      	uxth	r4, r4
      chSemReset(&sem1, 0);
 8009596:	4e1f      	ldr	r6, [pc, #124]	; (8009614 <rt_test_010_007_execute+0x104>)
 8009598:	1a24      	subs	r4, r4, r0
 800959a:	2100      	movs	r1, #0
 800959c:	4630      	mov	r0, r6
 800959e:	f7ff ff97 	bl	80094d0 <chSemReset>
 80095a2:	6a7b      	ldr	r3, [r7, #36]	; 0x24
      n++;
 80095a4:	f109 0901 	add.w	r9, r9, #1
  return (bool)((time - start) < (end - start));
 80095a8:	b29b      	uxth	r3, r3
 80095aa:	1b5b      	subs	r3, r3, r5
    } while (chVTIsSystemTimeWithinX(start, end));
 80095ac:	429c      	cmp	r4, r3
 80095ae:	dcf4      	bgt.n	800959a <rt_test_010_007_execute+0x8a>
  test_set_step(3);
 80095b0:	2303      	movs	r3, #3
 80095b2:	f8c8 3000 	str.w	r3, [r8]
    test_terminate_threads();
 80095b6:	f7f7 fa0b 	bl	80009d0 <test_terminate_threads>
    chSemReset(&sem1, 0);
 80095ba:	2100      	movs	r1, #0
 80095bc:	4815      	ldr	r0, [pc, #84]	; (8009614 <rt_test_010_007_execute+0x104>)
 80095be:	f7ff ff87 	bl	80094d0 <chSemReset>
    test_wait_threads();
 80095c2:	f7fe fd85 	bl	80080d0 <test_wait_threads>
  test_set_step(4);
 80095c6:	2304      	movs	r3, #4
    test_print("--- Score : ");
 80095c8:	4813      	ldr	r0, [pc, #76]	; (8009618 <rt_test_010_007_execute+0x108>)
  test_set_step(4);
 80095ca:	f8c8 3000 	str.w	r3, [r8]
    test_print("--- Score : ");
 80095ce:	f7f7 fabf 	bl	8000b50 <test_print>
    test_printn(n);
 80095d2:	4648      	mov	r0, r9
 80095d4:	f7f7 fa4c 	bl	8000a70 <test_printn>
    test_printn(n * 6);
 80095d8:	eb09 0949 	add.w	r9, r9, r9, lsl #1
    test_print(" reschedules/S, ");
 80095dc:	480f      	ldr	r0, [pc, #60]	; (800961c <rt_test_010_007_execute+0x10c>)
 80095de:	f7f7 fab7 	bl	8000b50 <test_print>
    test_printn(n * 6);
 80095e2:	ea4f 0049 	mov.w	r0, r9, lsl #1
 80095e6:	f7f7 fa43 	bl	8000a70 <test_printn>
}
 80095ea:	e8bd 43f8 	ldmia.w	sp!, {r3, r4, r5, r6, r7, r8, r9, lr}
    test_println(" ctxswc/S");
 80095ee:	480c      	ldr	r0, [pc, #48]	; (8009620 <rt_test_010_007_execute+0x110>)
 80095f0:	f7f7 ba8e 	b.w	8000b10 <test_println>
 80095f4:	200012d0 	.word	0x200012d0
 80095f8:	20001548 	.word	0x20001548
 80095fc:	080043c1 	.word	0x080043c1
 8009600:	20001c74 	.word	0x20001c74
 8009604:	20001690 	.word	0x20001690
 8009608:	200017d8 	.word	0x200017d8
 800960c:	20001920 	.word	0x20001920
 8009610:	20001a68 	.word	0x20001a68
 8009614:	20001534 	.word	0x20001534
 8009618:	0800b7c0 	.word	0x0800b7c0
 800961c:	0800b780 	.word	0x0800b780
 8009620:	0800b7a4 	.word	0x0800b7a4
 8009624:	20001c5c 	.word	0x20001c5c
	...

08009630 <rt_test_005_006_execute>:
}

static void rt_test_005_006_execute(void) {
 8009630:	e92d 41f0 	stmdb	sp!, {r4, r5, r6, r7, r8, lr}
  binary_semaphore_t bsem;
  msg_t msg;

  /* [5.6.1] Creating a binary semaphore in "taken" state, the state is
     checked.*/
  test_set_step(1);
 8009634:	2301      	movs	r3, #1
  sp->cnt = n;
 8009636:	2600      	movs	r6, #0
static void rt_test_005_006_execute(void) {
 8009638:	b084      	sub	sp, #16
  test_set_step(1);
 800963a:	4f5f      	ldr	r7, [pc, #380]	; (80097b8 <rt_test_005_006_execute+0x188>)
  tqp->next = (thread_t *)tqp;
 800963c:	ac01      	add	r4, sp, #4
 800963e:	603b      	str	r3, [r7, #0]
 8009640:	9603      	str	r6, [sp, #12]
  tqp->prev = (thread_t *)tqp;
 8009642:	e9cd 4401 	strd	r4, r4, [sp, #4]
 8009646:	f04f 0820 	mov.w	r8, #32
 800964a:	f388 8811 	msr	BASEPRI, r8
 */
static inline bool chBSemGetStateI(binary_semaphore_t *bsp) {

  chDbgCheckClassI();

  return (bsp->sem.cnt > (cnt_t)0) ? false : true;
 800964e:	9803      	ldr	r0, [sp, #12]
  {
    chBSemObjectInit(&bsem, true);
    test_assert_lock(chBSemGetStateI(&bsem) == true, "not taken");
 8009650:	495a      	ldr	r1, [pc, #360]	; (80097bc <rt_test_005_006_execute+0x18c>)
 8009652:	42b0      	cmp	r0, r6
 8009654:	bfcc      	ite	gt
 8009656:	2000      	movgt	r0, #0
 8009658:	2001      	movle	r0, #1
 800965a:	f7f7 f979 	bl	8000950 <_test_assert>
 800965e:	b120      	cbz	r0, 800966a <rt_test_005_006_execute+0x3a>
 8009660:	f386 8811 	msr	BASEPRI, r6
  {
    chBSemSignal(&bsem);
    test_assert_lock(chBSemGetStateI(&bsem) == false, "taken");
    test_assert_lock(chSemGetCounterI(&bsem.sem) == 1, "unexpected counter");
  }
}
 8009664:	b004      	add	sp, #16
 8009666:	e8bd 81f0 	ldmia.w	sp!, {r4, r5, r6, r7, r8, pc}
 800966a:	4605      	mov	r5, r0
 800966c:	f380 8811 	msr	BASEPRI, r0
  test_set_step(2);
 8009670:	2302      	movs	r3, #2
  chSemReset(&bsp->sem, taken ? (cnt_t)0 : (cnt_t)1);
 8009672:	4601      	mov	r1, r0
 8009674:	4620      	mov	r0, r4
 8009676:	603b      	str	r3, [r7, #0]
 8009678:	f7ff ff2a 	bl	80094d0 <chSemReset>
 800967c:	f388 8811 	msr	BASEPRI, r8
  return (bsp->sem.cnt > (cnt_t)0) ? false : true;
 8009680:	9803      	ldr	r0, [sp, #12]
    test_assert_lock(chBSemGetStateI(&bsem) == true, "not taken");
 8009682:	494e      	ldr	r1, [pc, #312]	; (80097bc <rt_test_005_006_execute+0x18c>)
 8009684:	2800      	cmp	r0, #0
 8009686:	bfcc      	ite	gt
 8009688:	2000      	movgt	r0, #0
 800968a:	2001      	movle	r0, #1
 800968c:	f7f7 f960 	bl	8000950 <_test_assert>
 8009690:	4606      	mov	r6, r0
 8009692:	b120      	cbz	r0, 800969e <rt_test_005_006_execute+0x6e>
 8009694:	f385 8811 	msr	BASEPRI, r5
}
 8009698:	b004      	add	sp, #16
 800969a:	e8bd 81f0 	ldmia.w	sp!, {r4, r5, r6, r7, r8, pc}
 800969e:	f380 8811 	msr	BASEPRI, r0
  test_set_step(3);
 80096a2:	2503      	movs	r5, #3
  return ch.rlist.current;
 80096a4:	4a46      	ldr	r2, [pc, #280]	; (80097c0 <rt_test_005_006_execute+0x190>)
    threads[0] = chThdCreateStatic(wa[0], WA_SIZE,
 80096a6:	4623      	mov	r3, r4
  return chThdGetSelfX()->prio;
 80096a8:	6991      	ldr	r1, [r2, #24]
 80096aa:	4846      	ldr	r0, [pc, #280]	; (80097c4 <rt_test_005_006_execute+0x194>)
 80096ac:	6889      	ldr	r1, [r1, #8]
 80096ae:	4a46      	ldr	r2, [pc, #280]	; (80097c8 <rt_test_005_006_execute+0x198>)
 80096b0:	3901      	subs	r1, #1
  test_set_step(3);
 80096b2:	603d      	str	r5, [r7, #0]
    threads[0] = chThdCreateStatic(wa[0], WA_SIZE,
 80096b4:	f7f9 fc44 	bl	8002f40 <chThdCreateStatic.constprop.103>
  test_set_step(4);
 80096b8:	2204      	movs	r2, #4
    threads[0] = chThdCreateStatic(wa[0], WA_SIZE,
 80096ba:	4b44      	ldr	r3, [pc, #272]	; (80097cc <rt_test_005_006_execute+0x19c>)
  test_set_step(4);
 80096bc:	603a      	str	r2, [r7, #0]
    threads[0] = chThdCreateStatic(wa[0], WA_SIZE,
 80096be:	6018      	str	r0, [r3, #0]
  return chSemWait(&bsp->sem);
 80096c0:	4620      	mov	r0, r4
 80096c2:	f7fa fe0d 	bl	80042e0 <chSemWait>
 80096c6:	4605      	mov	r5, r0
 80096c8:	f388 8811 	msr	BASEPRI, r8
  return (bsp->sem.cnt > (cnt_t)0) ? false : true;
 80096cc:	9803      	ldr	r0, [sp, #12]
    test_assert_lock(chBSemGetStateI(&bsem) == true, "not taken");
 80096ce:	493b      	ldr	r1, [pc, #236]	; (80097bc <rt_test_005_006_execute+0x18c>)
 80096d0:	2800      	cmp	r0, #0
 80096d2:	bfcc      	ite	gt
 80096d4:	2000      	movgt	r0, #0
 80096d6:	2001      	movle	r0, #1
 80096d8:	f7f7 f93a 	bl	8000950 <_test_assert>
 80096dc:	2800      	cmp	r0, #0
 80096de:	d1bf      	bne.n	8009660 <rt_test_005_006_execute+0x30>
 80096e0:	f380 8811 	msr	BASEPRI, r0
    test_assert(msg == MSG_OK, "unexpected message");
 80096e4:	fab5 f085 	clz	r0, r5
 80096e8:	4939      	ldr	r1, [pc, #228]	; (80097d0 <rt_test_005_006_execute+0x1a0>)
 80096ea:	0940      	lsrs	r0, r0, #5
 80096ec:	f7f7 f930 	bl	8000950 <_test_assert>
 80096f0:	2800      	cmp	r0, #0
 80096f2:	d1b7      	bne.n	8009664 <rt_test_005_006_execute+0x34>
  test_set_step(5);
 80096f4:	2305      	movs	r3, #5
 80096f6:	603b      	str	r3, [r7, #0]
 80096f8:	f388 8811 	msr	BASEPRI, r8
  if (bsp->sem.cnt < (cnt_t)1) {
 80096fc:	9b03      	ldr	r3, [sp, #12]
 80096fe:	2b00      	cmp	r3, #0
 8009700:	dd4e      	ble.n	80097a0 <rt_test_005_006_execute+0x170>
  chSchRescheduleS();
 8009702:	f7fb feb5 	bl	8005470 <chSchRescheduleS>
 8009706:	2500      	movs	r5, #0
 8009708:	f385 8811 	msr	BASEPRI, r5
 800970c:	f04f 0820 	mov.w	r8, #32
 8009710:	f388 8811 	msr	BASEPRI, r8
    test_assert_lock(chBSemGetStateI(&bsem) ==false, "still taken");
 8009714:	9803      	ldr	r0, [sp, #12]
 8009716:	492f      	ldr	r1, [pc, #188]	; (80097d4 <rt_test_005_006_execute+0x1a4>)
 8009718:	42a8      	cmp	r0, r5
 800971a:	bfd4      	ite	le
 800971c:	2000      	movle	r0, #0
 800971e:	2001      	movgt	r0, #1
 8009720:	f7f7 f916 	bl	8000950 <_test_assert>
 8009724:	4606      	mov	r6, r0
 8009726:	2800      	cmp	r0, #0
 8009728:	d1b4      	bne.n	8009694 <rt_test_005_006_execute+0x64>
 800972a:	f380 8811 	msr	BASEPRI, r0
 800972e:	f388 8811 	msr	BASEPRI, r8
    test_assert_lock(chSemGetCounterI(&bsem.sem) == 1, "unexpected counter");
 8009732:	9803      	ldr	r0, [sp, #12]
 8009734:	4928      	ldr	r1, [pc, #160]	; (80097d8 <rt_test_005_006_execute+0x1a8>)
 8009736:	f1a0 0001 	sub.w	r0, r0, #1
 800973a:	fab0 f080 	clz	r0, r0
 800973e:	0940      	lsrs	r0, r0, #5
 8009740:	f7f7 f906 	bl	8000950 <_test_assert>
 8009744:	2800      	cmp	r0, #0
 8009746:	d18b      	bne.n	8009660 <rt_test_005_006_execute+0x30>
 8009748:	f380 8811 	msr	BASEPRI, r0
  test_set_step(6);
 800974c:	2306      	movs	r3, #6
 800974e:	603b      	str	r3, [r7, #0]
 8009750:	f388 8811 	msr	BASEPRI, r8
  if (bsp->sem.cnt < (cnt_t)1) {
 8009754:	9b03      	ldr	r3, [sp, #12]
 8009756:	2b00      	cmp	r3, #0
 8009758:	dd26      	ble.n	80097a8 <rt_test_005_006_execute+0x178>
  chSchRescheduleS();
 800975a:	f7fb fe89 	bl	8005470 <chSchRescheduleS>
 800975e:	2600      	movs	r6, #0
 8009760:	f386 8811 	msr	BASEPRI, r6
 8009764:	2520      	movs	r5, #32
 8009766:	f385 8811 	msr	BASEPRI, r5
    test_assert_lock(chBSemGetStateI(&bsem) == false, "taken");
 800976a:	9803      	ldr	r0, [sp, #12]
 800976c:	491b      	ldr	r1, [pc, #108]	; (80097dc <rt_test_005_006_execute+0x1ac>)
 800976e:	42b0      	cmp	r0, r6
 8009770:	bfd4      	ite	le
 8009772:	2000      	movle	r0, #0
 8009774:	2001      	movgt	r0, #1
 8009776:	f7f7 f8eb 	bl	8000950 <_test_assert>
 800977a:	4604      	mov	r4, r0
 800977c:	2800      	cmp	r0, #0
 800977e:	f47f af6f 	bne.w	8009660 <rt_test_005_006_execute+0x30>
 8009782:	f380 8811 	msr	BASEPRI, r0
 8009786:	f385 8811 	msr	BASEPRI, r5
    test_assert_lock(chSemGetCounterI(&bsem.sem) == 1, "unexpected counter");
 800978a:	9803      	ldr	r0, [sp, #12]
 800978c:	4912      	ldr	r1, [pc, #72]	; (80097d8 <rt_test_005_006_execute+0x1a8>)
 800978e:	1e43      	subs	r3, r0, #1
 8009790:	4258      	negs	r0, r3
 8009792:	4158      	adcs	r0, r3
 8009794:	f7f7 f8dc 	bl	8000950 <_test_assert>
 8009798:	b150      	cbz	r0, 80097b0 <rt_test_005_006_execute+0x180>
 800979a:	f384 8811 	msr	BASEPRI, r4
 800979e:	e761      	b.n	8009664 <rt_test_005_006_execute+0x34>
    chSemSignalI(&bsp->sem);
 80097a0:	4620      	mov	r0, r4
 80097a2:	f7f8 fb1d 	bl	8001de0 <chSemSignalI>
 80097a6:	e7ac      	b.n	8009702 <rt_test_005_006_execute+0xd2>
 80097a8:	4620      	mov	r0, r4
 80097aa:	f7f8 fb19 	bl	8001de0 <chSemSignalI>
 80097ae:	e7d4      	b.n	800975a <rt_test_005_006_execute+0x12a>
 80097b0:	f380 8811 	msr	BASEPRI, r0
 80097b4:	e756      	b.n	8009664 <rt_test_005_006_execute+0x34>
 80097b6:	bf00      	nop
 80097b8:	20001c5c 	.word	0x20001c5c
 80097bc:	0800b3e8 	.word	0x0800b3e8
 80097c0:	200012d0 	.word	0x200012d0
 80097c4:	20001548 	.word	0x20001548
 80097c8:	08006061 	.word	0x08006061
 80097cc:	20001c74 	.word	0x20001c74
 80097d0:	0800b3f4 	.word	0x0800b3f4
 80097d4:	0800b408 	.word	0x0800b408
 80097d8:	0800b414 	.word	0x0800b414
 80097dc:	0800b3ec 	.word	0x0800b3ec

080097e0 <rt_test_005_001_execute>:
static void rt_test_005_001_execute(void) {
 80097e0:	e92d 43f8 	stmdb	sp!, {r3, r4, r5, r6, r7, r8, r9, lr}
  test_set_step(1);
 80097e4:	2301      	movs	r3, #1
    msg = chSemWait(&sem1);
 80097e6:	4c29      	ldr	r4, [pc, #164]	; (800988c <rt_test_005_001_execute+0xac>)
  test_set_step(1);
 80097e8:	4e29      	ldr	r6, [pc, #164]	; (8009890 <rt_test_005_001_execute+0xb0>)
    msg = chSemWait(&sem1);
 80097ea:	4620      	mov	r0, r4
  test_set_step(1);
 80097ec:	6033      	str	r3, [r6, #0]
    msg = chSemWait(&sem1);
 80097ee:	f7fa fd77 	bl	80042e0 <chSemWait>
 80097f2:	2520      	movs	r5, #32
 80097f4:	4607      	mov	r7, r0
 80097f6:	f385 8811 	msr	BASEPRI, r5
    test_assert_lock(chSemGetCounterI(&sem1) == 0, "wrong counter value");
 80097fa:	68a0      	ldr	r0, [r4, #8]
 80097fc:	4925      	ldr	r1, [pc, #148]	; (8009894 <rt_test_005_001_execute+0xb4>)
 80097fe:	fab0 f080 	clz	r0, r0
 8009802:	0940      	lsrs	r0, r0, #5
 8009804:	f7f7 f8a4 	bl	8000950 <_test_assert>
 8009808:	b120      	cbz	r0, 8009814 <rt_test_005_001_execute+0x34>
 800980a:	2300      	movs	r3, #0
 800980c:	f383 8811 	msr	BASEPRI, r3
}
 8009810:	e8bd 83f8 	ldmia.w	sp!, {r3, r4, r5, r6, r7, r8, r9, pc}
 8009814:	f380 8811 	msr	BASEPRI, r0
    test_assert(MSG_OK == msg, "wrong returned message");
 8009818:	fab7 f087 	clz	r0, r7
 800981c:	491e      	ldr	r1, [pc, #120]	; (8009898 <rt_test_005_001_execute+0xb8>)
 800981e:	0940      	lsrs	r0, r0, #5
 8009820:	f7f7 f896 	bl	8000950 <_test_assert>
 8009824:	4607      	mov	r7, r0
 8009826:	2800      	cmp	r0, #0
 8009828:	d1f2      	bne.n	8009810 <rt_test_005_001_execute+0x30>
  test_set_step(2);
 800982a:	f04f 0902 	mov.w	r9, #2
    chSemSignal(&sem1);
 800982e:	4620      	mov	r0, r4
  test_set_step(2);
 8009830:	f8c6 9000 	str.w	r9, [r6]
    chSemSignal(&sem1);
 8009834:	f7f9 fc14 	bl	8003060 <chSemSignal>
 8009838:	f385 8811 	msr	BASEPRI, r5
    test_assert_lock(chSemGetCounterI(&sem1) == 1, "wrong counter value");
 800983c:	68a0      	ldr	r0, [r4, #8]
 800983e:	4915      	ldr	r1, [pc, #84]	; (8009894 <rt_test_005_001_execute+0xb4>)
 8009840:	f1a0 0001 	sub.w	r0, r0, #1
 8009844:	fab0 f080 	clz	r0, r0
 8009848:	0940      	lsrs	r0, r0, #5
 800984a:	f7f7 f881 	bl	8000950 <_test_assert>
 800984e:	4680      	mov	r8, r0
 8009850:	b110      	cbz	r0, 8009858 <rt_test_005_001_execute+0x78>
 8009852:	f387 8811 	msr	BASEPRI, r7
 8009856:	e7db      	b.n	8009810 <rt_test_005_001_execute+0x30>
 8009858:	f380 8811 	msr	BASEPRI, r0
  test_set_step(3);
 800985c:	2303      	movs	r3, #3
    chSemReset(&sem1, 2);
 800985e:	4649      	mov	r1, r9
 8009860:	4620      	mov	r0, r4
  test_set_step(3);
 8009862:	6033      	str	r3, [r6, #0]
    chSemReset(&sem1, 2);
 8009864:	f7ff fe34 	bl	80094d0 <chSemReset>
 8009868:	f385 8811 	msr	BASEPRI, r5
    test_assert_lock(chSemGetCounterI(&sem1) == 2, "wrong counter value");
 800986c:	68a0      	ldr	r0, [r4, #8]
 800986e:	4909      	ldr	r1, [pc, #36]	; (8009894 <rt_test_005_001_execute+0xb4>)
 8009870:	f1a0 0002 	sub.w	r0, r0, #2
 8009874:	fab0 f080 	clz	r0, r0
 8009878:	0940      	lsrs	r0, r0, #5
 800987a:	f7f7 f869 	bl	8000950 <_test_assert>
 800987e:	b910      	cbnz	r0, 8009886 <rt_test_005_001_execute+0xa6>
 8009880:	f380 8811 	msr	BASEPRI, r0
 8009884:	e7c4      	b.n	8009810 <rt_test_005_001_execute+0x30>
 8009886:	f388 8811 	msr	BASEPRI, r8
 800988a:	e7c1      	b.n	8009810 <rt_test_005_001_execute+0x30>
 800988c:	20001528 	.word	0x20001528
 8009890:	20001c5c 	.word	0x20001c5c
 8009894:	0800b350 	.word	0x0800b350
 8009898:	0800b328 	.word	0x0800b328
 800989c:	00000000 	.word	0x00000000

080098a0 <rt_test_005_001_teardown>:
  chSemReset(&sem1, 0);
 80098a0:	2100      	movs	r1, #0
 80098a2:	4801      	ldr	r0, [pc, #4]	; (80098a8 <rt_test_005_001_teardown+0x8>)
 80098a4:	f7ff be14 	b.w	80094d0 <chSemReset>
 80098a8:	20001528 	.word	0x20001528
 80098ac:	00000000 	.word	0x00000000

080098b0 <chThdSetPriority>:
tprio_t chThdSetPriority(tprio_t newprio) {
 80098b0:	b510      	push	{r4, lr}
 80098b2:	2320      	movs	r3, #32
 80098b4:	f383 8811 	msr	BASEPRI, r3
  oldprio = currp->realprio;
 80098b8:	4b08      	ldr	r3, [pc, #32]	; (80098dc <chThdSetPriority+0x2c>)
 80098ba:	699b      	ldr	r3, [r3, #24]
 80098bc:	6bdc      	ldr	r4, [r3, #60]	; 0x3c
  if ((currp->prio == currp->realprio) || (newprio > currp->prio)) {
 80098be:	6899      	ldr	r1, [r3, #8]
 80098c0:	42a1      	cmp	r1, r4
 80098c2:	d001      	beq.n	80098c8 <chThdSetPriority+0x18>
 80098c4:	4281      	cmp	r1, r0
 80098c6:	d200      	bcs.n	80098ca <chThdSetPriority+0x1a>
    currp->prio = newprio;
 80098c8:	6098      	str	r0, [r3, #8]
  currp->realprio = newprio;
 80098ca:	63d8      	str	r0, [r3, #60]	; 0x3c
  chSchRescheduleS();
 80098cc:	f7fb fdd0 	bl	8005470 <chSchRescheduleS>
 80098d0:	2300      	movs	r3, #0
 80098d2:	f383 8811 	msr	BASEPRI, r3
}
 80098d6:	4620      	mov	r0, r4
 80098d8:	bd10      	pop	{r4, pc}
 80098da:	bf00      	nop
 80098dc:	200012d0 	.word	0x200012d0

080098e0 <rt_test_003_004_execute>:
    test_assert(chThdGetPriorityX() == prio + 2, "unexpected priority level");
  }

  /* [3.4.2] Raising thread priority above original priority but below
     the boosted level.*/
  test_set_step(2);
 80098e0:	2202      	movs	r2, #2
static void rt_test_003_004_execute(void) {
 80098e2:	e92d 41f0 	stmdb	sp!, {r4, r5, r6, r7, r8, lr}
  return ch.rlist.current;
 80098e6:	4d2f      	ldr	r5, [pc, #188]	; (80099a4 <rt_test_003_004_execute+0xc4>)
  test_set_step(2);
 80098e8:	f8df 80cc 	ldr.w	r8, [pc, #204]	; 80099b8 <rt_test_003_004_execute+0xd8>
 80098ec:	69ab      	ldr	r3, [r5, #24]
 80098ee:	f8c8 2000 	str.w	r2, [r8]
  return chThdGetSelfX()->prio;
 80098f2:	689c      	ldr	r4, [r3, #8]
    chThdGetSelfX()->prio += 2;
 80098f4:	18a6      	adds	r6, r4, r2
  {
    p1 = chThdSetPriority(prio + 1);
 80098f6:	1c67      	adds	r7, r4, #1
    chThdGetSelfX()->prio += 2;
 80098f8:	609e      	str	r6, [r3, #8]
    p1 = chThdSetPriority(prio + 1);
 80098fa:	4638      	mov	r0, r7
 80098fc:	f7ff ffd8 	bl	80098b0 <chThdSetPriority>
    test_assert(p1 == prio, "unexpected returned priority level");
 8009900:	1b00      	subs	r0, r0, r4
 8009902:	fab0 f080 	clz	r0, r0
 8009906:	4928      	ldr	r1, [pc, #160]	; (80099a8 <rt_test_003_004_execute+0xc8>)
 8009908:	0940      	lsrs	r0, r0, #5
 800990a:	f7f7 f821 	bl	8000950 <_test_assert>
 800990e:	b108      	cbz	r0, 8009914 <rt_test_003_004_execute+0x34>
    chSysLock();
    chThdGetSelfX()->prio = prio;
    chThdGetSelfX()->realprio = prio;
    chSysUnlock();
  }
}
 8009910:	e8bd 81f0 	ldmia.w	sp!, {r4, r5, r6, r7, r8, pc}
    test_assert(chThdGetSelfX()->prio == prio + 2, "unexpected priority level");
 8009914:	69ab      	ldr	r3, [r5, #24]
 8009916:	4925      	ldr	r1, [pc, #148]	; (80099ac <rt_test_003_004_execute+0xcc>)
 8009918:	6898      	ldr	r0, [r3, #8]
 800991a:	1b80      	subs	r0, r0, r6
 800991c:	fab0 f080 	clz	r0, r0
 8009920:	0940      	lsrs	r0, r0, #5
 8009922:	f7f7 f815 	bl	8000950 <_test_assert>
 8009926:	2800      	cmp	r0, #0
 8009928:	d1f2      	bne.n	8009910 <rt_test_003_004_execute+0x30>
    test_assert(chThdGetSelfX()->realprio == prio + 1, "unexpected returned real priority level");
 800992a:	69ab      	ldr	r3, [r5, #24]
 800992c:	4920      	ldr	r1, [pc, #128]	; (80099b0 <rt_test_003_004_execute+0xd0>)
 800992e:	6bd8      	ldr	r0, [r3, #60]	; 0x3c
 8009930:	1bc0      	subs	r0, r0, r7
 8009932:	fab0 f080 	clz	r0, r0
 8009936:	0940      	lsrs	r0, r0, #5
 8009938:	f7f7 f80a 	bl	8000950 <_test_assert>
 800993c:	2800      	cmp	r0, #0
 800993e:	d1e7      	bne.n	8009910 <rt_test_003_004_execute+0x30>
  test_set_step(3);
 8009940:	2303      	movs	r3, #3
    p1 = chThdSetPriority(prio + 3);
 8009942:	18e6      	adds	r6, r4, r3
 8009944:	4630      	mov	r0, r6
  test_set_step(3);
 8009946:	f8c8 3000 	str.w	r3, [r8]
    p1 = chThdSetPriority(prio + 3);
 800994a:	f7ff ffb1 	bl	80098b0 <chThdSetPriority>
    test_assert(p1 == prio + 1, "unexpected returned priority level");
 800994e:	1a38      	subs	r0, r7, r0
 8009950:	fab0 f080 	clz	r0, r0
 8009954:	4914      	ldr	r1, [pc, #80]	; (80099a8 <rt_test_003_004_execute+0xc8>)
 8009956:	0940      	lsrs	r0, r0, #5
 8009958:	f7f6 fffa 	bl	8000950 <_test_assert>
 800995c:	2800      	cmp	r0, #0
 800995e:	d1d7      	bne.n	8009910 <rt_test_003_004_execute+0x30>
    test_assert(chThdGetSelfX()->prio == prio + 3, "unexpected priority level");
 8009960:	69ab      	ldr	r3, [r5, #24]
 8009962:	4912      	ldr	r1, [pc, #72]	; (80099ac <rt_test_003_004_execute+0xcc>)
 8009964:	6898      	ldr	r0, [r3, #8]
 8009966:	1b80      	subs	r0, r0, r6
 8009968:	fab0 f080 	clz	r0, r0
 800996c:	0940      	lsrs	r0, r0, #5
 800996e:	f7f6 ffef 	bl	8000950 <_test_assert>
 8009972:	2800      	cmp	r0, #0
 8009974:	d1cc      	bne.n	8009910 <rt_test_003_004_execute+0x30>
    test_assert(chThdGetSelfX()->realprio == prio + 3, "unexpected real priority level");
 8009976:	69ab      	ldr	r3, [r5, #24]
 8009978:	490e      	ldr	r1, [pc, #56]	; (80099b4 <rt_test_003_004_execute+0xd4>)
 800997a:	6bd8      	ldr	r0, [r3, #60]	; 0x3c
 800997c:	1b80      	subs	r0, r0, r6
 800997e:	fab0 f080 	clz	r0, r0
 8009982:	0940      	lsrs	r0, r0, #5
 8009984:	f7f6 ffe4 	bl	8000950 <_test_assert>
 8009988:	2800      	cmp	r0, #0
 800998a:	d1c1      	bne.n	8009910 <rt_test_003_004_execute+0x30>
  test_set_step(4);
 800998c:	2304      	movs	r3, #4
 800998e:	f8c8 3000 	str.w	r3, [r8]
 8009992:	2320      	movs	r3, #32
 8009994:	f383 8811 	msr	BASEPRI, r3
  return ch.rlist.current;
 8009998:	69ab      	ldr	r3, [r5, #24]
    chThdGetSelfX()->prio = prio;
 800999a:	609c      	str	r4, [r3, #8]
    chThdGetSelfX()->realprio = prio;
 800999c:	63dc      	str	r4, [r3, #60]	; 0x3c
 800999e:	f380 8811 	msr	BASEPRI, r0
 80099a2:	e7b5      	b.n	8009910 <rt_test_003_004_execute+0x30>
 80099a4:	200012d0 	.word	0x200012d0
 80099a8:	0800b284 	.word	0x0800b284
 80099ac:	0800b2a8 	.word	0x0800b2a8
 80099b0:	0800b2c4 	.word	0x0800b2c4
 80099b4:	0800b2ec 	.word	0x0800b2ec
 80099b8:	20001c5c 	.word	0x20001c5c
 80099bc:	00000000 	.word	0x00000000

080099c0 <rt_test_003_003_execute>:
  test_set_step(1);
 80099c0:	2201      	movs	r2, #1
static void rt_test_003_003_execute(void) {
 80099c2:	e92d 41f0 	stmdb	sp!, {r4, r5, r6, r7, r8, lr}
 80099c6:	4e1c      	ldr	r6, [pc, #112]	; (8009a38 <rt_test_003_003_execute+0x78>)
  test_set_step(1);
 80099c8:	4f1c      	ldr	r7, [pc, #112]	; (8009a3c <rt_test_003_003_execute+0x7c>)
  return chThdGetSelfX()->prio;
 80099ca:	69b3      	ldr	r3, [r6, #24]
 80099cc:	603a      	str	r2, [r7, #0]
 80099ce:	689c      	ldr	r4, [r3, #8]
    p1 = chThdSetPriority(prio + 1);
 80099d0:	18a5      	adds	r5, r4, r2
 80099d2:	4628      	mov	r0, r5
 80099d4:	f7ff ff6c 	bl	80098b0 <chThdSetPriority>
 80099d8:	4680      	mov	r8, r0
    test_assert(p1 == prio, "unexpected returned priority level");
 80099da:	1b00      	subs	r0, r0, r4
 80099dc:	fab0 f080 	clz	r0, r0
 80099e0:	4917      	ldr	r1, [pc, #92]	; (8009a40 <rt_test_003_003_execute+0x80>)
 80099e2:	0940      	lsrs	r0, r0, #5
 80099e4:	f7f6 ffb4 	bl	8000950 <_test_assert>
 80099e8:	b108      	cbz	r0, 80099ee <rt_test_003_003_execute+0x2e>
}
 80099ea:	e8bd 81f0 	ldmia.w	sp!, {r4, r5, r6, r7, r8, pc}
 80099ee:	69b3      	ldr	r3, [r6, #24]
    test_assert(chThdGetPriorityX() == prio + 1, "unexpected priority level");
 80099f0:	4914      	ldr	r1, [pc, #80]	; (8009a44 <rt_test_003_003_execute+0x84>)
 80099f2:	6898      	ldr	r0, [r3, #8]
 80099f4:	1b40      	subs	r0, r0, r5
 80099f6:	fab0 f080 	clz	r0, r0
 80099fa:	0940      	lsrs	r0, r0, #5
 80099fc:	f7f6 ffa8 	bl	8000950 <_test_assert>
 8009a00:	2800      	cmp	r0, #0
 8009a02:	d1f2      	bne.n	80099ea <rt_test_003_003_execute+0x2a>
  test_set_step(2);
 8009a04:	2302      	movs	r3, #2
    p1 = chThdSetPriority(p1);
 8009a06:	4640      	mov	r0, r8
  test_set_step(2);
 8009a08:	603b      	str	r3, [r7, #0]
    p1 = chThdSetPriority(p1);
 8009a0a:	f7ff ff51 	bl	80098b0 <chThdSetPriority>
    test_assert(p1 == prio + 1, "unexpected returned priority level");
 8009a0e:	1a28      	subs	r0, r5, r0
 8009a10:	fab0 f080 	clz	r0, r0
 8009a14:	490a      	ldr	r1, [pc, #40]	; (8009a40 <rt_test_003_003_execute+0x80>)
 8009a16:	0940      	lsrs	r0, r0, #5
 8009a18:	f7f6 ff9a 	bl	8000950 <_test_assert>
 8009a1c:	2800      	cmp	r0, #0
 8009a1e:	d1e4      	bne.n	80099ea <rt_test_003_003_execute+0x2a>
 8009a20:	69b3      	ldr	r3, [r6, #24]
    test_assert(chThdGetPriorityX() == prio, "unexpected priority level");
 8009a22:	4908      	ldr	r1, [pc, #32]	; (8009a44 <rt_test_003_003_execute+0x84>)
 8009a24:	6898      	ldr	r0, [r3, #8]
 8009a26:	1b00      	subs	r0, r0, r4
 8009a28:	fab0 f080 	clz	r0, r0
}
 8009a2c:	e8bd 41f0 	ldmia.w	sp!, {r4, r5, r6, r7, r8, lr}
    test_assert(chThdGetPriorityX() == prio, "unexpected priority level");
 8009a30:	0940      	lsrs	r0, r0, #5
 8009a32:	f7f6 bf8d 	b.w	8000950 <_test_assert>
 8009a36:	bf00      	nop
 8009a38:	200012d0 	.word	0x200012d0
 8009a3c:	20001c5c 	.word	0x20001c5c
 8009a40:	0800b284 	.word	0x0800b284
 8009a44:	0800b2a8 	.word	0x0800b2a8
	...

08009a50 <chSysRestoreStatusX.part.2>:
 *
 * @param[in] sts       the system status to be restored.
 *
 * @xclass
 */
void chSysRestoreStatusX(syssts_t sts) {
 8009a50:	b510      	push	{r4, lr}
  __ASM volatile ("MRS %0, ipsr" : "=r" (result) );
 8009a52:	f3ef 8405 	mrs	r4, IPSR
 * @retval false        not running in ISR mode.
 * @retval true         running in ISR mode.
 */
static inline bool port_is_isr_context(void) {

  return (bool)((__get_IPSR() & 0x1FFU) != 0U);
 8009a56:	f3c4 0408 	ubfx	r4, r4, #0, #9

  if (port_irq_enabled(sts)) {
    if (port_is_isr_context()) {
 8009a5a:	b11c      	cbz	r4, 8009a64 <chSysRestoreStatusX.part.2+0x14>
  __ASM volatile ("MSR basepri, %0" : : "r" (basePri) : "memory");
 8009a5c:	2300      	movs	r3, #0
 8009a5e:	f383 8811 	msr	BASEPRI, r3
    else {
      chSchRescheduleS();
      chSysUnlock();
    }
  }
}
 8009a62:	bd10      	pop	{r4, pc}
      chSchRescheduleS();
 8009a64:	f7fb fd04 	bl	8005470 <chSchRescheduleS>
 8009a68:	f384 8811 	msr	BASEPRI, r4
}
 8009a6c:	bd10      	pop	{r4, pc}
 8009a6e:	bf00      	nop

08009a70 <rt_test_002_002_execute>:
  test_set_step(1);
 8009a70:	2301      	movs	r3, #1
static void rt_test_002_002_execute(void) {
 8009a72:	b510      	push	{r4, lr}
  test_set_step(1);
 8009a74:	4c30      	ldr	r4, [pc, #192]	; (8009b38 <rt_test_002_002_execute+0xc8>)
static void rt_test_002_002_execute(void) {
 8009a76:	b086      	sub	sp, #24
  test_set_step(1);
 8009a78:	6023      	str	r3, [r4, #0]
  __ASM volatile ("MRS %0, basepri" : "=r" (result) );
 8009a7a:	f3ef 8311 	mrs	r3, BASEPRI
  if (port_irq_enabled(sts)) {
 8009a7e:	b91b      	cbnz	r3, 8009a88 <rt_test_002_002_execute+0x18>
 8009a80:	f7f8 fa8e 	bl	8001fa0 <chSysGetStatusAndLockX.part.1>
 8009a84:	f7ff ffe4 	bl	8009a50 <chSysRestoreStatusX.part.2>
  test_set_step(2);
 8009a88:	2202      	movs	r2, #2
  __ASM volatile ("MSR basepri, %0" : : "r" (basePri) : "memory");
 8009a8a:	2320      	movs	r3, #32
 8009a8c:	6022      	str	r2, [r4, #0]
 8009a8e:	f383 8811 	msr	BASEPRI, r3
  __ASM volatile ("MRS %0, basepri" : "=r" (result) );
 8009a92:	f3ef 8311 	mrs	r3, BASEPRI
 8009a96:	b91b      	cbnz	r3, 8009aa0 <rt_test_002_002_execute+0x30>
 8009a98:	f7f8 fa82 	bl	8001fa0 <chSysGetStatusAndLockX.part.1>
 8009a9c:	f7ff ffd8 	bl	8009a50 <chSysRestoreStatusX.part.2>
  __ASM volatile ("MSR basepri, %0" : : "r" (basePri) : "memory");
 8009aa0:	2300      	movs	r3, #0
 8009aa2:	f383 8811 	msr	BASEPRI, r3
  test_set_step(3);
 8009aa6:	2303      	movs	r3, #3
 8009aa8:	6023      	str	r3, [r4, #0]
  __ASM volatile ("MRS %0, basepri" : "=r" (result) );
 8009aaa:	f3ef 8311 	mrs	r3, BASEPRI
 *
 * @special
 */
static inline void chSysUnconditionalLock(void) {

  if (port_irq_enabled(port_get_irq_status())) {
 8009aae:	b913      	cbnz	r3, 8009ab6 <rt_test_002_002_execute+0x46>
  __ASM volatile ("MSR basepri, %0" : : "r" (basePri) : "memory");
 8009ab0:	2320      	movs	r3, #32
 8009ab2:	f383 8811 	msr	BASEPRI, r3
  __ASM volatile ("MRS %0, basepri" : "=r" (result) );
 8009ab6:	f3ef 8311 	mrs	r3, BASEPRI
 8009aba:	b913      	cbnz	r3, 8009ac2 <rt_test_002_002_execute+0x52>
  __ASM volatile ("MSR basepri, %0" : : "r" (basePri) : "memory");
 8009abc:	2320      	movs	r3, #32
 8009abe:	f383 8811 	msr	BASEPRI, r3
 8009ac2:	2300      	movs	r3, #0
 8009ac4:	f383 8811 	msr	BASEPRI, r3
  test_set_step(4);
 8009ac8:	2104      	movs	r1, #4
 8009aca:	2220      	movs	r2, #32
 8009acc:	6021      	str	r1, [r4, #0]
 8009ace:	f382 8811 	msr	BASEPRI, r2
  __ASM volatile ("MRS %0, basepri" : "=r" (result) );
 8009ad2:	f3ef 8211 	mrs	r2, BASEPRI
 *
 * @special
 */
static inline void chSysUnconditionalUnlock(void) {

  if (!port_irq_enabled(port_get_irq_status())) {
 8009ad6:	b10a      	cbz	r2, 8009adc <rt_test_002_002_execute+0x6c>
  __ASM volatile ("MSR basepri, %0" : : "r" (basePri) : "memory");
 8009ad8:	f383 8811 	msr	BASEPRI, r3
  __ASM volatile ("MRS %0, basepri" : "=r" (result) );
 8009adc:	f3ef 8311 	mrs	r3, BASEPRI
 8009ae0:	b113      	cbz	r3, 8009ae8 <rt_test_002_002_execute+0x78>
  __ASM volatile ("MSR basepri, %0" : : "r" (basePri) : "memory");
 8009ae2:	2300      	movs	r3, #0
 8009ae4:	f383 8811 	msr	BASEPRI, r3
  test_set_step(5);
 8009ae8:	2205      	movs	r2, #5
  vtp->func = NULL;
 8009aea:	2300      	movs	r3, #0
 8009aec:	6022      	str	r2, [r4, #0]
 8009aee:	9304      	str	r3, [sp, #16]
 8009af0:	2320      	movs	r3, #32
 8009af2:	f383 8811 	msr	BASEPRI, r3
  if (chVTIsArmedI(vtp)) {
 8009af6:	9b04      	ldr	r3, [sp, #16]
    chVTDoResetI(vtp);
 8009af8:	ac01      	add	r4, sp, #4
  if (chVTIsArmedI(vtp)) {
 8009afa:	b113      	cbz	r3, 8009b02 <rt_test_002_002_execute+0x92>
    chVTDoResetI(vtp);
 8009afc:	4620      	mov	r0, r4
 8009afe:	f7f8 f99f 	bl	8001e40 <chVTDoResetI>
  chVTDoSetI(vtp, delay, vtfunc, par);
 8009b02:	4620      	mov	r0, r4
 8009b04:	2300      	movs	r3, #0
 8009b06:	4a0d      	ldr	r2, [pc, #52]	; (8009b3c <rt_test_002_002_execute+0xcc>)
 8009b08:	2101      	movs	r1, #1
 8009b0a:	f7f8 f9e1 	bl	8001ed0 <chVTDoSetI>
 8009b0e:	2400      	movs	r4, #0
 8009b10:	f384 8811 	msr	BASEPRI, r4
    chThdSleep(10);
 8009b14:	200a      	movs	r0, #10
 8009b16:	f7fa f81b 	bl	8003b50 <chThdSleep>
 8009b1a:	2320      	movs	r3, #32
 8009b1c:	f383 8811 	msr	BASEPRI, r3
 8009b20:	9804      	ldr	r0, [sp, #16]
 8009b22:	f384 8811 	msr	BASEPRI, r4
    test_assert(chVTIsArmed(&vt) == false, "timer still armed");
 8009b26:	fab0 f080 	clz	r0, r0
 8009b2a:	4905      	ldr	r1, [pc, #20]	; (8009b40 <rt_test_002_002_execute+0xd0>)
 8009b2c:	0940      	lsrs	r0, r0, #5
 8009b2e:	f7f6 ff0f 	bl	8000950 <_test_assert>
}
 8009b32:	b006      	add	sp, #24
 8009b34:	bd10      	pop	{r4, pc}
 8009b36:	bf00      	nop
 8009b38:	20001c5c 	.word	0x20001c5c
 8009b3c:	08009b51 	.word	0x08009b51
 8009b40:	0800b210 	.word	0x0800b210
	...

08009b50 <vtcb>:
static void vtcb(void *p) {
 8009b50:	b508      	push	{r3, lr}
 8009b52:	2320      	movs	r3, #32
 8009b54:	f383 8811 	msr	BASEPRI, r3
 8009b58:	2200      	movs	r2, #0
 8009b5a:	f382 8811 	msr	BASEPRI, r2
 8009b5e:	f383 8811 	msr	BASEPRI, r3
  __ASM volatile ("MRS %0, basepri" : "=r" (result) );
 8009b62:	f3ef 8311 	mrs	r3, BASEPRI
 8009b66:	b91b      	cbnz	r3, 8009b70 <vtcb+0x20>
 8009b68:	f7f8 fa1a 	bl	8001fa0 <chSysGetStatusAndLockX.part.1>
 8009b6c:	f7ff ff70 	bl	8009a50 <chSysRestoreStatusX.part.2>
  __ASM volatile ("MSR basepri, %0" : : "r" (basePri) : "memory");
 8009b70:	2300      	movs	r3, #0
 8009b72:	f383 8811 	msr	BASEPRI, r3
}
 8009b76:	bd08      	pop	{r3, pc}
	...

08009b80 <__init_ram_areas>:
}

/**
 * @brief   Performs the initialization of the various RAM areas.
 */
void __init_ram_areas(void) {
 8009b80:	b4f0      	push	{r4, r5, r6, r7}
      tp++;
    }

    /* Zeroing clear area.*/
    while (p < rap->no_init_area) {
      *p = 0;
 8009b82:	2700      	movs	r7, #0
 8009b84:	4e13      	ldr	r6, [pc, #76]	; (8009bd4 <__init_ram_areas+0x54>)
void __init_ram_areas(void) {
 8009b86:	4d14      	ldr	r5, [pc, #80]	; (8009bd8 <__init_ram_areas+0x58>)
 8009b88:	4c14      	ldr	r4, [pc, #80]	; (8009bdc <__init_ram_areas+0x5c>)
 8009b8a:	4b15      	ldr	r3, [pc, #84]	; (8009be0 <__init_ram_areas+0x60>)
 8009b8c:	4915      	ldr	r1, [pc, #84]	; (8009be4 <__init_ram_areas+0x64>)
 8009b8e:	f106 0c70 	add.w	ip, r6, #112	; 0x70
    while (p < rap->clear_area) {
 8009b92:	429c      	cmp	r4, r3
 8009b94:	d911      	bls.n	8009bba <__init_ram_areas+0x3a>
 8009b96:	461a      	mov	r2, r3
 8009b98:	3904      	subs	r1, #4
      *p = *tp;
 8009b9a:	f851 0f04 	ldr.w	r0, [r1, #4]!
 8009b9e:	f842 0b04 	str.w	r0, [r2], #4
    while (p < rap->clear_area) {
 8009ba2:	4294      	cmp	r4, r2
 8009ba4:	d8f9      	bhi.n	8009b9a <__init_ram_areas+0x1a>
 8009ba6:	43da      	mvns	r2, r3
 8009ba8:	4414      	add	r4, r2
 8009baa:	f024 0403 	bic.w	r4, r4, #3
 8009bae:	3404      	adds	r4, #4
 8009bb0:	4423      	add	r3, r4
    while (p < rap->no_init_area) {
 8009bb2:	429d      	cmp	r5, r3
 8009bb4:	d903      	bls.n	8009bbe <__init_ram_areas+0x3e>
      *p = 0;
 8009bb6:	f843 7b04 	str.w	r7, [r3], #4
    while (p < rap->no_init_area) {
 8009bba:	429d      	cmp	r5, r3
 8009bbc:	d8fb      	bhi.n	8009bb6 <__init_ram_areas+0x36>
      p++;
    }
    rap++;
  }
  while (rap < &ram_areas[CRT1_AREAS_NUMBER]);
 8009bbe:	4566      	cmp	r6, ip
 8009bc0:	d005      	beq.n	8009bce <__init_ram_areas+0x4e>
 8009bc2:	e9d6 1304 	ldrd	r1, r3, [r6, #16]
 8009bc6:	e9d6 4506 	ldrd	r4, r5, [r6, #24]
 8009bca:	3610      	adds	r6, #16
 8009bcc:	e7e1      	b.n	8009b92 <__init_ram_areas+0x12>
#endif
}
 8009bce:	bcf0      	pop	{r4, r5, r6, r7}
 8009bd0:	4770      	bx	lr
 8009bd2:	bf00      	nop
 8009bd4:	0800a6fc 	.word	0x0800a6fc
 8009bd8:	20001cb4 	.word	0x20001cb4
 8009bdc:	20001cb4 	.word	0x20001cb4
 8009be0:	20001cb4 	.word	0x20001cb4
 8009be4:	0800c770 	.word	0x0800c770
	...

08009bf0 <__default_exit>:
void __default_exit(void) {
 8009bf0:	e7fe      	b.n	8009bf0 <__default_exit>
 8009bf2:	bf00      	nop
	...

08009c00 <__late_init>:
 8009c00:	4770      	bx	lr
 8009c02:	bf00      	nop
	...

08009c10 <__core_init>:
}
 8009c10:	4770      	bx	lr
 8009c12:	bf00      	nop

08009c14 <memset>:
 8009c14:	b4f0      	push	{r4, r5, r6, r7}
 8009c16:	0786      	lsls	r6, r0, #30
 8009c18:	d043      	beq.n	8009ca2 <memset+0x8e>
 8009c1a:	1e54      	subs	r4, r2, #1
 8009c1c:	2a00      	cmp	r2, #0
 8009c1e:	d03e      	beq.n	8009c9e <memset+0x8a>
 8009c20:	b2ca      	uxtb	r2, r1
 8009c22:	4603      	mov	r3, r0
 8009c24:	e002      	b.n	8009c2c <memset+0x18>
 8009c26:	f114 34ff 	adds.w	r4, r4, #4294967295	; 0xffffffff
 8009c2a:	d338      	bcc.n	8009c9e <memset+0x8a>
 8009c2c:	f803 2b01 	strb.w	r2, [r3], #1
 8009c30:	079d      	lsls	r5, r3, #30
 8009c32:	d1f8      	bne.n	8009c26 <memset+0x12>
 8009c34:	2c03      	cmp	r4, #3
 8009c36:	d92b      	bls.n	8009c90 <memset+0x7c>
 8009c38:	b2cd      	uxtb	r5, r1
 8009c3a:	ea45 2505 	orr.w	r5, r5, r5, lsl #8
 8009c3e:	2c0f      	cmp	r4, #15
 8009c40:	ea45 4505 	orr.w	r5, r5, r5, lsl #16
 8009c44:	d916      	bls.n	8009c74 <memset+0x60>
 8009c46:	f1a4 0710 	sub.w	r7, r4, #16
 8009c4a:	093f      	lsrs	r7, r7, #4
 8009c4c:	f103 0620 	add.w	r6, r3, #32
 8009c50:	eb06 1607 	add.w	r6, r6, r7, lsl #4
 8009c54:	f103 0210 	add.w	r2, r3, #16
 8009c58:	e942 5504 	strd	r5, r5, [r2, #-16]
 8009c5c:	e942 5502 	strd	r5, r5, [r2, #-8]
 8009c60:	3210      	adds	r2, #16
 8009c62:	42b2      	cmp	r2, r6
 8009c64:	d1f8      	bne.n	8009c58 <memset+0x44>
 8009c66:	f004 040f 	and.w	r4, r4, #15
 8009c6a:	3701      	adds	r7, #1
 8009c6c:	2c03      	cmp	r4, #3
 8009c6e:	eb03 1307 	add.w	r3, r3, r7, lsl #4
 8009c72:	d90d      	bls.n	8009c90 <memset+0x7c>
 8009c74:	461e      	mov	r6, r3
 8009c76:	4622      	mov	r2, r4
 8009c78:	3a04      	subs	r2, #4
 8009c7a:	2a03      	cmp	r2, #3
 8009c7c:	f846 5b04 	str.w	r5, [r6], #4
 8009c80:	d8fa      	bhi.n	8009c78 <memset+0x64>
 8009c82:	1f22      	subs	r2, r4, #4
 8009c84:	f022 0203 	bic.w	r2, r2, #3
 8009c88:	3204      	adds	r2, #4
 8009c8a:	4413      	add	r3, r2
 8009c8c:	f004 0403 	and.w	r4, r4, #3
 8009c90:	b12c      	cbz	r4, 8009c9e <memset+0x8a>
 8009c92:	b2c9      	uxtb	r1, r1
 8009c94:	441c      	add	r4, r3
 8009c96:	f803 1b01 	strb.w	r1, [r3], #1
 8009c9a:	429c      	cmp	r4, r3
 8009c9c:	d1fb      	bne.n	8009c96 <memset+0x82>
 8009c9e:	bcf0      	pop	{r4, r5, r6, r7}
 8009ca0:	4770      	bx	lr
 8009ca2:	4614      	mov	r4, r2
 8009ca4:	4603      	mov	r3, r0
 8009ca6:	e7c5      	b.n	8009c34 <memset+0x20>

08009ca8 <strchr>:
 8009ca8:	b2c9      	uxtb	r1, r1
 8009caa:	f000 0303 	and.w	r3, r0, #3
 8009cae:	2900      	cmp	r1, #0
 8009cb0:	d043      	beq.n	8009d3a <strchr+0x92>
 8009cb2:	b17b      	cbz	r3, 8009cd4 <strchr+0x2c>
 8009cb4:	7803      	ldrb	r3, [r0, #0]
 8009cb6:	2b00      	cmp	r3, #0
 8009cb8:	d067      	beq.n	8009d8a <strchr+0xe2>
 8009cba:	4299      	cmp	r1, r3
 8009cbc:	d03c      	beq.n	8009d38 <strchr+0x90>
 8009cbe:	1c43      	adds	r3, r0, #1
 8009cc0:	e005      	b.n	8009cce <strchr+0x26>
 8009cc2:	f813 2b01 	ldrb.w	r2, [r3], #1
 8009cc6:	2a00      	cmp	r2, #0
 8009cc8:	d05d      	beq.n	8009d86 <strchr+0xde>
 8009cca:	428a      	cmp	r2, r1
 8009ccc:	d034      	beq.n	8009d38 <strchr+0x90>
 8009cce:	079a      	lsls	r2, r3, #30
 8009cd0:	4618      	mov	r0, r3
 8009cd2:	d1f6      	bne.n	8009cc2 <strchr+0x1a>
 8009cd4:	b470      	push	{r4, r5, r6}
 8009cd6:	6804      	ldr	r4, [r0, #0]
 8009cd8:	ea41 2601 	orr.w	r6, r1, r1, lsl #8
 8009cdc:	ea46 4606 	orr.w	r6, r6, r6, lsl #16
 8009ce0:	ea86 0504 	eor.w	r5, r6, r4
 8009ce4:	f1a5 3301 	sub.w	r3, r5, #16843009	; 0x1010101
 8009ce8:	f1a4 3201 	sub.w	r2, r4, #16843009	; 0x1010101
 8009cec:	ea23 0305 	bic.w	r3, r3, r5
 8009cf0:	ea22 0204 	bic.w	r2, r2, r4
 8009cf4:	4313      	orrs	r3, r2
 8009cf6:	f013 3f80 	tst.w	r3, #2155905152	; 0x80808080
 8009cfa:	d10f      	bne.n	8009d1c <strchr+0x74>
 8009cfc:	f850 4f04 	ldr.w	r4, [r0, #4]!
 8009d00:	ea84 0506 	eor.w	r5, r4, r6
 8009d04:	f1a5 3201 	sub.w	r2, r5, #16843009	; 0x1010101
 8009d08:	f1a4 3301 	sub.w	r3, r4, #16843009	; 0x1010101
 8009d0c:	ea22 0205 	bic.w	r2, r2, r5
 8009d10:	ea23 0304 	bic.w	r3, r3, r4
 8009d14:	4313      	orrs	r3, r2
 8009d16:	f013 3f80 	tst.w	r3, #2155905152	; 0x80808080
 8009d1a:	d0ef      	beq.n	8009cfc <strchr+0x54>
 8009d1c:	7803      	ldrb	r3, [r0, #0]
 8009d1e:	b143      	cbz	r3, 8009d32 <strchr+0x8a>
 8009d20:	4299      	cmp	r1, r3
 8009d22:	d102      	bne.n	8009d2a <strchr+0x82>
 8009d24:	e006      	b.n	8009d34 <strchr+0x8c>
 8009d26:	428b      	cmp	r3, r1
 8009d28:	d004      	beq.n	8009d34 <strchr+0x8c>
 8009d2a:	f810 3f01 	ldrb.w	r3, [r0, #1]!
 8009d2e:	2b00      	cmp	r3, #0
 8009d30:	d1f9      	bne.n	8009d26 <strchr+0x7e>
 8009d32:	4618      	mov	r0, r3
 8009d34:	bc70      	pop	{r4, r5, r6}
 8009d36:	4770      	bx	lr
 8009d38:	4770      	bx	lr
 8009d3a:	b15b      	cbz	r3, 8009d54 <strchr+0xac>
 8009d3c:	7803      	ldrb	r3, [r0, #0]
 8009d3e:	2b00      	cmp	r3, #0
 8009d40:	d0fa      	beq.n	8009d38 <strchr+0x90>
 8009d42:	1c43      	adds	r3, r0, #1
 8009d44:	e003      	b.n	8009d4e <strchr+0xa6>
 8009d46:	7802      	ldrb	r2, [r0, #0]
 8009d48:	3301      	adds	r3, #1
 8009d4a:	2a00      	cmp	r2, #0
 8009d4c:	d0f4      	beq.n	8009d38 <strchr+0x90>
 8009d4e:	0799      	lsls	r1, r3, #30
 8009d50:	4618      	mov	r0, r3
 8009d52:	d1f8      	bne.n	8009d46 <strchr+0x9e>
 8009d54:	6802      	ldr	r2, [r0, #0]
 8009d56:	f1a2 3301 	sub.w	r3, r2, #16843009	; 0x1010101
 8009d5a:	ea23 0302 	bic.w	r3, r3, r2
 8009d5e:	f013 3f80 	tst.w	r3, #2155905152	; 0x80808080
 8009d62:	d108      	bne.n	8009d76 <strchr+0xce>
 8009d64:	f850 2f04 	ldr.w	r2, [r0, #4]!
 8009d68:	f1a2 3301 	sub.w	r3, r2, #16843009	; 0x1010101
 8009d6c:	ea23 0302 	bic.w	r3, r3, r2
 8009d70:	f013 3f80 	tst.w	r3, #2155905152	; 0x80808080
 8009d74:	d0f6      	beq.n	8009d64 <strchr+0xbc>
 8009d76:	7803      	ldrb	r3, [r0, #0]
 8009d78:	2b00      	cmp	r3, #0
 8009d7a:	d0dd      	beq.n	8009d38 <strchr+0x90>
 8009d7c:	f810 3f01 	ldrb.w	r3, [r0, #1]!
 8009d80:	2b00      	cmp	r3, #0
 8009d82:	d1fb      	bne.n	8009d7c <strchr+0xd4>
 8009d84:	4770      	bx	lr
 8009d86:	4610      	mov	r0, r2
 8009d88:	4770      	bx	lr
 8009d8a:	4618      	mov	r0, r3
 8009d8c:	4770      	bx	lr
 8009d8e:	bf00      	nop

08009d90 <strncmp>:
 8009d90:	2a00      	cmp	r2, #0
 8009d92:	d03f      	beq.n	8009e14 <strncmp+0x84>
 8009d94:	ea40 0301 	orr.w	r3, r0, r1
 8009d98:	f013 0303 	ands.w	r3, r3, #3
 8009d9c:	b4f0      	push	{r4, r5, r6, r7}
 8009d9e:	d125      	bne.n	8009dec <strncmp+0x5c>
 8009da0:	2a03      	cmp	r2, #3
 8009da2:	d923      	bls.n	8009dec <strncmp+0x5c>
 8009da4:	6804      	ldr	r4, [r0, #0]
 8009da6:	680d      	ldr	r5, [r1, #0]
 8009da8:	42ac      	cmp	r4, r5
 8009daa:	d11f      	bne.n	8009dec <strncmp+0x5c>
 8009dac:	3a04      	subs	r2, #4
 8009dae:	d033      	beq.n	8009e18 <strncmp+0x88>
 8009db0:	f1a4 3501 	sub.w	r5, r4, #16843009	; 0x1010101
 8009db4:	ea25 0404 	bic.w	r4, r5, r4
 8009db8:	f014 3f80 	tst.w	r4, #2155905152	; 0x80808080
 8009dbc:	d12f      	bne.n	8009e1e <strncmp+0x8e>
 8009dbe:	1d07      	adds	r7, r0, #4
 8009dc0:	1d0d      	adds	r5, r1, #4
 8009dc2:	e00d      	b.n	8009de0 <strncmp+0x50>
 8009dc4:	f857 3b04 	ldr.w	r3, [r7], #4
 8009dc8:	680e      	ldr	r6, [r1, #0]
 8009dca:	f1a3 3401 	sub.w	r4, r3, #16843009	; 0x1010101
 8009dce:	42b3      	cmp	r3, r6
 8009dd0:	ea24 0403 	bic.w	r4, r4, r3
 8009dd4:	d10a      	bne.n	8009dec <strncmp+0x5c>
 8009dd6:	3a04      	subs	r2, #4
 8009dd8:	d01e      	beq.n	8009e18 <strncmp+0x88>
 8009dda:	f014 3f80 	tst.w	r4, #2155905152	; 0x80808080
 8009dde:	d11b      	bne.n	8009e18 <strncmp+0x88>
 8009de0:	2a03      	cmp	r2, #3
 8009de2:	4629      	mov	r1, r5
 8009de4:	4638      	mov	r0, r7
 8009de6:	f105 0504 	add.w	r5, r5, #4
 8009dea:	d8eb      	bhi.n	8009dc4 <strncmp+0x34>
 8009dec:	7803      	ldrb	r3, [r0, #0]
 8009dee:	780c      	ldrb	r4, [r1, #0]
 8009df0:	3a01      	subs	r2, #1
 8009df2:	429c      	cmp	r4, r3
 8009df4:	d10b      	bne.n	8009e0e <strncmp+0x7e>
 8009df6:	b17a      	cbz	r2, 8009e18 <strncmp+0x88>
 8009df8:	b914      	cbnz	r4, 8009e00 <strncmp+0x70>
 8009dfa:	e00d      	b.n	8009e18 <strncmp+0x88>
 8009dfc:	b162      	cbz	r2, 8009e18 <strncmp+0x88>
 8009dfe:	b173      	cbz	r3, 8009e1e <strncmp+0x8e>
 8009e00:	f810 3f01 	ldrb.w	r3, [r0, #1]!
 8009e04:	f811 4f01 	ldrb.w	r4, [r1, #1]!
 8009e08:	3a01      	subs	r2, #1
 8009e0a:	42a3      	cmp	r3, r4
 8009e0c:	d0f6      	beq.n	8009dfc <strncmp+0x6c>
 8009e0e:	1b18      	subs	r0, r3, r4
 8009e10:	bcf0      	pop	{r4, r5, r6, r7}
 8009e12:	4770      	bx	lr
 8009e14:	4610      	mov	r0, r2
 8009e16:	4770      	bx	lr
 8009e18:	2000      	movs	r0, #0
 8009e1a:	bcf0      	pop	{r4, r5, r6, r7}
 8009e1c:	4770      	bx	lr
 8009e1e:	4618      	mov	r0, r3
 8009e20:	e7f6      	b.n	8009e10 <strncmp+0x80>
 8009e22:	bf00      	nop

08009e24 <strncpy>:
 8009e24:	ea40 0301 	orr.w	r3, r0, r1
 8009e28:	079b      	lsls	r3, r3, #30
 8009e2a:	b470      	push	{r4, r5, r6}
 8009e2c:	d12a      	bne.n	8009e84 <strncpy+0x60>
 8009e2e:	2a03      	cmp	r2, #3
 8009e30:	d928      	bls.n	8009e84 <strncpy+0x60>
 8009e32:	460c      	mov	r4, r1
 8009e34:	4603      	mov	r3, r0
 8009e36:	4621      	mov	r1, r4
 8009e38:	f854 6b04 	ldr.w	r6, [r4], #4
 8009e3c:	f1a6 3501 	sub.w	r5, r6, #16843009	; 0x1010101
 8009e40:	ea25 0506 	bic.w	r5, r5, r6
 8009e44:	f015 3f80 	tst.w	r5, #2155905152	; 0x80808080
 8009e48:	d106      	bne.n	8009e58 <strncpy+0x34>
 8009e4a:	3a04      	subs	r2, #4
 8009e4c:	2a03      	cmp	r2, #3
 8009e4e:	f843 6b04 	str.w	r6, [r3], #4
 8009e52:	4621      	mov	r1, r4
 8009e54:	d8ef      	bhi.n	8009e36 <strncpy+0x12>
 8009e56:	b19a      	cbz	r2, 8009e80 <strncpy+0x5c>
 8009e58:	780c      	ldrb	r4, [r1, #0]
 8009e5a:	3a01      	subs	r2, #1
 8009e5c:	701c      	strb	r4, [r3, #0]
 8009e5e:	3301      	adds	r3, #1
 8009e60:	b13c      	cbz	r4, 8009e72 <strncpy+0x4e>
 8009e62:	b16a      	cbz	r2, 8009e80 <strncpy+0x5c>
 8009e64:	f811 4f01 	ldrb.w	r4, [r1, #1]!
 8009e68:	3a01      	subs	r2, #1
 8009e6a:	f803 4b01 	strb.w	r4, [r3], #1
 8009e6e:	2c00      	cmp	r4, #0
 8009e70:	d1f7      	bne.n	8009e62 <strncpy+0x3e>
 8009e72:	b12a      	cbz	r2, 8009e80 <strncpy+0x5c>
 8009e74:	2100      	movs	r1, #0
 8009e76:	441a      	add	r2, r3
 8009e78:	f803 1b01 	strb.w	r1, [r3], #1
 8009e7c:	4293      	cmp	r3, r2
 8009e7e:	d1fb      	bne.n	8009e78 <strncpy+0x54>
 8009e80:	bc70      	pop	{r4, r5, r6}
 8009e82:	4770      	bx	lr
 8009e84:	4603      	mov	r3, r0
 8009e86:	e7e6      	b.n	8009e56 <strncpy+0x32>

08009e88 <strpbrk>:
 8009e88:	b430      	push	{r4, r5}
 8009e8a:	7804      	ldrb	r4, [r0, #0]
 8009e8c:	b1dc      	cbz	r4, 8009ec6 <strpbrk+0x3e>
 8009e8e:	780d      	ldrb	r5, [r1, #0]
 8009e90:	b19d      	cbz	r5, 8009eba <strpbrk+0x32>
 8009e92:	42ac      	cmp	r4, r5
 8009e94:	d00f      	beq.n	8009eb6 <strpbrk+0x2e>
 8009e96:	460a      	mov	r2, r1
 8009e98:	e001      	b.n	8009e9e <strpbrk+0x16>
 8009e9a:	429c      	cmp	r4, r3
 8009e9c:	d00b      	beq.n	8009eb6 <strpbrk+0x2e>
 8009e9e:	f812 3f01 	ldrb.w	r3, [r2, #1]!
 8009ea2:	2b00      	cmp	r3, #0
 8009ea4:	d1f9      	bne.n	8009e9a <strpbrk+0x12>
 8009ea6:	f810 4f01 	ldrb.w	r4, [r0, #1]!
 8009eaa:	2c00      	cmp	r4, #0
 8009eac:	d1f0      	bne.n	8009e90 <strpbrk+0x8>
 8009eae:	7813      	ldrb	r3, [r2, #0]
 8009eb0:	2b00      	cmp	r3, #0
 8009eb2:	bf08      	it	eq
 8009eb4:	2000      	moveq	r0, #0
 8009eb6:	bc30      	pop	{r4, r5}
 8009eb8:	4770      	bx	lr
 8009eba:	f810 4f01 	ldrb.w	r4, [r0, #1]!
 8009ebe:	460a      	mov	r2, r1
 8009ec0:	2c00      	cmp	r4, #0
 8009ec2:	d1e5      	bne.n	8009e90 <strpbrk+0x8>
 8009ec4:	e7f3      	b.n	8009eae <strpbrk+0x26>
 8009ec6:	4620      	mov	r0, r4
 8009ec8:	e7f5      	b.n	8009eb6 <strpbrk+0x2e>
 8009eca:	bf00      	nop

08009ecc <strspn>:
 8009ecc:	b470      	push	{r4, r5, r6}
 8009ece:	7804      	ldrb	r4, [r0, #0]
 8009ed0:	b1a4      	cbz	r4, 8009efc <strspn+0x30>
 8009ed2:	4606      	mov	r6, r0
 8009ed4:	780d      	ldrb	r5, [r1, #0]
 8009ed6:	b14d      	cbz	r5, 8009eec <strspn+0x20>
 8009ed8:	42a5      	cmp	r5, r4
 8009eda:	d00a      	beq.n	8009ef2 <strspn+0x26>
 8009edc:	460a      	mov	r2, r1
 8009ede:	e001      	b.n	8009ee4 <strspn+0x18>
 8009ee0:	42a3      	cmp	r3, r4
 8009ee2:	d006      	beq.n	8009ef2 <strspn+0x26>
 8009ee4:	f812 3f01 	ldrb.w	r3, [r2, #1]!
 8009ee8:	2b00      	cmp	r3, #0
 8009eea:	d1f9      	bne.n	8009ee0 <strspn+0x14>
 8009eec:	1b80      	subs	r0, r0, r6
 8009eee:	bc70      	pop	{r4, r5, r6}
 8009ef0:	4770      	bx	lr
 8009ef2:	f810 4f01 	ldrb.w	r4, [r0, #1]!
 8009ef6:	2c00      	cmp	r4, #0
 8009ef8:	d1ed      	bne.n	8009ed6 <strspn+0xa>
 8009efa:	e7f7      	b.n	8009eec <strspn+0x20>
 8009efc:	4620      	mov	r0, r4
 8009efe:	e7f6      	b.n	8009eee <strspn+0x22>
